Archive member included because of file (symbol)

/usr/bin/../lib/gcc/arm-none-eabi/4.9.3/../../../../arm-none-eabi/lib/armv7-m/libc_nano.a(lib_a-atoi.o)
                              obj/main/CC3D/io/ledstrip.o (symbol from plugin) (atoi)
/usr/bin/../lib/gcc/arm-none-eabi/4.9.3/../../../../arm-none-eabi/lib/armv7-m/libc_nano.a(lib_a-ctype_.o)
                              obj/main/CC3D/io/serial_cli.o (symbol from plugin) (__ctype_ptr__)
/usr/bin/../lib/gcc/arm-none-eabi/4.9.3/../../../../arm-none-eabi/lib/armv7-m/libc_nano.a(lib_a-strtok.o)
                              obj/main/CC3D/io/serial_cli.o (symbol from plugin) (strtok)
/usr/bin/../lib/gcc/arm-none-eabi/4.9.3/../../../../arm-none-eabi/lib/armv7-m/libc_nano.a(lib_a-strtok_r.o)
                              /usr/bin/../lib/gcc/arm-none-eabi/4.9.3/../../../../arm-none-eabi/lib/armv7-m/libc_nano.a(lib_a-strtok.o) (__strtok_r)
/usr/bin/../lib/gcc/arm-none-eabi/4.9.3/../../../../arm-none-eabi/lib/armv7-m/libc_nano.a(lib_a-strtol.o)
                              /usr/bin/../lib/gcc/arm-none-eabi/4.9.3/../../../../arm-none-eabi/lib/armv7-m/libc_nano.a(lib_a-atoi.o) (_strtol_r)
/usr/bin/../lib/gcc/arm-none-eabi/4.9.3/../../../../arm-none-eabi/lib/armv7-m/libc_nano.a(lib_a-impure.o)
                              /usr/bin/../lib/gcc/arm-none-eabi/4.9.3/../../../../arm-none-eabi/lib/armv7-m/libc_nano.a(lib_a-strtok.o) (_impure_ptr)
/usr/bin/../lib/gcc/arm-none-eabi/4.9.3/../../../../arm-none-eabi/lib/armv7-m/libc_nano.a(lib_a-malloc.o)
                              /usr/bin/../lib/gcc/arm-none-eabi/4.9.3/../../../../arm-none-eabi/lib/armv7-m/libc_nano.a(lib_a-strtok.o) (malloc)
/usr/bin/../lib/gcc/arm-none-eabi/4.9.3/../../../../arm-none-eabi/lib/armv7-m/libc_nano.a(lib_a-nano-freer.o)
                              /usr/bin/../lib/gcc/arm-none-eabi/4.9.3/../../../../arm-none-eabi/lib/armv7-m/libc_nano.a(lib_a-malloc.o) (_free_r)
/usr/bin/../lib/gcc/arm-none-eabi/4.9.3/../../../../arm-none-eabi/lib/armv7-m/libc_nano.a(lib_a-nano-mallocr.o)
                              /usr/bin/../lib/gcc/arm-none-eabi/4.9.3/../../../../arm-none-eabi/lib/armv7-m/libc_nano.a(lib_a-malloc.o) (_malloc_r)
/usr/bin/../lib/gcc/arm-none-eabi/4.9.3/../../../../arm-none-eabi/lib/armv7-m/libc_nano.a(lib_a-sbrkr.o)
                              /usr/bin/../lib/gcc/arm-none-eabi/4.9.3/../../../../arm-none-eabi/lib/armv7-m/libc_nano.a(lib_a-nano-mallocr.o) (_sbrk_r)
/usr/bin/../lib/gcc/arm-none-eabi/4.9.3/../../../../arm-none-eabi/lib/armv7-m/libc_nano.a(lib_a-reent.o)
                              /usr/bin/../lib/gcc/arm-none-eabi/4.9.3/../../../../arm-none-eabi/lib/armv7-m/libc_nano.a(lib_a-sbrkr.o) (errno)
/usr/bin/../lib/gcc/arm-none-eabi/4.9.3/../../../../arm-none-eabi/lib/armv7-m/libnosys.a(sbrk.o)
                              /usr/bin/../lib/gcc/arm-none-eabi/4.9.3/../../../../arm-none-eabi/lib/armv7-m/libc_nano.a(lib_a-sbrkr.o) (_sbrk)
/usr/bin/../lib/gcc/arm-none-eabi/4.9.3/armv7-m/libgcc.a(_arm_addsubsf3.o)
                              /tmp/ccZkfwo0.ltrans0.ltrans.o (__aeabi_fsub)
/usr/bin/../lib/gcc/arm-none-eabi/4.9.3/armv7-m/libgcc.a(_arm_muldivsf3.o)
                              /tmp/ccZkfwo0.ltrans0.ltrans.o (__aeabi_fmul)
/usr/bin/../lib/gcc/arm-none-eabi/4.9.3/armv7-m/libgcc.a(_arm_cmpsf2.o)
                              /tmp/ccZkfwo0.ltrans0.ltrans.o (__aeabi_fcmpeq)
/usr/bin/../lib/gcc/arm-none-eabi/4.9.3/armv7-m/libgcc.a(_arm_fixsfsi.o)
                              /tmp/ccZkfwo0.ltrans2.ltrans.o (__aeabi_f2iz)
/usr/bin/../lib/gcc/arm-none-eabi/4.9.3/armv7-m/libgcc.a(_arm_fixunssfsi.o)
                              /tmp/ccZkfwo0.ltrans3.ltrans.o (__aeabi_f2uiz)
/usr/bin/../lib/gcc/arm-none-eabi/4.9.3/armv7-m/libgcc.a(_aeabi_ldivmod.o)
                              /tmp/ccZkfwo0.ltrans22.ltrans.o (__aeabi_ldivmod)
/usr/bin/../lib/gcc/arm-none-eabi/4.9.3/armv7-m/libgcc.a(bpabi.o)
                              /usr/bin/../lib/gcc/arm-none-eabi/4.9.3/armv7-m/libgcc.a(_aeabi_ldivmod.o) (__gnu_ldivmod_helper)
/usr/bin/../lib/gcc/arm-none-eabi/4.9.3/armv7-m/libgcc.a(_dvmd_tls.o)
                              /usr/bin/../lib/gcc/arm-none-eabi/4.9.3/armv7-m/libgcc.a(_aeabi_ldivmod.o) (__aeabi_ldiv0)
/usr/bin/../lib/gcc/arm-none-eabi/4.9.3/armv7-m/libgcc.a(_divdi3.o)
                              /usr/bin/../lib/gcc/arm-none-eabi/4.9.3/armv7-m/libgcc.a(bpabi.o) (__divdi3)
/usr/bin/../lib/gcc/arm-none-eabi/4.9.3/armv7-m/libgcc.a(_udivdi3.o)
                              /usr/bin/../lib/gcc/arm-none-eabi/4.9.3/armv7-m/libgcc.a(bpabi.o) (__udivdi3)
/usr/bin/../lib/gcc/arm-none-eabi/4.9.3/../../../../arm-none-eabi/lib/armv7-m/libg_nano.a(lib_a-memcmp.o)
                              /tmp/ccZkfwo0.ltrans5.ltrans.o (memcmp)
/usr/bin/../lib/gcc/arm-none-eabi/4.9.3/../../../../arm-none-eabi/lib/armv7-m/libg_nano.a(lib_a-memcpy.o)
                              /tmp/ccZkfwo0.ltrans4.ltrans.o (memcpy)
/usr/bin/../lib/gcc/arm-none-eabi/4.9.3/../../../../arm-none-eabi/lib/armv7-m/libg_nano.a(lib_a-memmove.o)
                              /tmp/ccZkfwo0.ltrans18.ltrans.o (memmove)
/usr/bin/../lib/gcc/arm-none-eabi/4.9.3/../../../../arm-none-eabi/lib/armv7-m/libg_nano.a(lib_a-memset.o)
                              /tmp/ccZkfwo0.ltrans0.ltrans.o (memset)
/usr/bin/../lib/gcc/arm-none-eabi/4.9.3/../../../../arm-none-eabi/lib/armv7-m/libg_nano.a(lib_a-strcasecmp.o)
                              /tmp/ccZkfwo0.ltrans10.ltrans.o (strcasecmp)
/usr/bin/../lib/gcc/arm-none-eabi/4.9.3/../../../../arm-none-eabi/lib/armv7-m/libg_nano.a(lib_a-strcat.o)
                              /tmp/ccZkfwo0.ltrans18.ltrans.o (strcat)
/usr/bin/../lib/gcc/arm-none-eabi/4.9.3/../../../../arm-none-eabi/lib/armv7-m/libg_nano.a(lib_a-strchr.o)
                              /tmp/ccZkfwo0.ltrans1.ltrans.o (strchr)
/usr/bin/../lib/gcc/arm-none-eabi/4.9.3/../../../../arm-none-eabi/lib/armv7-m/libg_nano.a(lib_a-strlen.o)
                              /tmp/ccZkfwo0.ltrans1.ltrans.o (strlen)
/usr/bin/../lib/gcc/arm-none-eabi/4.9.3/../../../../arm-none-eabi/lib/armv7-m/libg_nano.a(lib_a-strncasecmp.o)
                              /tmp/ccZkfwo0.ltrans1.ltrans.o (strncasecmp)
/usr/bin/../lib/gcc/arm-none-eabi/4.9.3/../../../../arm-none-eabi/lib/armv7-m/libg_nano.a(lib_a-strncpy.o)
                              /tmp/ccZkfwo0.ltrans18.ltrans.o (strncpy)
/usr/bin/../lib/gcc/arm-none-eabi/4.9.3/../../../../arm-none-eabi/lib/armv7-m/libg_nano.a(lib_a-strstr.o)
                              /tmp/ccZkfwo0.ltrans10.ltrans.o (strstr)
/usr/bin/../lib/gcc/arm-none-eabi/4.9.3/../../../../arm-none-eabi/lib/armv7-m/libm.a(lib_a-sf_cos.o)
                              /tmp/ccZkfwo0.ltrans18.ltrans.o (cosf)
/usr/bin/../lib/gcc/arm-none-eabi/4.9.3/../../../../arm-none-eabi/lib/armv7-m/libm.a(lib_a-sf_lrint.o)
                              /tmp/ccZkfwo0.ltrans2.ltrans.o (lrintf)
/usr/bin/../lib/gcc/arm-none-eabi/4.9.3/../../../../arm-none-eabi/lib/armv7-m/libm.a(lib_a-sf_sin.o)
                              /tmp/ccZkfwo0.ltrans18.ltrans.o (sinf)
/usr/bin/../lib/gcc/arm-none-eabi/4.9.3/../../../../arm-none-eabi/lib/armv7-m/libm.a(lib_a-wf_acos.o)
                              /tmp/ccZkfwo0.ltrans2.ltrans.o (acosf)
/usr/bin/../lib/gcc/arm-none-eabi/4.9.3/../../../../arm-none-eabi/lib/armv7-m/libm.a(lib_a-wf_atan2.o)
                              /tmp/ccZkfwo0.ltrans23.ltrans.o (atan2f)
/usr/bin/../lib/gcc/arm-none-eabi/4.9.3/../../../../arm-none-eabi/lib/armv7-m/libm.a(lib_a-wf_sqrt.o)
                              /tmp/ccZkfwo0.ltrans2.ltrans.o (sqrtf)
/usr/bin/../lib/gcc/arm-none-eabi/4.9.3/../../../../arm-none-eabi/lib/armv7-m/libm.a(lib_a-ef_acos.o)
                              /usr/bin/../lib/gcc/arm-none-eabi/4.9.3/../../../../arm-none-eabi/lib/armv7-m/libm.a(lib_a-wf_acos.o) (__ieee754_acosf)
/usr/bin/../lib/gcc/arm-none-eabi/4.9.3/../../../../arm-none-eabi/lib/armv7-m/libm.a(lib_a-ef_atan2.o)
                              /usr/bin/../lib/gcc/arm-none-eabi/4.9.3/../../../../arm-none-eabi/lib/armv7-m/libm.a(lib_a-wf_atan2.o) (__ieee754_atan2f)
/usr/bin/../lib/gcc/arm-none-eabi/4.9.3/../../../../arm-none-eabi/lib/armv7-m/libm.a(lib_a-ef_rem_pio2.o)
                              /usr/bin/../lib/gcc/arm-none-eabi/4.9.3/../../../../arm-none-eabi/lib/armv7-m/libm.a(lib_a-sf_cos.o) (__ieee754_rem_pio2f)
/usr/bin/../lib/gcc/arm-none-eabi/4.9.3/../../../../arm-none-eabi/lib/armv7-m/libm.a(lib_a-ef_sqrt.o)
                              /usr/bin/../lib/gcc/arm-none-eabi/4.9.3/../../../../arm-none-eabi/lib/armv7-m/libm.a(lib_a-wf_sqrt.o) (__ieee754_sqrtf)
/usr/bin/../lib/gcc/arm-none-eabi/4.9.3/../../../../arm-none-eabi/lib/armv7-m/libm.a(lib_a-kf_cos.o)
                              /usr/bin/../lib/gcc/arm-none-eabi/4.9.3/../../../../arm-none-eabi/lib/armv7-m/libm.a(lib_a-sf_cos.o) (__kernel_cosf)
/usr/bin/../lib/gcc/arm-none-eabi/4.9.3/../../../../arm-none-eabi/lib/armv7-m/libm.a(lib_a-kf_rem_pio2.o)
                              /usr/bin/../lib/gcc/arm-none-eabi/4.9.3/../../../../arm-none-eabi/lib/armv7-m/libm.a(lib_a-ef_rem_pio2.o) (__kernel_rem_pio2f)
/usr/bin/../lib/gcc/arm-none-eabi/4.9.3/../../../../arm-none-eabi/lib/armv7-m/libm.a(lib_a-kf_sin.o)
                              /usr/bin/../lib/gcc/arm-none-eabi/4.9.3/../../../../arm-none-eabi/lib/armv7-m/libm.a(lib_a-sf_cos.o) (__kernel_sinf)
/usr/bin/../lib/gcc/arm-none-eabi/4.9.3/../../../../arm-none-eabi/lib/armv7-m/libm.a(lib_a-s_lib_ver.o)
                              /usr/bin/../lib/gcc/arm-none-eabi/4.9.3/../../../../arm-none-eabi/lib/armv7-m/libm.a(lib_a-wf_acos.o) (__fdlib_version)
/usr/bin/../lib/gcc/arm-none-eabi/4.9.3/../../../../arm-none-eabi/lib/armv7-m/libm.a(lib_a-s_matherr.o)
                              /usr/bin/../lib/gcc/arm-none-eabi/4.9.3/../../../../arm-none-eabi/lib/armv7-m/libm.a(lib_a-wf_acos.o) (matherr)
/usr/bin/../lib/gcc/arm-none-eabi/4.9.3/../../../../arm-none-eabi/lib/armv7-m/libm.a(lib_a-s_nan.o)
                              /usr/bin/../lib/gcc/arm-none-eabi/4.9.3/../../../../arm-none-eabi/lib/armv7-m/libm.a(lib_a-wf_acos.o) (nan)
/usr/bin/../lib/gcc/arm-none-eabi/4.9.3/../../../../arm-none-eabi/lib/armv7-m/libm.a(lib_a-sf_atan.o)
                              /usr/bin/../lib/gcc/arm-none-eabi/4.9.3/../../../../arm-none-eabi/lib/armv7-m/libm.a(lib_a-ef_atan2.o) (atanf)
/usr/bin/../lib/gcc/arm-none-eabi/4.9.3/../../../../arm-none-eabi/lib/armv7-m/libm.a(lib_a-sf_fabs.o)
                              /usr/bin/../lib/gcc/arm-none-eabi/4.9.3/../../../../arm-none-eabi/lib/armv7-m/libm.a(lib_a-wf_acos.o) (fabsf)
/usr/bin/../lib/gcc/arm-none-eabi/4.9.3/../../../../arm-none-eabi/lib/armv7-m/libm.a(lib_a-sf_floor.o)
                              /usr/bin/../lib/gcc/arm-none-eabi/4.9.3/../../../../arm-none-eabi/lib/armv7-m/libm.a(lib_a-kf_rem_pio2.o) (floorf)
/usr/bin/../lib/gcc/arm-none-eabi/4.9.3/../../../../arm-none-eabi/lib/armv7-m/libm.a(lib_a-sf_fpclassify.o)
                              /usr/bin/../lib/gcc/arm-none-eabi/4.9.3/../../../../arm-none-eabi/lib/armv7-m/libm.a(lib_a-wf_acos.o) (__fpclassifyf)
/usr/bin/../lib/gcc/arm-none-eabi/4.9.3/../../../../arm-none-eabi/lib/armv7-m/libm.a(lib_a-sf_scalbn.o)
                              /usr/bin/../lib/gcc/arm-none-eabi/4.9.3/../../../../arm-none-eabi/lib/armv7-m/libm.a(lib_a-kf_rem_pio2.o) (scalbnf)
/usr/bin/../lib/gcc/arm-none-eabi/4.9.3/../../../../arm-none-eabi/lib/armv7-m/libm.a(lib_a-sf_copysign.o)
                              /usr/bin/../lib/gcc/arm-none-eabi/4.9.3/../../../../arm-none-eabi/lib/armv7-m/libm.a(lib_a-sf_scalbn.o) (copysignf)
/usr/bin/../lib/gcc/arm-none-eabi/4.9.3/../../../../arm-none-eabi/lib/armv7-m/libc_nano.a(lib_a-errno.o)
                              /usr/bin/../lib/gcc/arm-none-eabi/4.9.3/../../../../arm-none-eabi/lib/armv7-m/libm.a(lib_a-wf_acos.o) (__errno)
/usr/bin/../lib/gcc/arm-none-eabi/4.9.3/armv7-m/libgcc.a(_arm_addsubdf3.o)
                              /usr/bin/../lib/gcc/arm-none-eabi/4.9.3/../../../../arm-none-eabi/lib/armv7-m/libm.a(lib_a-wf_acos.o) (__aeabi_f2d)
/usr/bin/../lib/gcc/arm-none-eabi/4.9.3/armv7-m/libgcc.a(_arm_muldivdf3.o)
                              /usr/bin/../lib/gcc/arm-none-eabi/4.9.3/../../../../arm-none-eabi/lib/armv7-m/libm.a(lib_a-wf_sqrt.o) (__aeabi_ddiv)
/usr/bin/../lib/gcc/arm-none-eabi/4.9.3/armv7-m/libgcc.a(_arm_truncdfsf2.o)
                              /usr/bin/../lib/gcc/arm-none-eabi/4.9.3/../../../../arm-none-eabi/lib/armv7-m/libm.a(lib_a-wf_acos.o) (__aeabi_d2f)

Allocating common symbols
Common symbol       size              file

mpuDetectionResult  0x2               obj/main/CC3D/drivers/accgyro_mpu.o (symbol from plugin)
sendLength          0x4               obj/main/CC3D/vcp/hw_config.o (symbol from plugin)
timerChannelInfo    0xc               obj/main/CC3D/drivers/timer.o (symbol from plugin)
HSEStartUpStatus    0x1               obj/main/CC3D/vcp/hw_config.o (symbol from plugin)
ledGridWidth        0x1               obj/main/CC3D/io/ledstrip.o (symbol from plugin)
baro_cf_alt         0x4               obj/main/CC3D/sensors/sonar.o (symbol from plugin)
softSerialPorts     0x250             obj/main/CC3D/drivers/serial_softserial.o (symbol from plugin)
filteredCycleTime   0x2               obj/main/CC3D/mw.o (symbol from plugin)
SaveState           0x2               obj/main/CC3D/usb_init.o (symbol from plugin)
errno               0x4               /usr/bin/../lib/gcc/arm-none-eabi/4.9.3/../../../../arm-none-eabi/lib/armv7-m/libc_nano.a(lib_a-reent.o)
rcRaw               0x24              obj/main/CC3D/rx/rx.o (symbol from plugin)
wIstr               0x2               obj/main/CC3D/vcp/usb_istr.o (symbol from plugin)
inputSource_e       0x1               obj/main/CC3D/telemetry/frsky.o (symbol from plugin)
EPindex             0x1               obj/main/CC3D/usb_init.o (symbol from plugin)
accSum              0xc               obj/main/CC3D/flight/imu.o (symbol from plugin)
accVelScale         0x4               obj/main/CC3D/flight/imu.o (symbol from plugin)
timerInfo           0x4               obj/main/CC3D/drivers/timer.o (symbol from plugin)
ledsInRingCount     0x1               obj/main/CC3D/io/ledstrip.o (symbol from plugin)
baro                0x18              obj/main/CC3D/sensors/barometer.o (symbol from plugin)
StatusInfo          0x2               obj/main/CC3D/usb_core.o (symbol from plugin)
ResumeS             0x2               obj/main/CC3D/vcp/usb_pwr.o (symbol from plugin)
AltHold             0x4               obj/main/CC3D/flight/altitudehold.o (symbol from plugin)
sectionTimes        0x20              obj/main/CC3D/debug.o (symbol from plugin)
EP                  0x20              obj/main/CC3D/vcp/usb_pwr.o (symbol from plugin)
EXTI_InitStructure  0x8               obj/main/CC3D/vcp/hw_config.o (symbol from plugin)
cachedRccCsrValue   0x4               obj/main/CC3D/drivers/system.o (symbol from plugin)
baro_cf_vel         0x4               obj/main/CC3D/sensors/sonar.o (symbol from plugin)
ledGridHeight       0x1               obj/main/CC3D/io/ledstrip.o (symbol from plugin)

Discarded input sections

 .text          0x0000000000000000       0x14 obj/main/CC3D/startup_stm32f10x_md_gcc.o
 .data          0x0000000000000000        0x0 obj/main/CC3D/startup_stm32f10x_md_gcc.o
 .bss           0x0000000000000000        0x0 obj/main/CC3D/startup_stm32f10x_md_gcc.o
 .text          0x0000000000000000        0x0 obj/main/CC3D/drivers/accgyro_mpu.o (symbol from plugin)
 .text          0x0000000000000000        0x0 /tmp/ccZkfwo0.ltrans0.ltrans.o
 .data          0x0000000000000000        0x0 /tmp/ccZkfwo0.ltrans0.ltrans.o
 .data          0x0000000000000000        0x0 /tmp/ccZkfwo0.ltrans1.ltrans.o
 .data          0x0000000000000000        0x0 /tmp/ccZkfwo0.ltrans2.ltrans.o
 .rodata        0x0000000000000000        0x4 /tmp/ccZkfwo0.ltrans4.ltrans.o
 .data          0x0000000000000000        0x0 /tmp/ccZkfwo0.ltrans5.ltrans.o
 .data          0x0000000000000000        0x0 /tmp/ccZkfwo0.ltrans6.ltrans.o
 .data          0x0000000000000000        0x0 /tmp/ccZkfwo0.ltrans10.ltrans.o
 .data          0x0000000000000000        0x0 /tmp/ccZkfwo0.ltrans12.ltrans.o
 .data          0x0000000000000000        0x0 /tmp/ccZkfwo0.ltrans13.ltrans.o
 .data          0x0000000000000000        0x0 /tmp/ccZkfwo0.ltrans14.ltrans.o
 .data          0x0000000000000000        0x0 /tmp/ccZkfwo0.ltrans16.ltrans.o
 .data          0x0000000000000000        0x0 /tmp/ccZkfwo0.ltrans17.ltrans.o
 .data          0x0000000000000000        0x0 /tmp/ccZkfwo0.ltrans18.ltrans.o
 .bss           0x0000000000000000        0x0 /tmp/ccZkfwo0.ltrans18.ltrans.o
 .data          0x0000000000000000        0x1 /tmp/ccZkfwo0.ltrans20.ltrans.o
 .data          0x0000000000000000        0x0 /tmp/ccZkfwo0.ltrans21.ltrans.o
 .data          0x0000000000000000        0x0 /tmp/ccZkfwo0.ltrans22.ltrans.o
 .data          0x0000000000000000        0x0 /tmp/ccZkfwo0.ltrans23.ltrans.o
 .data          0x0000000000000000        0x0 /tmp/ccZkfwo0.ltrans27.ltrans.o
 .data          0x0000000000000000        0x0 /tmp/ccZkfwo0.ltrans28.ltrans.o
 .data          0x0000000000000000        0x0 /usr/bin/../lib/gcc/arm-none-eabi/4.9.3/armv7-m/libgcc.a(_arm_addsubsf3.o)
 .bss           0x0000000000000000        0x0 /usr/bin/../lib/gcc/arm-none-eabi/4.9.3/armv7-m/libgcc.a(_arm_addsubsf3.o)
 .data          0x0000000000000000        0x0 /usr/bin/../lib/gcc/arm-none-eabi/4.9.3/armv7-m/libgcc.a(_arm_muldivsf3.o)
 .bss           0x0000000000000000        0x0 /usr/bin/../lib/gcc/arm-none-eabi/4.9.3/armv7-m/libgcc.a(_arm_muldivsf3.o)
 .data          0x0000000000000000        0x0 /usr/bin/../lib/gcc/arm-none-eabi/4.9.3/armv7-m/libgcc.a(_arm_cmpsf2.o)
 .bss           0x0000000000000000        0x0 /usr/bin/../lib/gcc/arm-none-eabi/4.9.3/armv7-m/libgcc.a(_arm_cmpsf2.o)
 .data          0x0000000000000000        0x0 /usr/bin/../lib/gcc/arm-none-eabi/4.9.3/armv7-m/libgcc.a(_arm_fixsfsi.o)
 .bss           0x0000000000000000        0x0 /usr/bin/../lib/gcc/arm-none-eabi/4.9.3/armv7-m/libgcc.a(_arm_fixsfsi.o)
 .data          0x0000000000000000        0x0 /usr/bin/../lib/gcc/arm-none-eabi/4.9.3/armv7-m/libgcc.a(_arm_fixunssfsi.o)
 .bss           0x0000000000000000        0x0 /usr/bin/../lib/gcc/arm-none-eabi/4.9.3/armv7-m/libgcc.a(_arm_fixunssfsi.o)
 .data          0x0000000000000000        0x0 /usr/bin/../lib/gcc/arm-none-eabi/4.9.3/armv7-m/libgcc.a(_aeabi_ldivmod.o)
 .bss           0x0000000000000000        0x0 /usr/bin/../lib/gcc/arm-none-eabi/4.9.3/armv7-m/libgcc.a(_aeabi_ldivmod.o)
 .data          0x0000000000000000        0x0 /usr/bin/../lib/gcc/arm-none-eabi/4.9.3/armv7-m/libgcc.a(bpabi.o)
 .bss           0x0000000000000000        0x0 /usr/bin/../lib/gcc/arm-none-eabi/4.9.3/armv7-m/libgcc.a(bpabi.o)
 .data          0x0000000000000000        0x0 /usr/bin/../lib/gcc/arm-none-eabi/4.9.3/armv7-m/libgcc.a(_dvmd_tls.o)
 .bss           0x0000000000000000        0x0 /usr/bin/../lib/gcc/arm-none-eabi/4.9.3/armv7-m/libgcc.a(_dvmd_tls.o)
 .data          0x0000000000000000        0x0 /usr/bin/../lib/gcc/arm-none-eabi/4.9.3/armv7-m/libgcc.a(_divdi3.o)
 .bss           0x0000000000000000        0x0 /usr/bin/../lib/gcc/arm-none-eabi/4.9.3/armv7-m/libgcc.a(_divdi3.o)
 .ARM.extab     0x0000000000000000        0x0 /usr/bin/../lib/gcc/arm-none-eabi/4.9.3/armv7-m/libgcc.a(_divdi3.o)
 .data          0x0000000000000000        0x0 /usr/bin/../lib/gcc/arm-none-eabi/4.9.3/armv7-m/libgcc.a(_udivdi3.o)
 .bss           0x0000000000000000        0x0 /usr/bin/../lib/gcc/arm-none-eabi/4.9.3/armv7-m/libgcc.a(_udivdi3.o)
 .ARM.extab     0x0000000000000000        0x0 /usr/bin/../lib/gcc/arm-none-eabi/4.9.3/armv7-m/libgcc.a(_udivdi3.o)
 .text          0x0000000000000000        0x0 /usr/bin/../lib/gcc/arm-none-eabi/4.9.3/../../../../arm-none-eabi/lib/armv7-m/libg_nano.a(lib_a-memcmp.o)
 .data          0x0000000000000000        0x0 /usr/bin/../lib/gcc/arm-none-eabi/4.9.3/../../../../arm-none-eabi/lib/armv7-m/libg_nano.a(lib_a-memcmp.o)
 .bss           0x0000000000000000        0x0 /usr/bin/../lib/gcc/arm-none-eabi/4.9.3/../../../../arm-none-eabi/lib/armv7-m/libg_nano.a(lib_a-memcmp.o)
 .text          0x0000000000000000        0x0 /usr/bin/../lib/gcc/arm-none-eabi/4.9.3/../../../../arm-none-eabi/lib/armv7-m/libg_nano.a(lib_a-memcpy.o)
 .data          0x0000000000000000        0x0 /usr/bin/../lib/gcc/arm-none-eabi/4.9.3/../../../../arm-none-eabi/lib/armv7-m/libg_nano.a(lib_a-memcpy.o)
 .bss           0x0000000000000000        0x0 /usr/bin/../lib/gcc/arm-none-eabi/4.9.3/../../../../arm-none-eabi/lib/armv7-m/libg_nano.a(lib_a-memcpy.o)
 .text          0x0000000000000000        0x0 /usr/bin/../lib/gcc/arm-none-eabi/4.9.3/../../../../arm-none-eabi/lib/armv7-m/libg_nano.a(lib_a-memmove.o)
 .data          0x0000000000000000        0x0 /usr/bin/../lib/gcc/arm-none-eabi/4.9.3/../../../../arm-none-eabi/lib/armv7-m/libg_nano.a(lib_a-memmove.o)
 .bss           0x0000000000000000        0x0 /usr/bin/../lib/gcc/arm-none-eabi/4.9.3/../../../../arm-none-eabi/lib/armv7-m/libg_nano.a(lib_a-memmove.o)
 .text          0x0000000000000000        0x0 /usr/bin/../lib/gcc/arm-none-eabi/4.9.3/../../../../arm-none-eabi/lib/armv7-m/libg_nano.a(lib_a-memset.o)
 .data          0x0000000000000000        0x0 /usr/bin/../lib/gcc/arm-none-eabi/4.9.3/../../../../arm-none-eabi/lib/armv7-m/libg_nano.a(lib_a-memset.o)
 .bss           0x0000000000000000        0x0 /usr/bin/../lib/gcc/arm-none-eabi/4.9.3/../../../../arm-none-eabi/lib/armv7-m/libg_nano.a(lib_a-memset.o)
 .text          0x0000000000000000        0x0 /usr/bin/../lib/gcc/arm-none-eabi/4.9.3/../../../../arm-none-eabi/lib/armv7-m/libg_nano.a(lib_a-strcasecmp.o)
 .data          0x0000000000000000        0x0 /usr/bin/../lib/gcc/arm-none-eabi/4.9.3/../../../../arm-none-eabi/lib/armv7-m/libg_nano.a(lib_a-strcasecmp.o)
 .bss           0x0000000000000000        0x0 /usr/bin/../lib/gcc/arm-none-eabi/4.9.3/../../../../arm-none-eabi/lib/armv7-m/libg_nano.a(lib_a-strcasecmp.o)
 .text          0x0000000000000000        0x0 /usr/bin/../lib/gcc/arm-none-eabi/4.9.3/../../../../arm-none-eabi/lib/armv7-m/libg_nano.a(lib_a-strcat.o)
 .data          0x0000000000000000        0x0 /usr/bin/../lib/gcc/arm-none-eabi/4.9.3/../../../../arm-none-eabi/lib/armv7-m/libg_nano.a(lib_a-strcat.o)
 .bss           0x0000000000000000        0x0 /usr/bin/../lib/gcc/arm-none-eabi/4.9.3/../../../../arm-none-eabi/lib/armv7-m/libg_nano.a(lib_a-strcat.o)
 .text          0x0000000000000000        0x0 /usr/bin/../lib/gcc/arm-none-eabi/4.9.3/../../../../arm-none-eabi/lib/armv7-m/libg_nano.a(lib_a-strchr.o)
 .data          0x0000000000000000        0x0 /usr/bin/../lib/gcc/arm-none-eabi/4.9.3/../../../../arm-none-eabi/lib/armv7-m/libg_nano.a(lib_a-strchr.o)
 .bss           0x0000000000000000        0x0 /usr/bin/../lib/gcc/arm-none-eabi/4.9.3/../../../../arm-none-eabi/lib/armv7-m/libg_nano.a(lib_a-strchr.o)
 .text          0x0000000000000000        0x0 /usr/bin/../lib/gcc/arm-none-eabi/4.9.3/../../../../arm-none-eabi/lib/armv7-m/libg_nano.a(lib_a-strlen.o)
 .data          0x0000000000000000        0x0 /usr/bin/../lib/gcc/arm-none-eabi/4.9.3/../../../../arm-none-eabi/lib/armv7-m/libg_nano.a(lib_a-strlen.o)
 .bss           0x0000000000000000        0x0 /usr/bin/../lib/gcc/arm-none-eabi/4.9.3/../../../../arm-none-eabi/lib/armv7-m/libg_nano.a(lib_a-strlen.o)
 .text          0x0000000000000000        0x0 /usr/bin/../lib/gcc/arm-none-eabi/4.9.3/../../../../arm-none-eabi/lib/armv7-m/libg_nano.a(lib_a-strncasecmp.o)
 .data          0x0000000000000000        0x0 /usr/bin/../lib/gcc/arm-none-eabi/4.9.3/../../../../arm-none-eabi/lib/armv7-m/libg_nano.a(lib_a-strncasecmp.o)
 .bss           0x0000000000000000        0x0 /usr/bin/../lib/gcc/arm-none-eabi/4.9.3/../../../../arm-none-eabi/lib/armv7-m/libg_nano.a(lib_a-strncasecmp.o)
 .text          0x0000000000000000        0x0 /usr/bin/../lib/gcc/arm-none-eabi/4.9.3/../../../../arm-none-eabi/lib/armv7-m/libg_nano.a(lib_a-strncpy.o)
 .data          0x0000000000000000        0x0 /usr/bin/../lib/gcc/arm-none-eabi/4.9.3/../../../../arm-none-eabi/lib/armv7-m/libg_nano.a(lib_a-strncpy.o)
 .bss           0x0000000000000000        0x0 /usr/bin/../lib/gcc/arm-none-eabi/4.9.3/../../../../arm-none-eabi/lib/armv7-m/libg_nano.a(lib_a-strncpy.o)
 .text          0x0000000000000000        0x0 /usr/bin/../lib/gcc/arm-none-eabi/4.9.3/../../../../arm-none-eabi/lib/armv7-m/libg_nano.a(lib_a-strstr.o)
 .data          0x0000000000000000        0x0 /usr/bin/../lib/gcc/arm-none-eabi/4.9.3/../../../../arm-none-eabi/lib/armv7-m/libg_nano.a(lib_a-strstr.o)
 .bss           0x0000000000000000        0x0 /usr/bin/../lib/gcc/arm-none-eabi/4.9.3/../../../../arm-none-eabi/lib/armv7-m/libg_nano.a(lib_a-strstr.o)
 .text          0x0000000000000000        0x0 obj/main/CC3D/drivers/accgyro_spi_mpu6000.o (symbol from plugin)
 .text          0x0000000000000000        0x0 obj/main/CC3D/drivers/adc.o (symbol from plugin)
 .text          0x0000000000000000        0x0 obj/main/CC3D/drivers/adc_stm32f10x.o (symbol from plugin)
 .text          0x0000000000000000        0x0 obj/main/CC3D/drivers/barometer_bmp085.o (symbol from plugin)
 .text          0x0000000000000000        0x0 obj/main/CC3D/drivers/barometer_bmp280.o (symbol from plugin)
 .text          0x0000000000000000        0x0 obj/main/CC3D/drivers/barometer_ms5611.o (symbol from plugin)
 .text          0x0000000000000000        0x0 obj/main/CC3D/drivers/bus_spi.o (symbol from plugin)
 .text          0x0000000000000000        0x0 obj/main/CC3D/drivers/bus_i2c_stm32f10x.o (symbol from plugin)
 .text          0x0000000000000000        0x0 obj/main/CC3D/drivers/compass_hmc5883l.o (symbol from plugin)
 .text          0x0000000000000000        0x0 obj/main/CC3D/drivers/display_ug2864hsweg01.o (symbol from plugin)
 .text          0x0000000000000000        0x0 obj/main/CC3D/drivers/flash_m25p16.o (symbol from plugin)
 .text          0x0000000000000000        0x0 obj/main/CC3D/drivers/gpio_stm32f10x.o (symbol from plugin)
 .text          0x0000000000000000        0x0 obj/main/CC3D/drivers/inverter.o (symbol from plugin)
 .text          0x0000000000000000        0x0 obj/main/CC3D/drivers/light_led_stm32f10x.o (symbol from plugin)
 .text          0x0000000000000000        0x0 obj/main/CC3D/drivers/light_ws2811strip.o (symbol from plugin)
 .text          0x0000000000000000        0x0 obj/main/CC3D/drivers/light_ws2811strip_stm32f10x.o (symbol from plugin)
 .text          0x0000000000000000        0x0 obj/main/CC3D/drivers/pwm_mapping.o (symbol from plugin)
 .text          0x0000000000000000        0x0 obj/main/CC3D/drivers/pwm_output.o (symbol from plugin)
 .text          0x0000000000000000        0x0 obj/main/CC3D/drivers/pwm_rx.o (symbol from plugin)
 .text          0x0000000000000000        0x0 obj/main/CC3D/drivers/serial_softserial.o (symbol from plugin)
 .text          0x0000000000000000        0x0 obj/main/CC3D/drivers/serial_uart.o (symbol from plugin)
 .text          0x0000000000000000        0x0 obj/main/CC3D/drivers/serial_uart_stm32f10x.o (symbol from plugin)
 .text          0x0000000000000000        0x0 obj/main/CC3D/drivers/sonar_hcsr04.o (symbol from plugin)
 .text          0x0000000000000000        0x0 obj/main/CC3D/drivers/sound_beeper_stm32f10x.o (symbol from plugin)
 .text          0x0000000000000000        0x0 obj/main/CC3D/drivers/system_stm32f10x.o (symbol from plugin)
 .text          0x0000000000000000        0x0 obj/main/CC3D/drivers/timer.o (symbol from plugin)
 .text          0x0000000000000000        0x0 obj/main/CC3D/drivers/timer_stm32f10x.o (symbol from plugin)
 .text          0x0000000000000000        0x0 obj/main/CC3D/io/flashfs.o (symbol from plugin)
 .text          0x0000000000000000        0x0 obj/main/CC3D/flight/gtune.o (symbol from plugin)
 .text          0x0000000000000000        0x0 obj/main/CC3D/flight/navigation.o (symbol from plugin)
 .text          0x0000000000000000        0x0 obj/main/CC3D/flight/gps_conversion.o (symbol from plugin)
 .text          0x0000000000000000        0x0 obj/main/CC3D/common/colorconversion.o (symbol from plugin)
 .text          0x0000000000000000        0x0 obj/main/CC3D/io/gps.o (symbol from plugin)
 .text          0x0000000000000000        0x0 obj/main/CC3D/io/ledstrip.o (symbol from plugin)
 .text          0x0000000000000000        0x0 obj/main/CC3D/io/display.o (symbol from plugin)
 .text          0x0000000000000000        0x0 obj/main/CC3D/telemetry/telemetry.o (symbol from plugin)
 .text          0x0000000000000000        0x0 obj/main/CC3D/telemetry/frsky.o (symbol from plugin)
 .text          0x0000000000000000        0x0 obj/main/CC3D/telemetry/hott.o (symbol from plugin)
 .text          0x0000000000000000        0x0 obj/main/CC3D/telemetry/smartport.o (symbol from plugin)
 .text          0x0000000000000000        0x0 obj/main/CC3D/telemetry/ltm.o (symbol from plugin)
 .text          0x0000000000000000        0x0 obj/main/CC3D/sensors/sonar.o (symbol from plugin)
 .text          0x0000000000000000        0x0 obj/main/CC3D/sensors/barometer.o (symbol from plugin)
 .text          0x0000000000000000        0x0 obj/main/CC3D/blackbox/blackbox.o (symbol from plugin)
 .text          0x0000000000000000        0x0 obj/main/CC3D/blackbox/blackbox_io.o (symbol from plugin)
 .text          0x0000000000000000        0x0 obj/main/CC3D/build_config.o (symbol from plugin)
 .text          0x0000000000000000        0x0 obj/main/CC3D/debug.o (symbol from plugin)
 .text          0x0000000000000000        0x0 obj/main/CC3D/version.o (symbol from plugin)
 .text          0x0000000000000000        0x0 obj/main/CC3D/config/config.o (symbol from plugin)
 .text          0x0000000000000000        0x0 obj/main/CC3D/config/runtime_config.o (symbol from plugin)
 .text          0x0000000000000000        0x0 obj/main/CC3D/common/maths.o (symbol from plugin)
 .text          0x0000000000000000        0x0 obj/main/CC3D/common/printf.o (symbol from plugin)
 .text          0x0000000000000000        0x0 obj/main/CC3D/common/typeconversion.o (symbol from plugin)
 .text          0x0000000000000000        0x0 obj/main/CC3D/common/encoding.o (symbol from plugin)
 .text          0x0000000000000000        0x0 obj/main/CC3D/common/filter.o (symbol from plugin)
 .text          0x0000000000000000        0x0 obj/main/CC3D/scheduler.o (symbol from plugin)
 .text          0x0000000000000000        0x0 obj/main/CC3D/scheduler_tasks.o (symbol from plugin)
 .text          0x0000000000000000        0x0 obj/main/CC3D/main.o (symbol from plugin)
 .text          0x0000000000000000        0x0 obj/main/CC3D/mw.o (symbol from plugin)
 .text          0x0000000000000000        0x0 obj/main/CC3D/flight/altitudehold.o (symbol from plugin)
 .text          0x0000000000000000        0x0 obj/main/CC3D/flight/failsafe.o (symbol from plugin)
 .text          0x0000000000000000        0x0 obj/main/CC3D/flight/pid.o (symbol from plugin)
 .text          0x0000000000000000        0x0 obj/main/CC3D/flight/imu.o (symbol from plugin)
 .text          0x0000000000000000        0x0 obj/main/CC3D/flight/mixer.o (symbol from plugin)
 .text          0x0000000000000000        0x0 obj/main/CC3D/drivers/bus_i2c_soft.o (symbol from plugin)
 .text          0x0000000000000000        0x0 obj/main/CC3D/drivers/serial.o (symbol from plugin)
 .text          0x0000000000000000        0x0 obj/main/CC3D/drivers/sound_beeper.o (symbol from plugin)
 .text          0x0000000000000000        0x0 obj/main/CC3D/drivers/system.o (symbol from plugin)
 .text          0x0000000000000000        0x0 obj/main/CC3D/drivers/gyro_sync.o (symbol from plugin)
 .text          0x0000000000000000        0x0 obj/main/CC3D/drivers/dma.o (symbol from plugin)
 .text          0x0000000000000000        0x0 obj/main/CC3D/drivers/buf_writer.o (symbol from plugin)
 .text          0x0000000000000000        0x0 obj/main/CC3D/io/beeper.o (symbol from plugin)
 .text          0x0000000000000000        0x0 obj/main/CC3D/io/rc_controls.o (symbol from plugin)
 .text          0x0000000000000000        0x0 obj/main/CC3D/io/rc_curves.o (symbol from plugin)
 .text          0x0000000000000000        0x0 obj/main/CC3D/io/serial.o (symbol from plugin)
 .text          0x0000000000000000        0x0 obj/main/CC3D/io/serial_4way.o (symbol from plugin)
 .text          0x0000000000000000        0x0 obj/main/CC3D/io/serial_4way_avrootloader.o (symbol from plugin)
 .text          0x0000000000000000        0x0 obj/main/CC3D/io/serial_4way_stk500v2.o (symbol from plugin)
 .text          0x0000000000000000        0x0 obj/main/CC3D/io/serial_cli.o (symbol from plugin)
 .text          0x0000000000000000        0x0 obj/main/CC3D/io/serial_msp.o (symbol from plugin)
 .text          0x0000000000000000        0x0 obj/main/CC3D/io/statusindicator.o (symbol from plugin)
 .text          0x0000000000000000        0x0 obj/main/CC3D/rx/rx.o (symbol from plugin)
 .text          0x0000000000000000        0x0 obj/main/CC3D/rx/pwm.o (symbol from plugin)
 .text          0x0000000000000000        0x0 obj/main/CC3D/rx/msp.o (symbol from plugin)
 .text          0x0000000000000000        0x0 obj/main/CC3D/rx/sbus.o (symbol from plugin)
 .text          0x0000000000000000        0x0 obj/main/CC3D/rx/sumd.o (symbol from plugin)
 .text          0x0000000000000000        0x0 obj/main/CC3D/rx/sumh.o (symbol from plugin)
 .text          0x0000000000000000        0x0 obj/main/CC3D/rx/spektrum.o (symbol from plugin)
 .text          0x0000000000000000        0x0 obj/main/CC3D/rx/xbus.o (symbol from plugin)
 .text          0x0000000000000000        0x0 obj/main/CC3D/rx/ibus.o (symbol from plugin)
 .text          0x0000000000000000        0x0 obj/main/CC3D/rx/jetiexbus.o (symbol from plugin)
 .text          0x0000000000000000        0x0 obj/main/CC3D/sensors/acceleration.o (symbol from plugin)
 .text          0x0000000000000000        0x0 obj/main/CC3D/sensors/battery.o (symbol from plugin)
 .text          0x0000000000000000        0x0 obj/main/CC3D/sensors/boardalignment.o (symbol from plugin)
 .text          0x0000000000000000        0x0 obj/main/CC3D/sensors/compass.o (symbol from plugin)
 .text          0x0000000000000000        0x0 obj/main/CC3D/sensors/gyro.o (symbol from plugin)
 .text          0x0000000000000000        0x0 obj/main/CC3D/sensors/initialisation.o (symbol from plugin)
 .text          0x0000000000000000        0x0 obj/main/CC3D/core_cm3.o (symbol from plugin)
 .text          0x0000000000000000        0x0 obj/main/CC3D/system_stm32f10x.o (symbol from plugin)
 .text          0x0000000000000000        0x0 obj/main/CC3D/misc.o (symbol from plugin)
 .text          0x0000000000000000        0x0 obj/main/CC3D/stm32f10x_adc.o (symbol from plugin)
 .text          0x0000000000000000        0x0 obj/main/CC3D/stm32f10x_bkp.o (symbol from plugin)
 .text          0x0000000000000000        0x0 obj/main/CC3D/stm32f10x_dac.o (symbol from plugin)
 .text          0x0000000000000000        0x0 obj/main/CC3D/stm32f10x_dbgmcu.o (symbol from plugin)
 .text          0x0000000000000000        0x0 obj/main/CC3D/stm32f10x_dma.o (symbol from plugin)
 .text          0x0000000000000000        0x0 obj/main/CC3D/stm32f10x_exti.o (symbol from plugin)
 .text          0x0000000000000000        0x0 obj/main/CC3D/stm32f10x_flash.o (symbol from plugin)
 .text          0x0000000000000000        0x0 obj/main/CC3D/stm32f10x_fsmc.o (symbol from plugin)
 .text          0x0000000000000000        0x0 obj/main/CC3D/stm32f10x_gpio.o (symbol from plugin)
 .text          0x0000000000000000        0x0 obj/main/CC3D/stm32f10x_i2c.o (symbol from plugin)
 .text          0x0000000000000000        0x0 obj/main/CC3D/stm32f10x_iwdg.o (symbol from plugin)
 .text          0x0000000000000000        0x0 obj/main/CC3D/stm32f10x_pwr.o (symbol from plugin)
 .text          0x0000000000000000        0x0 obj/main/CC3D/stm32f10x_rcc.o (symbol from plugin)
 .text          0x0000000000000000        0x0 obj/main/CC3D/stm32f10x_rtc.o (symbol from plugin)
 .text          0x0000000000000000        0x0 obj/main/CC3D/stm32f10x_sdio.o (symbol from plugin)
 .text          0x0000000000000000        0x0 obj/main/CC3D/stm32f10x_spi.o (symbol from plugin)
 .text          0x0000000000000000        0x0 obj/main/CC3D/stm32f10x_tim.o (symbol from plugin)
 .text          0x0000000000000000        0x0 obj/main/CC3D/stm32f10x_usart.o (symbol from plugin)
 .text          0x0000000000000000        0x0 obj/main/CC3D/stm32f10x_wwdg.o (symbol from plugin)
 .text          0x0000000000000000        0x0 obj/main/CC3D/usb_core.o (symbol from plugin)
 .text          0x0000000000000000        0x0 obj/main/CC3D/usb_init.o (symbol from plugin)
 .text          0x0000000000000000        0x0 obj/main/CC3D/usb_int.o (symbol from plugin)
 .text          0x0000000000000000        0x0 obj/main/CC3D/usb_mem.o (symbol from plugin)
 .text          0x0000000000000000        0x0 obj/main/CC3D/usb_regs.o (symbol from plugin)
 .text          0x0000000000000000        0x0 obj/main/CC3D/usb_sil.o (symbol from plugin)
 .text          0x0000000000000000        0x0 obj/main/CC3D/vcp/hw_config.o (symbol from plugin)
 .text          0x0000000000000000        0x0 obj/main/CC3D/vcp/stm32_it.o (symbol from plugin)
 .text          0x0000000000000000        0x0 obj/main/CC3D/vcp/usb_desc.o (symbol from plugin)
 .text          0x0000000000000000        0x0 obj/main/CC3D/vcp/usb_endp.o (symbol from plugin)
 .text          0x0000000000000000        0x0 obj/main/CC3D/vcp/usb_istr.o (symbol from plugin)
 .text          0x0000000000000000        0x0 obj/main/CC3D/vcp/usb_prop.o (symbol from plugin)
 .text          0x0000000000000000        0x0 obj/main/CC3D/vcp/usb_pwr.o (symbol from plugin)
 .text          0x0000000000000000        0x0 obj/main/CC3D/drivers/serial_usb_vcp.o (symbol from plugin)
 .text          0x0000000000000000        0x0 obj/main/CC3D/drivers/usb_io.o (symbol from plugin)
 .text          0x0000000000000000        0x0 /usr/bin/../lib/gcc/arm-none-eabi/4.9.3/../../../../arm-none-eabi/lib/armv7-m/libc_nano.a(lib_a-atoi.o)
 .data          0x0000000000000000        0x0 /usr/bin/../lib/gcc/arm-none-eabi/4.9.3/../../../../arm-none-eabi/lib/armv7-m/libc_nano.a(lib_a-atoi.o)
 .bss           0x0000000000000000        0x0 /usr/bin/../lib/gcc/arm-none-eabi/4.9.3/../../../../arm-none-eabi/lib/armv7-m/libc_nano.a(lib_a-atoi.o)
 .text._atoi_r  0x0000000000000000        0x8 /usr/bin/../lib/gcc/arm-none-eabi/4.9.3/../../../../arm-none-eabi/lib/armv7-m/libc_nano.a(lib_a-atoi.o)
 .text          0x0000000000000000        0x0 /usr/bin/../lib/gcc/arm-none-eabi/4.9.3/../../../../arm-none-eabi/lib/armv7-m/libc_nano.a(lib_a-ctype_.o)
 .data          0x0000000000000000        0x0 /usr/bin/../lib/gcc/arm-none-eabi/4.9.3/../../../../arm-none-eabi/lib/armv7-m/libc_nano.a(lib_a-ctype_.o)
 .bss           0x0000000000000000        0x0 /usr/bin/../lib/gcc/arm-none-eabi/4.9.3/../../../../arm-none-eabi/lib/armv7-m/libc_nano.a(lib_a-ctype_.o)
 .text          0x0000000000000000        0x0 /usr/bin/../lib/gcc/arm-none-eabi/4.9.3/../../../../arm-none-eabi/lib/armv7-m/libc_nano.a(lib_a-strtok.o)
 .data          0x0000000000000000        0x0 /usr/bin/../lib/gcc/arm-none-eabi/4.9.3/../../../../arm-none-eabi/lib/armv7-m/libc_nano.a(lib_a-strtok.o)
 .bss           0x0000000000000000        0x0 /usr/bin/../lib/gcc/arm-none-eabi/4.9.3/../../../../arm-none-eabi/lib/armv7-m/libc_nano.a(lib_a-strtok.o)
 .text          0x0000000000000000        0x0 /usr/bin/../lib/gcc/arm-none-eabi/4.9.3/../../../../arm-none-eabi/lib/armv7-m/libc_nano.a(lib_a-strtok_r.o)
 .data          0x0000000000000000        0x0 /usr/bin/../lib/gcc/arm-none-eabi/4.9.3/../../../../arm-none-eabi/lib/armv7-m/libc_nano.a(lib_a-strtok_r.o)
 .bss           0x0000000000000000        0x0 /usr/bin/../lib/gcc/arm-none-eabi/4.9.3/../../../../arm-none-eabi/lib/armv7-m/libc_nano.a(lib_a-strtok_r.o)
 .text          0x0000000000000000        0x0 /usr/bin/../lib/gcc/arm-none-eabi/4.9.3/../../../../arm-none-eabi/lib/armv7-m/libc_nano.a(lib_a-strtol.o)
 .data          0x0000000000000000        0x0 /usr/bin/../lib/gcc/arm-none-eabi/4.9.3/../../../../arm-none-eabi/lib/armv7-m/libc_nano.a(lib_a-strtol.o)
 .bss           0x0000000000000000        0x0 /usr/bin/../lib/gcc/arm-none-eabi/4.9.3/../../../../arm-none-eabi/lib/armv7-m/libc_nano.a(lib_a-strtol.o)
 .text          0x0000000000000000        0x0 /usr/bin/../lib/gcc/arm-none-eabi/4.9.3/../../../../arm-none-eabi/lib/armv7-m/libc_nano.a(lib_a-impure.o)
 .data          0x0000000000000000        0x0 /usr/bin/../lib/gcc/arm-none-eabi/4.9.3/../../../../arm-none-eabi/lib/armv7-m/libc_nano.a(lib_a-impure.o)
 .bss           0x0000000000000000        0x0 /usr/bin/../lib/gcc/arm-none-eabi/4.9.3/../../../../arm-none-eabi/lib/armv7-m/libc_nano.a(lib_a-impure.o)
 .rodata._global_impure_ptr
                0x0000000000000000        0x4 /usr/bin/../lib/gcc/arm-none-eabi/4.9.3/../../../../arm-none-eabi/lib/armv7-m/libc_nano.a(lib_a-impure.o)
 .text          0x0000000000000000        0x0 /usr/bin/../lib/gcc/arm-none-eabi/4.9.3/../../../../arm-none-eabi/lib/armv7-m/libc_nano.a(lib_a-malloc.o)
 .data          0x0000000000000000        0x0 /usr/bin/../lib/gcc/arm-none-eabi/4.9.3/../../../../arm-none-eabi/lib/armv7-m/libc_nano.a(lib_a-malloc.o)
 .bss           0x0000000000000000        0x0 /usr/bin/../lib/gcc/arm-none-eabi/4.9.3/../../../../arm-none-eabi/lib/armv7-m/libc_nano.a(lib_a-malloc.o)
 .text.free     0x0000000000000000       0x10 /usr/bin/../lib/gcc/arm-none-eabi/4.9.3/../../../../arm-none-eabi/lib/armv7-m/libc_nano.a(lib_a-malloc.o)
 .text          0x0000000000000000        0x0 /usr/bin/../lib/gcc/arm-none-eabi/4.9.3/../../../../arm-none-eabi/lib/armv7-m/libc_nano.a(lib_a-nano-freer.o)
 .data          0x0000000000000000        0x0 /usr/bin/../lib/gcc/arm-none-eabi/4.9.3/../../../../arm-none-eabi/lib/armv7-m/libc_nano.a(lib_a-nano-freer.o)
 .bss           0x0000000000000000        0x0 /usr/bin/../lib/gcc/arm-none-eabi/4.9.3/../../../../arm-none-eabi/lib/armv7-m/libc_nano.a(lib_a-nano-freer.o)
 .text._free_r  0x0000000000000000       0x88 /usr/bin/../lib/gcc/arm-none-eabi/4.9.3/../../../../arm-none-eabi/lib/armv7-m/libc_nano.a(lib_a-nano-freer.o)
 .debug_frame   0x0000000000000000       0x2c /usr/bin/../lib/gcc/arm-none-eabi/4.9.3/../../../../arm-none-eabi/lib/armv7-m/libc_nano.a(lib_a-nano-freer.o)
 .ARM.attributes
                0x0000000000000000       0x2d /usr/bin/../lib/gcc/arm-none-eabi/4.9.3/../../../../arm-none-eabi/lib/armv7-m/libc_nano.a(lib_a-nano-freer.o)
 .text          0x0000000000000000        0x0 /usr/bin/../lib/gcc/arm-none-eabi/4.9.3/../../../../arm-none-eabi/lib/armv7-m/libc_nano.a(lib_a-nano-mallocr.o)
 .data          0x0000000000000000        0x0 /usr/bin/../lib/gcc/arm-none-eabi/4.9.3/../../../../arm-none-eabi/lib/armv7-m/libc_nano.a(lib_a-nano-mallocr.o)
 .bss           0x0000000000000000        0x0 /usr/bin/../lib/gcc/arm-none-eabi/4.9.3/../../../../arm-none-eabi/lib/armv7-m/libc_nano.a(lib_a-nano-mallocr.o)
 .text          0x0000000000000000        0x0 /usr/bin/../lib/gcc/arm-none-eabi/4.9.3/../../../../arm-none-eabi/lib/armv7-m/libc_nano.a(lib_a-sbrkr.o)
 .data          0x0000000000000000        0x0 /usr/bin/../lib/gcc/arm-none-eabi/4.9.3/../../../../arm-none-eabi/lib/armv7-m/libc_nano.a(lib_a-sbrkr.o)
 .bss           0x0000000000000000        0x0 /usr/bin/../lib/gcc/arm-none-eabi/4.9.3/../../../../arm-none-eabi/lib/armv7-m/libc_nano.a(lib_a-sbrkr.o)
 .text          0x0000000000000000        0x0 /usr/bin/../lib/gcc/arm-none-eabi/4.9.3/../../../../arm-none-eabi/lib/armv7-m/libc_nano.a(lib_a-reent.o)
 .data          0x0000000000000000        0x0 /usr/bin/../lib/gcc/arm-none-eabi/4.9.3/../../../../arm-none-eabi/lib/armv7-m/libc_nano.a(lib_a-reent.o)
 .bss           0x0000000000000000        0x0 /usr/bin/../lib/gcc/arm-none-eabi/4.9.3/../../../../arm-none-eabi/lib/armv7-m/libc_nano.a(lib_a-reent.o)
 .text.cleanup_glue
                0x0000000000000000       0x1a /usr/bin/../lib/gcc/arm-none-eabi/4.9.3/../../../../arm-none-eabi/lib/armv7-m/libc_nano.a(lib_a-reent.o)
 .text._reclaim_reent
                0x0000000000000000       0xb4 /usr/bin/../lib/gcc/arm-none-eabi/4.9.3/../../../../arm-none-eabi/lib/armv7-m/libc_nano.a(lib_a-reent.o)
 .text          0x0000000000000000        0x0 /usr/bin/../lib/gcc/arm-none-eabi/4.9.3/../../../../arm-none-eabi/lib/armv7-m/libnosys.a(sbrk.o)
 .data          0x0000000000000000        0x0 /usr/bin/../lib/gcc/arm-none-eabi/4.9.3/../../../../arm-none-eabi/lib/armv7-m/libnosys.a(sbrk.o)
 .bss           0x0000000000000000        0x0 /usr/bin/../lib/gcc/arm-none-eabi/4.9.3/../../../../arm-none-eabi/lib/armv7-m/libnosys.a(sbrk.o)
 .text          0x0000000000000000        0x0 /usr/bin/../lib/gcc/arm-none-eabi/4.9.3/../../../../arm-none-eabi/lib/armv7-m/libm.a(lib_a-sf_cos.o)
 .data          0x0000000000000000        0x0 /usr/bin/../lib/gcc/arm-none-eabi/4.9.3/../../../../arm-none-eabi/lib/armv7-m/libm.a(lib_a-sf_cos.o)
 .bss           0x0000000000000000        0x0 /usr/bin/../lib/gcc/arm-none-eabi/4.9.3/../../../../arm-none-eabi/lib/armv7-m/libm.a(lib_a-sf_cos.o)
 .text          0x0000000000000000        0x0 /usr/bin/../lib/gcc/arm-none-eabi/4.9.3/../../../../arm-none-eabi/lib/armv7-m/libm.a(lib_a-sf_lrint.o)
 .data          0x0000000000000000        0x0 /usr/bin/../lib/gcc/arm-none-eabi/4.9.3/../../../../arm-none-eabi/lib/armv7-m/libm.a(lib_a-sf_lrint.o)
 .bss           0x0000000000000000        0x0 /usr/bin/../lib/gcc/arm-none-eabi/4.9.3/../../../../arm-none-eabi/lib/armv7-m/libm.a(lib_a-sf_lrint.o)
 .text          0x0000000000000000        0x0 /usr/bin/../lib/gcc/arm-none-eabi/4.9.3/../../../../arm-none-eabi/lib/armv7-m/libm.a(lib_a-sf_sin.o)
 .data          0x0000000000000000        0x0 /usr/bin/../lib/gcc/arm-none-eabi/4.9.3/../../../../arm-none-eabi/lib/armv7-m/libm.a(lib_a-sf_sin.o)
 .bss           0x0000000000000000        0x0 /usr/bin/../lib/gcc/arm-none-eabi/4.9.3/../../../../arm-none-eabi/lib/armv7-m/libm.a(lib_a-sf_sin.o)
 .text          0x0000000000000000        0x0 /usr/bin/../lib/gcc/arm-none-eabi/4.9.3/../../../../arm-none-eabi/lib/armv7-m/libm.a(lib_a-wf_acos.o)
 .data          0x0000000000000000        0x0 /usr/bin/../lib/gcc/arm-none-eabi/4.9.3/../../../../arm-none-eabi/lib/armv7-m/libm.a(lib_a-wf_acos.o)
 .bss           0x0000000000000000        0x0 /usr/bin/../lib/gcc/arm-none-eabi/4.9.3/../../../../arm-none-eabi/lib/armv7-m/libm.a(lib_a-wf_acos.o)
 .text          0x0000000000000000        0x0 /usr/bin/../lib/gcc/arm-none-eabi/4.9.3/../../../../arm-none-eabi/lib/armv7-m/libm.a(lib_a-wf_atan2.o)
 .data          0x0000000000000000        0x0 /usr/bin/../lib/gcc/arm-none-eabi/4.9.3/../../../../arm-none-eabi/lib/armv7-m/libm.a(lib_a-wf_atan2.o)
 .bss           0x0000000000000000        0x0 /usr/bin/../lib/gcc/arm-none-eabi/4.9.3/../../../../arm-none-eabi/lib/armv7-m/libm.a(lib_a-wf_atan2.o)
 .text          0x0000000000000000        0x0 /usr/bin/../lib/gcc/arm-none-eabi/4.9.3/../../../../arm-none-eabi/lib/armv7-m/libm.a(lib_a-wf_sqrt.o)
 .data          0x0000000000000000        0x0 /usr/bin/../lib/gcc/arm-none-eabi/4.9.3/../../../../arm-none-eabi/lib/armv7-m/libm.a(lib_a-wf_sqrt.o)
 .bss           0x0000000000000000        0x0 /usr/bin/../lib/gcc/arm-none-eabi/4.9.3/../../../../arm-none-eabi/lib/armv7-m/libm.a(lib_a-wf_sqrt.o)
 .text          0x0000000000000000        0x0 /usr/bin/../lib/gcc/arm-none-eabi/4.9.3/../../../../arm-none-eabi/lib/armv7-m/libm.a(lib_a-ef_acos.o)
 .data          0x0000000000000000        0x0 /usr/bin/../lib/gcc/arm-none-eabi/4.9.3/../../../../arm-none-eabi/lib/armv7-m/libm.a(lib_a-ef_acos.o)
 .bss           0x0000000000000000        0x0 /usr/bin/../lib/gcc/arm-none-eabi/4.9.3/../../../../arm-none-eabi/lib/armv7-m/libm.a(lib_a-ef_acos.o)
 .text          0x0000000000000000        0x0 /usr/bin/../lib/gcc/arm-none-eabi/4.9.3/../../../../arm-none-eabi/lib/armv7-m/libm.a(lib_a-ef_atan2.o)
 .data          0x0000000000000000        0x0 /usr/bin/../lib/gcc/arm-none-eabi/4.9.3/../../../../arm-none-eabi/lib/armv7-m/libm.a(lib_a-ef_atan2.o)
 .bss           0x0000000000000000        0x0 /usr/bin/../lib/gcc/arm-none-eabi/4.9.3/../../../../arm-none-eabi/lib/armv7-m/libm.a(lib_a-ef_atan2.o)
 .text          0x0000000000000000        0x0 /usr/bin/../lib/gcc/arm-none-eabi/4.9.3/../../../../arm-none-eabi/lib/armv7-m/libm.a(lib_a-ef_rem_pio2.o)
 .data          0x0000000000000000        0x0 /usr/bin/../lib/gcc/arm-none-eabi/4.9.3/../../../../arm-none-eabi/lib/armv7-m/libm.a(lib_a-ef_rem_pio2.o)
 .bss           0x0000000000000000        0x0 /usr/bin/../lib/gcc/arm-none-eabi/4.9.3/../../../../arm-none-eabi/lib/armv7-m/libm.a(lib_a-ef_rem_pio2.o)
 .text          0x0000000000000000        0x0 /usr/bin/../lib/gcc/arm-none-eabi/4.9.3/../../../../arm-none-eabi/lib/armv7-m/libm.a(lib_a-ef_sqrt.o)
 .data          0x0000000000000000        0x0 /usr/bin/../lib/gcc/arm-none-eabi/4.9.3/../../../../arm-none-eabi/lib/armv7-m/libm.a(lib_a-ef_sqrt.o)
 .bss           0x0000000000000000        0x0 /usr/bin/../lib/gcc/arm-none-eabi/4.9.3/../../../../arm-none-eabi/lib/armv7-m/libm.a(lib_a-ef_sqrt.o)
 .text          0x0000000000000000        0x0 /usr/bin/../lib/gcc/arm-none-eabi/4.9.3/../../../../arm-none-eabi/lib/armv7-m/libm.a(lib_a-kf_cos.o)
 .data          0x0000000000000000        0x0 /usr/bin/../lib/gcc/arm-none-eabi/4.9.3/../../../../arm-none-eabi/lib/armv7-m/libm.a(lib_a-kf_cos.o)
 .bss           0x0000000000000000        0x0 /usr/bin/../lib/gcc/arm-none-eabi/4.9.3/../../../../arm-none-eabi/lib/armv7-m/libm.a(lib_a-kf_cos.o)
 .text          0x0000000000000000        0x0 /usr/bin/../lib/gcc/arm-none-eabi/4.9.3/../../../../arm-none-eabi/lib/armv7-m/libm.a(lib_a-kf_rem_pio2.o)
 .data          0x0000000000000000        0x0 /usr/bin/../lib/gcc/arm-none-eabi/4.9.3/../../../../arm-none-eabi/lib/armv7-m/libm.a(lib_a-kf_rem_pio2.o)
 .bss           0x0000000000000000        0x0 /usr/bin/../lib/gcc/arm-none-eabi/4.9.3/../../../../arm-none-eabi/lib/armv7-m/libm.a(lib_a-kf_rem_pio2.o)
 .text          0x0000000000000000        0x0 /usr/bin/../lib/gcc/arm-none-eabi/4.9.3/../../../../arm-none-eabi/lib/armv7-m/libm.a(lib_a-kf_sin.o)
 .data          0x0000000000000000        0x0 /usr/bin/../lib/gcc/arm-none-eabi/4.9.3/../../../../arm-none-eabi/lib/armv7-m/libm.a(lib_a-kf_sin.o)
 .bss           0x0000000000000000        0x0 /usr/bin/../lib/gcc/arm-none-eabi/4.9.3/../../../../arm-none-eabi/lib/armv7-m/libm.a(lib_a-kf_sin.o)
 .text          0x0000000000000000        0x0 /usr/bin/../lib/gcc/arm-none-eabi/4.9.3/../../../../arm-none-eabi/lib/armv7-m/libm.a(lib_a-s_lib_ver.o)
 .data          0x0000000000000000        0x0 /usr/bin/../lib/gcc/arm-none-eabi/4.9.3/../../../../arm-none-eabi/lib/armv7-m/libm.a(lib_a-s_lib_ver.o)
 .bss           0x0000000000000000        0x0 /usr/bin/../lib/gcc/arm-none-eabi/4.9.3/../../../../arm-none-eabi/lib/armv7-m/libm.a(lib_a-s_lib_ver.o)
 .text          0x0000000000000000        0x0 /usr/bin/../lib/gcc/arm-none-eabi/4.9.3/../../../../arm-none-eabi/lib/armv7-m/libm.a(lib_a-s_matherr.o)
 .data          0x0000000000000000        0x0 /usr/bin/../lib/gcc/arm-none-eabi/4.9.3/../../../../arm-none-eabi/lib/armv7-m/libm.a(lib_a-s_matherr.o)
 .bss           0x0000000000000000        0x0 /usr/bin/../lib/gcc/arm-none-eabi/4.9.3/../../../../arm-none-eabi/lib/armv7-m/libm.a(lib_a-s_matherr.o)
 .text          0x0000000000000000        0x0 /usr/bin/../lib/gcc/arm-none-eabi/4.9.3/../../../../arm-none-eabi/lib/armv7-m/libm.a(lib_a-s_nan.o)
 .data          0x0000000000000000        0x0 /usr/bin/../lib/gcc/arm-none-eabi/4.9.3/../../../../arm-none-eabi/lib/armv7-m/libm.a(lib_a-s_nan.o)
 .bss           0x0000000000000000        0x0 /usr/bin/../lib/gcc/arm-none-eabi/4.9.3/../../../../arm-none-eabi/lib/armv7-m/libm.a(lib_a-s_nan.o)
 .text          0x0000000000000000        0x0 /usr/bin/../lib/gcc/arm-none-eabi/4.9.3/../../../../arm-none-eabi/lib/armv7-m/libm.a(lib_a-sf_atan.o)
 .data          0x0000000000000000        0x0 /usr/bin/../lib/gcc/arm-none-eabi/4.9.3/../../../../arm-none-eabi/lib/armv7-m/libm.a(lib_a-sf_atan.o)
 .bss           0x0000000000000000        0x0 /usr/bin/../lib/gcc/arm-none-eabi/4.9.3/../../../../arm-none-eabi/lib/armv7-m/libm.a(lib_a-sf_atan.o)
 .text          0x0000000000000000        0x0 /usr/bin/../lib/gcc/arm-none-eabi/4.9.3/../../../../arm-none-eabi/lib/armv7-m/libm.a(lib_a-sf_fabs.o)
 .data          0x0000000000000000        0x0 /usr/bin/../lib/gcc/arm-none-eabi/4.9.3/../../../../arm-none-eabi/lib/armv7-m/libm.a(lib_a-sf_fabs.o)
 .bss           0x0000000000000000        0x0 /usr/bin/../lib/gcc/arm-none-eabi/4.9.3/../../../../arm-none-eabi/lib/armv7-m/libm.a(lib_a-sf_fabs.o)
 .text          0x0000000000000000        0x0 /usr/bin/../lib/gcc/arm-none-eabi/4.9.3/../../../../arm-none-eabi/lib/armv7-m/libm.a(lib_a-sf_floor.o)
 .data          0x0000000000000000        0x0 /usr/bin/../lib/gcc/arm-none-eabi/4.9.3/../../../../arm-none-eabi/lib/armv7-m/libm.a(lib_a-sf_floor.o)
 .bss           0x0000000000000000        0x0 /usr/bin/../lib/gcc/arm-none-eabi/4.9.3/../../../../arm-none-eabi/lib/armv7-m/libm.a(lib_a-sf_floor.o)
 .text          0x0000000000000000        0x0 /usr/bin/../lib/gcc/arm-none-eabi/4.9.3/../../../../arm-none-eabi/lib/armv7-m/libm.a(lib_a-sf_fpclassify.o)
 .data          0x0000000000000000        0x0 /usr/bin/../lib/gcc/arm-none-eabi/4.9.3/../../../../arm-none-eabi/lib/armv7-m/libm.a(lib_a-sf_fpclassify.o)
 .bss           0x0000000000000000        0x0 /usr/bin/../lib/gcc/arm-none-eabi/4.9.3/../../../../arm-none-eabi/lib/armv7-m/libm.a(lib_a-sf_fpclassify.o)
 .text          0x0000000000000000        0x0 /usr/bin/../lib/gcc/arm-none-eabi/4.9.3/../../../../arm-none-eabi/lib/armv7-m/libm.a(lib_a-sf_scalbn.o)
 .data          0x0000000000000000        0x0 /usr/bin/../lib/gcc/arm-none-eabi/4.9.3/../../../../arm-none-eabi/lib/armv7-m/libm.a(lib_a-sf_scalbn.o)
 .bss           0x0000000000000000        0x0 /usr/bin/../lib/gcc/arm-none-eabi/4.9.3/../../../../arm-none-eabi/lib/armv7-m/libm.a(lib_a-sf_scalbn.o)
 .text          0x0000000000000000        0x0 /usr/bin/../lib/gcc/arm-none-eabi/4.9.3/../../../../arm-none-eabi/lib/armv7-m/libm.a(lib_a-sf_copysign.o)
 .data          0x0000000000000000        0x0 /usr/bin/../lib/gcc/arm-none-eabi/4.9.3/../../../../arm-none-eabi/lib/armv7-m/libm.a(lib_a-sf_copysign.o)
 .bss           0x0000000000000000        0x0 /usr/bin/../lib/gcc/arm-none-eabi/4.9.3/../../../../arm-none-eabi/lib/armv7-m/libm.a(lib_a-sf_copysign.o)
 .text          0x0000000000000000        0x0 /usr/bin/../lib/gcc/arm-none-eabi/4.9.3/../../../../arm-none-eabi/lib/armv7-m/libc_nano.a(lib_a-errno.o)
 .data          0x0000000000000000        0x0 /usr/bin/../lib/gcc/arm-none-eabi/4.9.3/../../../../arm-none-eabi/lib/armv7-m/libc_nano.a(lib_a-errno.o)
 .bss           0x0000000000000000        0x0 /usr/bin/../lib/gcc/arm-none-eabi/4.9.3/../../../../arm-none-eabi/lib/armv7-m/libc_nano.a(lib_a-errno.o)
 .data          0x0000000000000000        0x0 /usr/bin/../lib/gcc/arm-none-eabi/4.9.3/armv7-m/libgcc.a(_arm_addsubdf3.o)
 .bss           0x0000000000000000        0x0 /usr/bin/../lib/gcc/arm-none-eabi/4.9.3/armv7-m/libgcc.a(_arm_addsubdf3.o)
 .data          0x0000000000000000        0x0 /usr/bin/../lib/gcc/arm-none-eabi/4.9.3/armv7-m/libgcc.a(_arm_muldivdf3.o)
 .bss           0x0000000000000000        0x0 /usr/bin/../lib/gcc/arm-none-eabi/4.9.3/armv7-m/libgcc.a(_arm_muldivdf3.o)
 .data          0x0000000000000000        0x0 /usr/bin/../lib/gcc/arm-none-eabi/4.9.3/armv7-m/libgcc.a(_arm_truncdfsf2.o)
 .bss           0x0000000000000000        0x0 /usr/bin/../lib/gcc/arm-none-eabi/4.9.3/armv7-m/libgcc.a(_arm_truncdfsf2.o)

Memory Configuration

Name             Origin             Length             Attributes
FLASH            0x0000000008000000 0x000000000001f800 xr
RAM              0x0000000020000000 0x0000000000005000 xrw
MEMORY_B1        0x0000000060000000 0x0000000000000000 xr
*default*        0x0000000000000000 0xffffffffffffffff

Linker script and memory map

LOAD obj/main/CC3D/startup_stm32f10x_md_gcc.o
LOAD obj/main/CC3D/drivers/accgyro_mpu.o
LOAD /tmp/ccZkfwo0.ltrans0.ltrans.o
LOAD /tmp/ccZkfwo0.ltrans1.ltrans.o
LOAD /tmp/ccZkfwo0.ltrans2.ltrans.o
LOAD /tmp/ccZkfwo0.ltrans3.ltrans.o
LOAD /tmp/ccZkfwo0.ltrans4.ltrans.o
LOAD /tmp/ccZkfwo0.ltrans5.ltrans.o
LOAD /tmp/ccZkfwo0.ltrans6.ltrans.o
LOAD /tmp/ccZkfwo0.ltrans7.ltrans.o
LOAD /tmp/ccZkfwo0.ltrans8.ltrans.o
LOAD /tmp/ccZkfwo0.ltrans9.ltrans.o
LOAD /tmp/ccZkfwo0.ltrans10.ltrans.o
LOAD /tmp/ccZkfwo0.ltrans11.ltrans.o
LOAD /tmp/ccZkfwo0.ltrans12.ltrans.o
LOAD /tmp/ccZkfwo0.ltrans13.ltrans.o
LOAD /tmp/ccZkfwo0.ltrans14.ltrans.o
LOAD /tmp/ccZkfwo0.ltrans15.ltrans.o
LOAD /tmp/ccZkfwo0.ltrans16.ltrans.o
LOAD /tmp/ccZkfwo0.ltrans17.ltrans.o
LOAD /tmp/ccZkfwo0.ltrans18.ltrans.o
LOAD /tmp/ccZkfwo0.ltrans19.ltrans.o
LOAD /tmp/ccZkfwo0.ltrans20.ltrans.o
LOAD /tmp/ccZkfwo0.ltrans21.ltrans.o
LOAD /tmp/ccZkfwo0.ltrans22.ltrans.o
LOAD /tmp/ccZkfwo0.ltrans23.ltrans.o
LOAD /tmp/ccZkfwo0.ltrans24.ltrans.o
LOAD /tmp/ccZkfwo0.ltrans25.ltrans.o
LOAD /tmp/ccZkfwo0.ltrans26.ltrans.o
LOAD /tmp/ccZkfwo0.ltrans27.ltrans.o
LOAD /tmp/ccZkfwo0.ltrans28.ltrans.o
LOAD /usr/bin/../lib/gcc/arm-none-eabi/4.9.3/armv7-m/libgcc.a
LOAD /usr/bin/../lib/gcc/arm-none-eabi/4.9.3/../../../../arm-none-eabi/lib/armv7-m/libg_nano.a
LOAD /usr/bin/../lib/gcc/arm-none-eabi/4.9.3/../../../../arm-none-eabi/lib/armv7-m/libc_nano.a
LOAD /usr/bin/../lib/gcc/arm-none-eabi/4.9.3/armv7-m/libgcc.a
LOAD /usr/bin/../lib/gcc/arm-none-eabi/4.9.3/../../../../arm-none-eabi/lib/armv7-m/libc_nano.a
LOAD obj/main/CC3D/drivers/accgyro_spi_mpu6000.o
LOAD obj/main/CC3D/drivers/adc.o
LOAD obj/main/CC3D/drivers/adc_stm32f10x.o
LOAD obj/main/CC3D/drivers/barometer_bmp085.o
LOAD obj/main/CC3D/drivers/barometer_bmp280.o
LOAD obj/main/CC3D/drivers/barometer_ms5611.o
LOAD obj/main/CC3D/drivers/bus_spi.o
LOAD obj/main/CC3D/drivers/bus_i2c_stm32f10x.o
LOAD obj/main/CC3D/drivers/compass_hmc5883l.o
LOAD obj/main/CC3D/drivers/display_ug2864hsweg01.o
LOAD obj/main/CC3D/drivers/flash_m25p16.o
LOAD obj/main/CC3D/drivers/gpio_stm32f10x.o
LOAD obj/main/CC3D/drivers/inverter.o
LOAD obj/main/CC3D/drivers/light_led_stm32f10x.o
LOAD obj/main/CC3D/drivers/light_ws2811strip.o
LOAD obj/main/CC3D/drivers/light_ws2811strip_stm32f10x.o
LOAD obj/main/CC3D/drivers/pwm_mapping.o
LOAD obj/main/CC3D/drivers/pwm_output.o
LOAD obj/main/CC3D/drivers/pwm_rx.o
LOAD obj/main/CC3D/drivers/serial_softserial.o
LOAD obj/main/CC3D/drivers/serial_uart.o
LOAD obj/main/CC3D/drivers/serial_uart_stm32f10x.o
LOAD obj/main/CC3D/drivers/sonar_hcsr04.o
LOAD obj/main/CC3D/drivers/sound_beeper_stm32f10x.o
LOAD obj/main/CC3D/drivers/system_stm32f10x.o
LOAD obj/main/CC3D/drivers/timer.o
LOAD obj/main/CC3D/drivers/timer_stm32f10x.o
LOAD obj/main/CC3D/io/flashfs.o
LOAD obj/main/CC3D/flight/gtune.o
LOAD obj/main/CC3D/flight/navigation.o
LOAD obj/main/CC3D/flight/gps_conversion.o
LOAD obj/main/CC3D/common/colorconversion.o
LOAD obj/main/CC3D/io/gps.o
LOAD obj/main/CC3D/io/ledstrip.o
LOAD obj/main/CC3D/io/display.o
LOAD obj/main/CC3D/telemetry/telemetry.o
LOAD obj/main/CC3D/telemetry/frsky.o
LOAD obj/main/CC3D/telemetry/hott.o
LOAD obj/main/CC3D/telemetry/smartport.o
LOAD obj/main/CC3D/telemetry/ltm.o
LOAD obj/main/CC3D/sensors/sonar.o
LOAD obj/main/CC3D/sensors/barometer.o
LOAD obj/main/CC3D/blackbox/blackbox.o
LOAD obj/main/CC3D/blackbox/blackbox_io.o
LOAD obj/main/CC3D/build_config.o
LOAD obj/main/CC3D/debug.o
LOAD obj/main/CC3D/version.o
LOAD obj/main/CC3D/config/config.o
LOAD obj/main/CC3D/config/runtime_config.o
LOAD obj/main/CC3D/common/maths.o
LOAD obj/main/CC3D/common/printf.o
LOAD obj/main/CC3D/common/typeconversion.o
LOAD obj/main/CC3D/common/encoding.o
LOAD obj/main/CC3D/common/filter.o
LOAD obj/main/CC3D/scheduler.o
LOAD obj/main/CC3D/scheduler_tasks.o
LOAD obj/main/CC3D/main.o
LOAD obj/main/CC3D/mw.o
LOAD obj/main/CC3D/flight/altitudehold.o
LOAD obj/main/CC3D/flight/failsafe.o
LOAD obj/main/CC3D/flight/pid.o
LOAD obj/main/CC3D/flight/imu.o
LOAD obj/main/CC3D/flight/mixer.o
LOAD obj/main/CC3D/drivers/bus_i2c_soft.o
LOAD obj/main/CC3D/drivers/serial.o
LOAD obj/main/CC3D/drivers/sound_beeper.o
LOAD obj/main/CC3D/drivers/system.o
LOAD obj/main/CC3D/drivers/gyro_sync.o
LOAD obj/main/CC3D/drivers/dma.o
LOAD obj/main/CC3D/drivers/buf_writer.o
LOAD obj/main/CC3D/io/beeper.o
LOAD obj/main/CC3D/io/rc_controls.o
LOAD obj/main/CC3D/io/rc_curves.o
LOAD obj/main/CC3D/io/serial.o
LOAD obj/main/CC3D/io/serial_4way.o
LOAD obj/main/CC3D/io/serial_4way_avrootloader.o
LOAD obj/main/CC3D/io/serial_4way_stk500v2.o
LOAD obj/main/CC3D/io/serial_cli.o
LOAD obj/main/CC3D/io/serial_msp.o
LOAD obj/main/CC3D/io/statusindicator.o
LOAD obj/main/CC3D/rx/rx.o
LOAD obj/main/CC3D/rx/pwm.o
LOAD obj/main/CC3D/rx/msp.o
LOAD obj/main/CC3D/rx/sbus.o
LOAD obj/main/CC3D/rx/sumd.o
LOAD obj/main/CC3D/rx/sumh.o
LOAD obj/main/CC3D/rx/spektrum.o
LOAD obj/main/CC3D/rx/xbus.o
LOAD obj/main/CC3D/rx/ibus.o
LOAD obj/main/CC3D/rx/jetiexbus.o
LOAD obj/main/CC3D/sensors/acceleration.o
LOAD obj/main/CC3D/sensors/battery.o
LOAD obj/main/CC3D/sensors/boardalignment.o
LOAD obj/main/CC3D/sensors/compass.o
LOAD obj/main/CC3D/sensors/gyro.o
LOAD obj/main/CC3D/sensors/initialisation.o
LOAD obj/main/CC3D/core_cm3.o
LOAD obj/main/CC3D/system_stm32f10x.o
LOAD obj/main/CC3D/misc.o
LOAD obj/main/CC3D/stm32f10x_adc.o
LOAD obj/main/CC3D/stm32f10x_bkp.o
LOAD obj/main/CC3D/stm32f10x_dac.o
LOAD obj/main/CC3D/stm32f10x_dbgmcu.o
LOAD obj/main/CC3D/stm32f10x_dma.o
LOAD obj/main/CC3D/stm32f10x_exti.o
LOAD obj/main/CC3D/stm32f10x_flash.o
LOAD obj/main/CC3D/stm32f10x_fsmc.o
LOAD obj/main/CC3D/stm32f10x_gpio.o
LOAD obj/main/CC3D/stm32f10x_i2c.o
LOAD obj/main/CC3D/stm32f10x_iwdg.o
LOAD obj/main/CC3D/stm32f10x_pwr.o
LOAD obj/main/CC3D/stm32f10x_rcc.o
LOAD obj/main/CC3D/stm32f10x_rtc.o
LOAD obj/main/CC3D/stm32f10x_sdio.o
LOAD obj/main/CC3D/stm32f10x_spi.o
LOAD obj/main/CC3D/stm32f10x_tim.o
LOAD obj/main/CC3D/stm32f10x_usart.o
LOAD obj/main/CC3D/stm32f10x_wwdg.o
LOAD obj/main/CC3D/usb_core.o
LOAD obj/main/CC3D/usb_init.o
LOAD obj/main/CC3D/usb_int.o
LOAD obj/main/CC3D/usb_mem.o
LOAD obj/main/CC3D/usb_regs.o
LOAD obj/main/CC3D/usb_sil.o
LOAD obj/main/CC3D/vcp/hw_config.o
LOAD obj/main/CC3D/vcp/stm32_it.o
LOAD obj/main/CC3D/vcp/usb_desc.o
LOAD obj/main/CC3D/vcp/usb_endp.o
LOAD obj/main/CC3D/vcp/usb_istr.o
LOAD obj/main/CC3D/vcp/usb_prop.o
LOAD obj/main/CC3D/vcp/usb_pwr.o
LOAD obj/main/CC3D/drivers/serial_usb_vcp.o
LOAD obj/main/CC3D/drivers/usb_io.o
LOAD /usr/bin/../lib/gcc/arm-none-eabi/4.9.3/../../../../arm-none-eabi/lib/armv7-m/libm.a
LOAD /usr/bin/../lib/gcc/arm-none-eabi/4.9.3/../../../../arm-none-eabi/lib/armv7-m/libc_nano.a
LOAD /usr/bin/../lib/gcc/arm-none-eabi/4.9.3/../../../../arm-none-eabi/lib/armv7-m/libnosys.a
START GROUP
LOAD /usr/bin/../lib/gcc/arm-none-eabi/4.9.3/armv7-m/libgcc.a
LOAD /usr/bin/../lib/gcc/arm-none-eabi/4.9.3/../../../../arm-none-eabi/lib/armv7-m/libg_nano.a
LOAD /usr/bin/../lib/gcc/arm-none-eabi/4.9.3/../../../../arm-none-eabi/lib/armv7-m/libc_nano.a
END GROUP
START GROUP
LOAD /usr/bin/../lib/gcc/arm-none-eabi/4.9.3/armv7-m/libgcc.a
LOAD /usr/bin/../lib/gcc/arm-none-eabi/4.9.3/../../../../arm-none-eabi/lib/armv7-m/libc_nano.a
END GROUP
                0x0000000020005000                _estack = (ORIGIN (RAM) + 0x5000)
                0x0000000000000000                _Min_Heap_Size = 0x0
                0x0000000000000400                _Min_Stack_Size = 0x400

.isr_vector     0x0000000008000000      0x10c
                0x0000000008000000                . = ALIGN (0x4)
                0x0000000008000000                PROVIDE (isr_vector_table_base, .)
 *(.isr_vector)
 .isr_vector    0x0000000008000000      0x10c obj/main/CC3D/startup_stm32f10x_md_gcc.o
                0x0000000008000000                g_pfnVectors
                0x000000000800010c                . = ALIGN (0x4)

.text           0x000000000800010c    0x1b8f0
                0x000000000800010c                . = ALIGN (0x4)
 *(.text)
 .text          0x000000000800010c     0x1fc0 /tmp/ccZkfwo0.ltrans1.ltrans.o
                0x000000000800010c                taskHandleSerial
 .text          0x00000000080020cc     0x13f8 /tmp/ccZkfwo0.ltrans2.ltrans.o
                0x00000000080020cc                taskMainPidLoopCheck
 .text          0x00000000080034c4     0x12f0 /tmp/ccZkfwo0.ltrans3.ltrans.o
                0x00000000080034c4                taskUpdateRxMain
 .text          0x00000000080047b4      0xbb0 /tmp/ccZkfwo0.ltrans4.ltrans.o
                0x00000000080047b4                taskTelemetry
 .text          0x0000000008005364      0x9c8 /tmp/ccZkfwo0.ltrans5.ltrans.o
                0x00000000080054b4                blackboxWrite
                0x00000000080055bc                blackboxLogIteration.lto_priv.421
                0x0000000008005ab4                blackboxAdvanceIterationTimers.lto_priv.420
                0x0000000008005af0                sendFieldDefinition.lto_priv.422
                0x0000000008005c4c                ltm_finalise.lto_priv.308
                0x0000000008005c60                ltm_serialise_8.lto_priv.181
                0x0000000008005c80                ltm_serialise_16.lto_priv.310
                0x0000000008005c92                ltm_initialise_packet.lto_priv.309
                0x0000000008005cc4                smartPortSendPackage.lto_priv.307
 .text          0x0000000008005d2c      0xaf4 /tmp/ccZkfwo0.ltrans6.ltrans.o
                0x0000000008005d4c                pwmOverflowCallback.lto_priv.502
                0x0000000008005d74                ppmEdgeCallback.lto_priv.503
                0x0000000008005e54                ppmOverflowCallback.lto_priv.504
                0x0000000008005e64                pwmWriteMultiShot.lto_priv.500
                0x0000000008005e8c                pwmWriteOneshot42.lto_priv.498
                0x0000000008005e9c                pwmWriteOneshot125.lto_priv.499
                0x0000000008005eb4                pwmWriteStandard.lto_priv.496
                0x0000000008005ec4                pwmWriteBrushed.lto_priv.497
                0x0000000008005ee8                ws2811DMAHandler
                0x0000000008005f10                applyChangedBits
                0x0000000008005f3a                serialICConfig.lto_priv.577
                0x000000000800606e                pwmICConfig
                0x00000000080060a8                pwmEdgeCallback.lto_priv.501
                0x0000000008006100                pwmWriteServo
                0x0000000008006118                ws2811UpdateStrip
                0x00000000080062d4                gpioInit
                0x0000000008006338                openSoftSerial
                0x00000000080064a8                pwmOutConfig.lto_priv.534
                0x000000000800675c                m25p16_isReady
                0x00000000080067ac                m25p16_waitForReady
                0x00000000080067cc                m25p16_readBytes
 .text          0x0000000008006820      0xbcc /tmp/ccZkfwo0.ltrans7.ltrans.o
                0x0000000008006820                Standard_GetStatus
                0x00000000080068b0                Standard_GetInterface
                0x00000000080068d4                Standard_GetConfiguration
                0x0000000008006920                jetiExBusReadRawRC.lto_priv.474
                0x0000000008006938                ibusReadRawRC.lto_priv.472
                0x0000000008006948                xBusReadRawRC.lto_priv.470
                0x0000000008006960                jetiExBusDataReceive.lto_priv.475
                0x0000000008006a44                ibusDataReceive.lto_priv.473
                0x0000000008006a90                xBusDataReceive.lto_priv.471
                0x0000000008006b6c                Post0_Process
                0x0000000008006bb0                DataStageIn.lto_priv.190
                0x0000000008006c98                TIM_ICInit
                0x0000000008006ec0                RCC_GetClocksFreq
                0x0000000008006f54                GPIO_Init
                0x0000000008006ff0                FLASH_WaitForLastOperation
                0x0000000008007012                DMA_StructInit
                0x000000000800702c                DMA_Init
                0x0000000008007068                DMA_DeInit
                0x0000000008007158                SystemInit
                0x00000000080071a4                alignSensors
                0x0000000008007320                batteryAdcToVoltage
                0x000000000800734c                updateBatteryVoltage.lto_priv.356
                0x00000000080073bc                calcCRC16
 .text          0x00000000080073ec      0xa14 /tmp/ccZkfwo0.ltrans8.ltrans.o
                0x0000000008007424                nopConsumer.lto_priv.264
                0x0000000008007500                ReadBit.lto_priv.267
                0x0000000008007594                StkSendByte.lto_priv.185
                0x0000000008007610                StkSendPacketFooter.lto_priv.186
                0x0000000008007640                StkSendPacketHeader.lto_priv.184
                0x000000000800768c                BL_GetACK.lto_priv.403
                0x00000000080076ae                BL_SendBuf.lto_priv.402
                0x0000000008007718                BL_WriteA.part.5.lto_priv.398
                0x0000000008007790                BL_SendCMDSetAddress.lto_priv.399
                0x00000000080077e0                BL_ReadBuf.lto_priv.404
                0x000000000800786c                BL_ReadA.lto_priv.401
                0x0000000008007898                WriteByteCrc.lto_priv.393
                0x00000000080078d4                ReadByte.lto_priv.394
                0x00000000080078f8                ReadByteCrc.lto_priv.395
                0x0000000008007930                waitForSerialPortToFinishTransmitting
                0x0000000008007946                closeSerialPort
                0x000000000800796c                openSerialPort
                0x0000000008007b40                serialFindPortConfiguration
                0x0000000008007b68                determinePortSharing
                0x0000000008007b7c                findNextSerialPortConfig
                0x0000000008007bb4                findSerialPortConfig
                0x0000000008007bc4                generateThrottleCurve
                0x0000000008007c78                generatePitchRollCurve
                0x0000000008007cac                isRangeActive.part.2.lto_priv.322
                0x0000000008007cf4                getRcStickDeflection
                0x0000000008007d1c                calculateThrottleStatus
                0x0000000008007d5c                blackboxLogInflightAdjustmentEvent
                0x0000000008007d9c                beeperConfirmationBeeps
                0x0000000008007dd0                beeperSilence
 .text          0x0000000008007e00      0x624 /tmp/ccZkfwo0.ltrans9.ltrans.o
                0x0000000008007e00                taskLedStrip
 .text          0x0000000008008424      0xcb4 /tmp/ccZkfwo0.ltrans10.ltrans.o
                0x00000000080084b8                cliShowArgumentRangeError.lto_priv.239
                0x00000000080084d4                cliAux.lto_priv.204
                0x00000000080085c0                cliShowParseError.lto_priv.240
                0x00000000080085cc                cliRxRange.lto_priv.214
                0x00000000080086a8                cliMotorMix.lto_priv.213
                0x00000000080088a0                cliAdjustmentRange.lto_priv.203
                0x00000000080089fc                cliSerialPassthrough.lto_priv.217
                0x0000000008008b94                cliSerial.lto_priv.216
                0x0000000008008cd8                cliRxFail.lto_priv.215
                0x0000000008008e08                cliPrompt.lto_priv.408
                0x0000000008008e24                StkRcvPacket.lto_priv.187
                0x0000000008008f44                Stk_SignOn
                0x0000000008008f7c                _CMD_PROGRAM_MEM_ISP.lto_priv.397
                0x0000000008009020                _CMD_READ_MEM_ISP.lto_priv.400
                0x000000000800906c                _CMD_LOAD_ADDRESS.lto_priv.396
 .text          0x00000000080090d8      0xd74 /tmp/ccZkfwo0.ltrans11.ltrans.o
                0x00000000080090d8                cliFeature.lto_priv.208
                0x00000000080091e0                cliExit.lto_priv.207
                0x00000000080092d8                cliFlashErase.lto_priv.209
                0x0000000008009304                cliFlashInfo.lto_priv.210
                0x000000000800933c                cliServo.lto_priv.218
                0x0000000008009474                cliServoMix.lto_priv.220
                0x0000000008009778                cliColor.lto_priv.205
                0x000000000800985c                cliLed.lto_priv.212
                0x0000000008009a7c                cliDump.lto_priv.206
 .text          0x0000000008009e4c      0x980 /tmp/ccZkfwo0.ltrans12.ltrans.o
                0x0000000008009f38                smartPortSendByte.lto_priv.563
                0x0000000008009f74                workAroundForHottTelemetryOnUsart.isra.0.lto_priv.306
                0x0000000008009fa0                flushHottRxBuffer.lto_priv.305
                0x0000000008009fbc                GPStoDDDMM_MMMM.lto_priv.304
                0x000000000800a010                serialize16.lto_priv.302
                0x000000000800a024                sendTelemetryTail.lto_priv.301
                0x000000000800a034                sendDataHead.lto_priv.303
                0x000000000800a054                telemetryCheckState
                0x000000000800a204                applyDirectionalModeColor
                0x000000000800a2e4                reevalulateLedConfig
                0x000000000800a398                flashfsAdvanceTailInBuffer.lto_priv.553
                0x000000000800a3c8                flashfsGetDirtyDataBuffers.lto_priv.551
                0x000000000800a400                flashfsGetOffset
                0x000000000800a420                flashfsWriteBuffers.lto_priv.552
                0x000000000800a580                flashfsFlushSync
                0x000000000800a5b8                flashfsFlushAsync
                0x000000000800a5fc                flashfsTransmitBufferUsed.lto_priv.423
                0x000000000800a61c                flashfsEraseCompletely
                0x000000000800a674                TIM4_IRQHandler
                0x000000000800a684                TIM3_IRQHandler
                0x000000000800a694                TIM2_IRQHandler
                0x000000000800a6a0                TIM1_UP_IRQHandler
                0x000000000800a6b0                TIM1_CC_IRQHandler
                0x000000000800a6c0                timerChConfigCallbacks
                0x000000000800a778                timerConfigure
 .text          0x000000000800a7cc      0x79c /tmp/ccZkfwo0.ltrans13.ltrans.o
                0x000000000800a89e                uartTotalRxBytesWaiting
                0x000000000800a91c                isSoftSerialTransmitBufferEmpty
                0x000000000800a928                softSerialSetMode
                0x000000000800a92c                softSerialWriteByte
                0x000000000800a94a                softSerialTxBytesFree
                0x000000000800a96c                softSerialRxBytesWaiting
                0x000000000800a98a                softSerialReadByte
                0x000000000800aae4                softSerialSetBaudRate
                0x000000000800aaf4                onSerialRxPinChange
                0x000000000800ab92                configTimeBase
                0x000000000800ac38                lookupTimerIndex.lto_priv.287
                0x000000000800ac74                USART3_IRQHandler
                0x000000000800ac7c                USART1_IRQHandler
                0x000000000800ac84                DMA1_Channel4_IRQHandler
                0x000000000800acb8                uartOpen
 .text          0x000000000800af68      0xb08 /tmp/ccZkfwo0.ltrans14.ltrans.o
                0x000000000800af6e                activateControlRateConfig
                0x000000000800afb4                isEEPROMContentValid.lto_priv.535
                0x000000000800aff8                readEEPROM
                0x000000000800b338                resetConf.lto_priv.238
                0x000000000800b710                blackboxDeviceReserveBufferSpace
                0x000000000800b770                isBlackboxDeviceFull
                0x000000000800b79c                blackboxDeviceFlushForce
                0x000000000800b7c0                blackboxWriteTag2_3S32
                0x000000000800b8e0                blackboxWriteUnsignedVB
                0x000000000800b900                blackboxWriteSignedVB
                0x000000000800b908                blackboxWriteSigned16VBArray
                0x000000000800b922                blackboxPrint
                0x000000000800b9fc                blackboxPrintfHeaderLine
                0x000000000800ba4c                blackboxPrintf
 .text          0x000000000800ba70      0x740 /tmp/ccZkfwo0.ltrans15.ltrans.o
                0x000000000800ba70                i2cInit
                0x000000000800bc60                i2c_ev_handler.lto_priv.596
                0x000000000800beac                i2c_er_handler.lto_priv.597
                0x000000000800bf34                i2cRead
                0x000000000800bfb0                hmc5883lRead
                0x000000000800c028                hmc5883lInit
 .text          0x000000000800c1b0      0xc34 /tmp/ccZkfwo0.ltrans16.ltrans.o
                0x000000000800c1b0                spektrumReadRawRC.lto_priv.178
                0x000000000800c1d8                sumhReadRawRC.lto_priv.463
                0x000000000800c1ec                sumdReadRawRC.lto_priv.461
                0x000000000800c200                sbusReadRawRC.lto_priv.459
                0x000000000800c230                rxMspReadRawRC.lto_priv.479
                0x000000000800c240                ppmReadRawRC.lto_priv.481
                0x000000000800c250                pwmReadRawRC.lto_priv.480
                0x000000000800c260                nullReadRawRC.lto_priv.180
                0x000000000800c264                spektrumDataReceive.lto_priv.179
                0x000000000800c2b8                sumhDataReceive.lto_priv.464
                0x000000000800c304                sumdDataReceive.lto_priv.462
                0x000000000800c3b0                sbusDataReceive.lto_priv.460
                0x000000000800c408                cliVersion.lto_priv.223
                0x000000000800c43c                cliTasks.lto_priv.222
                0x000000000800c584                cliStatus.lto_priv.221
                0x000000000800c674                cliGet.lto_priv.211
                0x000000000800c6e0                cliSet.lto_priv.219
                0x000000000800c90c                xBusUnpackModeBFrame.lto_priv.191
                0x000000000800c9a4                getRxChannelCount.lto_priv.324
                0x000000000800c9d4                getRxfailValue.lto_priv.325
                0x000000000800ca28                resumeRxSignal
                0x000000000800ca54                suspendRxSignal
                0x000000000800ca80                warningLedRefresh
                0x000000000800cad0                packFlightModeFlags.lto_priv.407
                0x000000000800cc04                mspReleasePortIfAllocated
                0x000000000800cc44                read8.lto_priv.390
                0x000000000800cc5c                read16.lto_priv.391
                0x000000000800cc70                read32.lto_priv.392
                0x000000000800cc82                serialize8.lto_priv.389
                0x000000000800cca4                tailSerialReply.lto_priv.387
                0x000000000800ccc4                headSerialResponse.lto_priv.183
                0x000000000800cd0c                headSerialReply.lto_priv.388
                0x000000000800cd12                serialize16.lto_priv.405
                0x000000000800cd24                serialize32.lto_priv.406
                0x000000000800cd36                setGyroSamplingSpeed
 .text          0x000000000800cde4      0x854 /tmp/ccZkfwo0.ltrans17.ltrans.o
                0x000000000800cde4                NOP_Process
                0x000000000800cde6                PendSV_Handler
                0x000000000800cde8                DebugMon_Handler
                0x000000000800cdea                SVC_Handler
                0x000000000800cdec                UsageFault_Handler
                0x000000000800cdee                BusFault_Handler
                0x000000000800cdf0                MemManage_Handler
                0x000000000800cdf2                NMI_Handler
                0x000000000800cdf4                CDC_Send_DATA.part.0.lto_priv.188
                0x000000000800ce70                IntToUnicode.lto_priv.189
                0x000000000800ce98                SetEPRxCount
                0x000000000800cedc                SetDeviceAddress
                0x000000000800cf14                USB_LP_CAN1_RX0_IRQHandler
 .text          0x000000000800d638      0xb40 /tmp/ccZkfwo0.ltrans18.ltrans.o
                0x000000000800d638                taskSystem
                0x000000000800d700                putcp.lto_priv.177
                0x000000000800d75e                _putc.lto_priv.509
                0x000000000800d76c                queueAdd
                0x000000000800d7dc                setTaskEnabled
                0x000000000800d84c                applyBiQuadFilter
                0x000000000800d8b2                BiQuadNewLpf
                0x000000000800d984                filterApplyPt1
                0x000000000800d9e0                fastA2F
                0x000000000800db0c                ftoa
                0x000000000800dbd8                _i2a.lto_priv.182
                0x000000000800dc00                tfp_format
                0x000000000800ddd6                tfp_printf
                0x000000000800de14                applyDeadband
                0x000000000800de32                sin_approx
                0x000000000800df14                disableFlightMode
                0x000000000800df34                enableFlightMode
                0x000000000800df54                featureClear
                0x000000000800df64                handleOneshotFeatureChangeOnRestart
                0x000000000800dfb8                changeControlRateProfile
                0x000000000800dff4                writeEEPROM
                0x000000000800e140                changeProfile
                0x000000000800e164                saveConfigAndNotify
 .text          0x000000000800e178      0x9b0 /tmp/ccZkfwo0.ltrans19.ltrans.o
                0x000000000800e178                dmaNoOpHandler
                0x000000000800e190                beepInverted.lto_priv.491
                0x000000000800e1a8                beepNormal.lto_priv.492
                0x000000000800e1c0                pidMultiWiiRewrite.lto_priv.369
                0x000000000800e5c8                beeper
                0x000000000800e644                bufWriterFlush
                0x000000000800e65c                bufWriterAppend
                0x000000000800e678                DMA1_Channel7_IRQHandler
                0x000000000800e68c                DMA1_Channel6_IRQHandler
                0x000000000800e6a0                DMA1_Channel3_IRQHandler
                0x000000000800e6b4                DMA1_Channel2_IRQHandler
                0x000000000800e6c8                micros
                0x000000000800e700                delayMicroseconds
                0x000000000800e716                delay
                0x000000000800e72a                SysTick_Handler
                0x000000000800e738                EXTI3_IRQHandler
                0x000000000800e73c                EXTI15_10_IRQHandler
                0x000000000800e740                systemBeep
                0x000000000800e74c                failureMode
                0x000000000800e7d4                serialEndWrite
                0x000000000800e7de                serialBeginWrite
                0x000000000800e7e8                serialSetMode
                0x000000000800e7ee                isSerialTransmitBufferEmpty
                0x000000000800e7f4                serialRead
                0x000000000800e7fa                serialRxBytesWaiting
                0x000000000800e800                serialWrite
                0x000000000800e806                serialWriteBufShim
                0x000000000800e842                writeMotors
                0x000000000800e8f0                stopMotors
                0x000000000800e938                mixerResetDisarmedMotors
                0x000000000800e970                loadCustomServoMixer
                0x000000000800e9c0                determineServoMiddleOrForwardFromChannel
                0x000000000800e9f4                imuComputeRotationMatrix.lto_priv.414
 .text          0x000000000800eb28      0x548 /tmp/ccZkfwo0.ltrans20.ltrans.o
                0x000000000800eb28                checkMPUDataReady
                0x000000000800eb44                mpuGyroRead
                0x000000000800eb8c                mpuAccRead
                0x000000000800ebd4                mpuReadRegisterI2C.lto_priv.486
                0x000000000800ecd0                mpu6000SpiAccInit
                0x000000000800ed24                i2cHandleHardwareFailure.lto_priv.582
                0x000000000800ed44                i2cWrite
                0x000000000800edfc                mpuWriteRegisterI2C.lto_priv.487
                0x000000000800ee06                I2C2_EV_IRQHandler
                0x000000000800ee0a                I2C2_ER_IRQHandler
                0x000000000800ee0e                I2C1_EV_IRQHandler
                0x000000000800ee12                I2C1_ER_IRQHandler
                0x000000000800ee16                spiTransfer
                0x000000000800ee68                spiTransferByte
                0x000000000800ee96                mpu6000ReadRegister
                0x000000000800eecc                mpu6000WriteRegister
                0x000000000800eef8                mpu6000SpiGyroInit
 .text          0x000000000800f070      0x640 /tmp/ccZkfwo0.ltrans21.ltrans.o
                0x000000000800f070                shouldUpdateMotorsAfterPIDLoop
                0x000000000800f09c                taskMotorUpdate
                0x000000000800f288                mwArm
                0x000000000800f608                mwDisarm
                0x000000000800f694                HardFault_Handler
 .text          0x000000000800f6b0      0x7b8 /tmp/ccZkfwo0.ltrans22.ltrans.o
                0x000000000800f6b0                taskUpdateRxCheck
                0x000000000800fb64                taskUpdateBattery
                0x000000000800fd80                taskUpdateBeeper
 .text          0x000000000800fe68      0xb44 /tmp/ccZkfwo0.ltrans23.ltrans.o
                0x000000000800fe68                taskUpdateAttitude
                0x00000000080106f0                taskUpdateAccelerometer
 .text          0x00000000080109ac      0x64c /tmp/ccZkfwo0.ltrans24.ltrans.o
                0x00000000080109ac                usbTxBytesFree
                0x00000000080109b0                usbVcpBeginWrite.lto_priv.281
                0x00000000080109b8                usbVcpAvailable.lto_priv.275
                0x00000000080109c4                isUsbVcpTransmitBufferEmpty.lto_priv.278
                0x00000000080109c8                usbVcpSetMode.lto_priv.279
                0x00000000080109ca                usbVcpSetBaudRate.lto_priv.277
                0x00000000080109cc                Virtual_Com_Port_SetLineCoding
                0x00000000080109e4                Virtual_Com_Port_GetLineCoding
                0x00000000080109fc                Virtual_Com_Port_Get_Interface_Setting
                0x0000000008010a0c                Virtual_Com_Port_GetStringDescriptor
                0x0000000008010a3c                Virtual_Com_Port_GetConfigDescriptor
                0x0000000008010a5c                Virtual_Com_Port_GetDeviceDescriptor
                0x0000000008010a7c                Virtual_Com_Port_NoData_Setup
                0x0000000008010af8                usbVcpEndWrite.lto_priv.282
                0x0000000008010b00                usbVcpWrite.lto_priv.274
                0x0000000008010b20                usbVcpWriteBuf.lto_priv.280
                0x0000000008010b60                usbVcpRead.lto_priv.276
                0x0000000008010bdc                NVIC_Init.part.0.constprop.176
                0x0000000008010c18                EXTI_Init.part.0.constprop.169
                0x0000000008010c78                tfp_sprintf.constprop.123
                0x0000000008010ca4                ltm_serialise_32.constprop.110
                0x0000000008010cc2                blackboxWriteSignedVBArray.constprop.99
                0x0000000008010cdc                isModeActivationConditionPresent.constprop.97
                0x0000000008010d0c                mspAllocateSerialPorts.constprop.96
                0x0000000008010d88                resetSerialConfig.constprop.92
                0x0000000008010de4                parseRcChannels.constprop.81
                0x0000000008010e20                itoa.constprop.75
                0x0000000008010e42                spektrumInit.constprop.63
                0x0000000008010ec4                findNextSharedSerialPort.constprop.43
                0x0000000008010f28                headSerialError.constprop.28
                0x0000000008010f30                _CMD_SPI_MULTI_EX.constprop.24
                0x0000000008010fbc                Resume_Init
 .text          0x0000000008010ff8      0x684 /tmp/ccZkfwo0.ltrans25.ltrans.o
                0x0000000008010ffc                cliWrite.lto_priv.261
                0x000000000801100c                cliPrintf.lto_priv.197
                0x0000000008011034                cliPrintVar.lto_priv.200
                0x000000000801112c                cliRateProfile.lto_priv.259
                0x0000000008011160                cliProfile.lto_priv.260
                0x000000000801119c                cliPlaySound.lto_priv.384
                0x0000000008011238                cliMotor.lto_priv.383
                0x00000000080112d8                cliPrint.lto_priv.198
                0x00000000080112f4                cliPrintVarRange.lto_priv.199
                0x0000000008011364                cliMixer.lto_priv.382
                0x00000000080113fc                cliMap.lto_priv.381
                0x00000000080114a0                cliHelp.lto_priv.380
                0x00000000080114c4                cliBeeper.lto_priv.386
                0x0000000008011610                cliReboot.lto_priv.258
                0x0000000008011648                cliDefaults.lto_priv.379
                0x0000000008011664                cliSave.lto_priv.385
 .text          0x000000000801167c      0x338 /tmp/ccZkfwo0.ltrans26.ltrans.o
                0x00000000080116ec                Virtual_Com_Port_SetDeviceAddress
                0x00000000080116f8                Virtual_Com_Port_SetConfiguration
                0x0000000008011710                EP3_OUT_Callback
                0x000000000801175c                EP1_IN_Callback
                0x00000000080119a4                USBWakeUp_IRQHandler
 .text          0x00000000080119b4      0x6cc /tmp/ccZkfwo0.ltrans27.ltrans.o
                0x00000000080119b4                getdT
                0x00000000080119e4                calculateExpoPlus
                0x0000000008011a40                pidLuxFloat.lto_priv.370
                0x0000000008012044                failsafeActivate.lto_priv.323
 .text          0x0000000008012080      0x14c /tmp/ccZkfwo0.ltrans28.ltrans.o
                0x0000000008012080                taskUpdateCompass
 .text          0x00000000080121cc      0x21c /usr/bin/../lib/gcc/arm-none-eabi/4.9.3/armv7-m/libgcc.a(_arm_addsubsf3.o)
                0x00000000080121cc                __aeabi_frsub
                0x00000000080121d4                __subsf3
                0x00000000080121d4                __aeabi_fsub
                0x00000000080121d8                __aeabi_fadd
                0x00000000080121d8                __addsf3
                0x0000000008012338                __aeabi_ui2f
                0x0000000008012338                __floatunsisf
                0x0000000008012340                __aeabi_i2f
                0x0000000008012340                __floatsisf
                0x000000000801235c                __floatundisf
                0x000000000801235c                __aeabi_ul2f
                0x000000000801236c                __floatdisf
                0x000000000801236c                __aeabi_l2f
 .text          0x00000000080123e8      0x2a0 /usr/bin/../lib/gcc/arm-none-eabi/4.9.3/armv7-m/libgcc.a(_arm_muldivsf3.o)
                0x00000000080123e8                __mulsf3
                0x00000000080123e8                __aeabi_fmul
                0x0000000008012550                __divsf3
                0x0000000008012550                __aeabi_fdiv
 .text          0x0000000008012688       0xec /usr/bin/../lib/gcc/arm-none-eabi/4.9.3/armv7-m/libgcc.a(_arm_cmpsf2.o)
                0x0000000008012688                __gtsf2
                0x0000000008012688                __gesf2
                0x0000000008012690                __lesf2
                0x0000000008012690                __ltsf2
                0x0000000008012698                __nesf2
                0x0000000008012698                __eqsf2
                0x0000000008012698                __cmpsf2
                0x00000000080126f8                __aeabi_cfrcmple
                0x0000000008012700                __aeabi_cfcmple
                0x0000000008012700                __aeabi_cfcmpeq
                0x0000000008012710                __aeabi_fcmpeq
                0x0000000008012724                __aeabi_fcmplt
                0x0000000008012738                __aeabi_fcmple
                0x000000000801274c                __aeabi_fcmpge
                0x0000000008012760                __aeabi_fcmpgt
 .text          0x0000000008012774       0x4c /usr/bin/../lib/gcc/arm-none-eabi/4.9.3/armv7-m/libgcc.a(_arm_fixsfsi.o)
                0x0000000008012774                __fixsfsi
                0x0000000008012774                __aeabi_f2iz
 .text          0x00000000080127c0       0x40 /usr/bin/../lib/gcc/arm-none-eabi/4.9.3/armv7-m/libgcc.a(_arm_fixunssfsi.o)
                0x00000000080127c0                __aeabi_f2uiz
                0x00000000080127c0                __fixunssfsi
 .text          0x0000000008012800       0x38 /usr/bin/../lib/gcc/arm-none-eabi/4.9.3/armv7-m/libgcc.a(_aeabi_ldivmod.o)
                0x0000000008012800                __aeabi_ldivmod
 .text          0x0000000008012838       0x60 /usr/bin/../lib/gcc/arm-none-eabi/4.9.3/armv7-m/libgcc.a(bpabi.o)
                0x0000000008012838                __gnu_ldivmod_helper
                0x0000000008012868                __gnu_uldivmod_helper
 .text          0x0000000008012898        0x4 /usr/bin/../lib/gcc/arm-none-eabi/4.9.3/armv7-m/libgcc.a(_dvmd_tls.o)
                0x0000000008012898                __aeabi_ldiv0
                0x0000000008012898                __aeabi_idiv0
 .text          0x000000000801289c      0x2ac /usr/bin/../lib/gcc/arm-none-eabi/4.9.3/armv7-m/libgcc.a(_divdi3.o)
                0x000000000801289c                __divdi3
 .text          0x0000000008012b48      0x270 /usr/bin/../lib/gcc/arm-none-eabi/4.9.3/armv7-m/libgcc.a(_udivdi3.o)
                0x0000000008012b48                __udivdi3
 .text          0x0000000008012db8      0x370 /usr/bin/../lib/gcc/arm-none-eabi/4.9.3/armv7-m/libgcc.a(_arm_addsubdf3.o)
                0x0000000008012db8                __aeabi_drsub
                0x0000000008012dc0                __aeabi_dsub
                0x0000000008012dc0                __subdf3
                0x0000000008012dc4                __adddf3
                0x0000000008012dc4                __aeabi_dadd
                0x000000000801303c                __aeabi_ui2d
                0x000000000801303c                __floatunsidf
                0x000000000801305c                __floatsidf
                0x000000000801305c                __aeabi_i2d
                0x0000000008013080                __extendsfdf2
                0x0000000008013080                __aeabi_f2d
                0x00000000080130bc                __aeabi_ul2d
                0x00000000080130bc                __floatundidf
                0x00000000080130cc                __floatdidf
                0x00000000080130cc                __aeabi_l2d
 .text          0x0000000008013128      0x424 /usr/bin/../lib/gcc/arm-none-eabi/4.9.3/armv7-m/libgcc.a(_arm_muldivdf3.o)
                0x0000000008013128                __aeabi_dmul
                0x0000000008013128                __muldf3
                0x000000000801337c                __aeabi_ddiv
                0x000000000801337c                __divdf3
 .text          0x000000000801354c       0xa0 /usr/bin/../lib/gcc/arm-none-eabi/4.9.3/armv7-m/libgcc.a(_arm_truncdfsf2.o)
                0x000000000801354c                __aeabi_d2f
                0x000000000801354c                __truncdfsf2
 *(.text*)
 .text.Reset_Handler
                0x00000000080135ec       0xa0 obj/main/CC3D/startup_stm32f10x_md_gcc.o
                0x00000000080135ec                Reset_Handler
 .text.Default_Handler
                0x000000000801368c        0x2 obj/main/CC3D/startup_stm32f10x_md_gcc.o
                0x000000000801368c                EXTI2_IRQHandler
                0x000000000801368c                PVD_IRQHandler
                0x000000000801368c                EXTI0_IRQHandler
                0x000000000801368c                ADC1_2_IRQHandler
                0x000000000801368c                SPI1_IRQHandler
                0x000000000801368c                TAMPER_IRQHandler
                0x000000000801368c                RTC_IRQHandler
                0x000000000801368c                CAN1_RX1_IRQHandler
                0x000000000801368c                RCC_IRQHandler
                0x000000000801368c                TIM1_TRG_COM_IRQHandler
                0x000000000801368c                DMA1_Channel1_IRQHandler
                0x000000000801368c                Default_Handler
                0x000000000801368c                EXTI9_5_IRQHandler
                0x000000000801368c                SPI2_IRQHandler
                0x000000000801368c                DMA1_Channel5_IRQHandler
                0x000000000801368c                EXTI4_IRQHandler
                0x000000000801368c                USB_HP_CAN1_TX_IRQHandler
                0x000000000801368c                WWDG_IRQHandler
                0x000000000801368c                TIM1_BRK_IRQHandler
                0x000000000801368c                EXTI1_IRQHandler
                0x000000000801368c                RTCAlarm_IRQHandler
                0x000000000801368c                USART2_IRQHandler
                0x000000000801368c                CAN1_SCE_IRQHandler
                0x000000000801368c                FLASH_IRQHandler
 *fill*         0x000000000801368e        0x2 
 .text.startup  0x0000000008013690     0x2304 /tmp/ccZkfwo0.ltrans0.ltrans.o
                0x0000000008013690                main
 .text.unlikely
                0x0000000008015994      0x124 /tmp/ccZkfwo0.ltrans7.ltrans.o
                0x0000000008015994                Standard_ClearFeature
 .text.unlikely
                0x0000000008015ab8       0x78 /tmp/ccZkfwo0.ltrans24.ltrans.o
                0x0000000008015ab8                createExBusMessage.constprop.114
                0x0000000008015af8                calcCRC8.constprop.113
 .text.memcmp   0x0000000008015b30       0x20 /usr/bin/../lib/gcc/arm-none-eabi/4.9.3/../../../../arm-none-eabi/lib/armv7-m/libg_nano.a(lib_a-memcmp.o)
                0x0000000008015b30                memcmp
 .text.memcpy   0x0000000008015b50       0x16 /usr/bin/../lib/gcc/arm-none-eabi/4.9.3/../../../../arm-none-eabi/lib/armv7-m/libg_nano.a(lib_a-memcpy.o)
                0x0000000008015b50                memcpy
 .text.memmove  0x0000000008015b66       0x36 /usr/bin/../lib/gcc/arm-none-eabi/4.9.3/../../../../arm-none-eabi/lib/armv7-m/libg_nano.a(lib_a-memmove.o)
                0x0000000008015b66                memmove
 .text.memset   0x0000000008015b9c       0x10 /usr/bin/../lib/gcc/arm-none-eabi/4.9.3/../../../../arm-none-eabi/lib/armv7-m/libg_nano.a(lib_a-memset.o)
                0x0000000008015b9c                memset
 .text.strcasecmp
                0x0000000008015bac       0x3c /usr/bin/../lib/gcc/arm-none-eabi/4.9.3/../../../../arm-none-eabi/lib/armv7-m/libg_nano.a(lib_a-strcasecmp.o)
                0x0000000008015bac                strcasecmp
 .text.strcat   0x0000000008015be8       0x1e /usr/bin/../lib/gcc/arm-none-eabi/4.9.3/../../../../arm-none-eabi/lib/armv7-m/libg_nano.a(lib_a-strcat.o)
                0x0000000008015be8                strcat
 .text.strchr   0x0000000008015c06       0x1c /usr/bin/../lib/gcc/arm-none-eabi/4.9.3/../../../../arm-none-eabi/lib/armv7-m/libg_nano.a(lib_a-strchr.o)
                0x0000000008015c06                strchr
 .text.strlen   0x0000000008015c22       0x10 /usr/bin/../lib/gcc/arm-none-eabi/4.9.3/../../../../arm-none-eabi/lib/armv7-m/libg_nano.a(lib_a-strlen.o)
                0x0000000008015c22                strlen
 *fill*         0x0000000008015c32        0x2 
 .text.strncasecmp
                0x0000000008015c34       0x44 /usr/bin/../lib/gcc/arm-none-eabi/4.9.3/../../../../arm-none-eabi/lib/armv7-m/libg_nano.a(lib_a-strncasecmp.o)
                0x0000000008015c34                strncasecmp
 .text.strncpy  0x0000000008015c78       0x24 /usr/bin/../lib/gcc/arm-none-eabi/4.9.3/../../../../arm-none-eabi/lib/armv7-m/libg_nano.a(lib_a-strncpy.o)
                0x0000000008015c78                strncpy
 .text.strstr   0x0000000008015c9c       0x30 /usr/bin/../lib/gcc/arm-none-eabi/4.9.3/../../../../arm-none-eabi/lib/armv7-m/libg_nano.a(lib_a-strstr.o)
                0x0000000008015c9c                strstr
 .text.atoi     0x0000000008015ccc        0x8 /usr/bin/../lib/gcc/arm-none-eabi/4.9.3/../../../../arm-none-eabi/lib/armv7-m/libc_nano.a(lib_a-atoi.o)
                0x0000000008015ccc                atoi
 .text.strtok   0x0000000008015cd4       0x64 /usr/bin/../lib/gcc/arm-none-eabi/4.9.3/../../../../arm-none-eabi/lib/armv7-m/libc_nano.a(lib_a-strtok.o)
                0x0000000008015cd4                strtok
 .text.__strtok_r
                0x0000000008015d38       0x56 /usr/bin/../lib/gcc/arm-none-eabi/4.9.3/../../../../arm-none-eabi/lib/armv7-m/libc_nano.a(lib_a-strtok_r.o)
                0x0000000008015d38                __strtok_r
 .text.strtok_r
                0x0000000008015d8e        0x6 /usr/bin/../lib/gcc/arm-none-eabi/4.9.3/../../../../arm-none-eabi/lib/armv7-m/libc_nano.a(lib_a-strtok_r.o)
                0x0000000008015d8e                strtok_r
 .text._strtol_r
                0x0000000008015d94      0x10c /usr/bin/../lib/gcc/arm-none-eabi/4.9.3/../../../../arm-none-eabi/lib/armv7-m/libc_nano.a(lib_a-strtol.o)
                0x0000000008015d94                _strtol_r
 .text.strtol   0x0000000008015ea0       0x1c /usr/bin/../lib/gcc/arm-none-eabi/4.9.3/../../../../arm-none-eabi/lib/armv7-m/libc_nano.a(lib_a-strtol.o)
                0x0000000008015ea0                strtol
 .text.malloc   0x0000000008015ebc       0x10 /usr/bin/../lib/gcc/arm-none-eabi/4.9.3/../../../../arm-none-eabi/lib/armv7-m/libc_nano.a(lib_a-malloc.o)
                0x0000000008015ebc                malloc
 .text._malloc_r
                0x0000000008015ecc       0xac /usr/bin/../lib/gcc/arm-none-eabi/4.9.3/../../../../arm-none-eabi/lib/armv7-m/libc_nano.a(lib_a-nano-mallocr.o)
                0x0000000008015ecc                _malloc_r
 .text._sbrk_r  0x0000000008015f78       0x20 /usr/bin/../lib/gcc/arm-none-eabi/4.9.3/../../../../arm-none-eabi/lib/armv7-m/libc_nano.a(lib_a-sbrkr.o)
                0x0000000008015f78                _sbrk_r
 .text._sbrk    0x0000000008015f98       0x1c /usr/bin/../lib/gcc/arm-none-eabi/4.9.3/../../../../arm-none-eabi/lib/armv7-m/libnosys.a(sbrk.o)
                0x0000000008015f98                _sbrk
 .text.cosf     0x0000000008015fb4       0x6c /usr/bin/../lib/gcc/arm-none-eabi/4.9.3/../../../../arm-none-eabi/lib/armv7-m/libm.a(lib_a-sf_cos.o)
                0x0000000008015fb4                cosf
 .text.lrintf   0x0000000008016020       0x78 /usr/bin/../lib/gcc/arm-none-eabi/4.9.3/../../../../arm-none-eabi/lib/armv7-m/libm.a(lib_a-sf_lrint.o)
                0x0000000008016020                lrintf
 .text.sinf     0x0000000008016098       0x7c /usr/bin/../lib/gcc/arm-none-eabi/4.9.3/../../../../arm-none-eabi/lib/armv7-m/libm.a(lib_a-sf_sin.o)
                0x0000000008016098                sinf
 .text.acosf    0x0000000008016114       0xa0 /usr/bin/../lib/gcc/arm-none-eabi/4.9.3/../../../../arm-none-eabi/lib/armv7-m/libm.a(lib_a-wf_acos.o)
                0x0000000008016114                acosf
 .text.atan2f   0x00000000080161b4        0x4 /usr/bin/../lib/gcc/arm-none-eabi/4.9.3/../../../../arm-none-eabi/lib/armv7-m/libm.a(lib_a-wf_atan2.o)
                0x00000000080161b4                atan2f
 .text.sqrtf    0x00000000080161b8       0x9c /usr/bin/../lib/gcc/arm-none-eabi/4.9.3/../../../../arm-none-eabi/lib/armv7-m/libm.a(lib_a-wf_sqrt.o)
                0x00000000080161b8                sqrtf
 .text.__ieee754_acosf
                0x0000000008016254      0x2d0 /usr/bin/../lib/gcc/arm-none-eabi/4.9.3/../../../../arm-none-eabi/lib/armv7-m/libm.a(lib_a-ef_acos.o)
                0x0000000008016254                __ieee754_acosf
 .text.__ieee754_atan2f
                0x0000000008016524      0x120 /usr/bin/../lib/gcc/arm-none-eabi/4.9.3/../../../../arm-none-eabi/lib/armv7-m/libm.a(lib_a-ef_atan2.o)
                0x0000000008016524                __ieee754_atan2f
 .text.__ieee754_rem_pio2f
                0x0000000008016644      0x2e4 /usr/bin/../lib/gcc/arm-none-eabi/4.9.3/../../../../arm-none-eabi/lib/armv7-m/libm.a(lib_a-ef_rem_pio2.o)
                0x0000000008016644                __ieee754_rem_pio2f
 .text.__ieee754_sqrtf
                0x0000000008016928       0xa8 /usr/bin/../lib/gcc/arm-none-eabi/4.9.3/../../../../arm-none-eabi/lib/armv7-m/libm.a(lib_a-ef_sqrt.o)
                0x0000000008016928                __ieee754_sqrtf
 .text.__kernel_cosf
                0x00000000080169d0      0x188 /usr/bin/../lib/gcc/arm-none-eabi/4.9.3/../../../../arm-none-eabi/lib/armv7-m/libm.a(lib_a-kf_cos.o)
                0x00000000080169d0                __kernel_cosf
 .text.__kernel_rem_pio2f
                0x0000000008016b58      0x674 /usr/bin/../lib/gcc/arm-none-eabi/4.9.3/../../../../arm-none-eabi/lib/armv7-m/libm.a(lib_a-kf_rem_pio2.o)
                0x0000000008016b58                __kernel_rem_pio2f
 .text.__kernel_sinf
                0x00000000080171cc       0xec /usr/bin/../lib/gcc/arm-none-eabi/4.9.3/../../../../arm-none-eabi/lib/armv7-m/libm.a(lib_a-kf_sin.o)
                0x00000000080171cc                __kernel_sinf
 .text.matherr  0x00000000080172b8        0x4 /usr/bin/../lib/gcc/arm-none-eabi/4.9.3/../../../../arm-none-eabi/lib/armv7-m/libm.a(lib_a-s_matherr.o)
                0x00000000080172b8                matherr
 .text.nan      0x00000000080172bc        0xc /usr/bin/../lib/gcc/arm-none-eabi/4.9.3/../../../../arm-none-eabi/lib/armv7-m/libm.a(lib_a-s_nan.o)
                0x00000000080172bc                nan
 .text.atanf    0x00000000080172c8      0x22c /usr/bin/../lib/gcc/arm-none-eabi/4.9.3/../../../../arm-none-eabi/lib/armv7-m/libm.a(lib_a-sf_atan.o)
                0x00000000080172c8                atanf
 .text.fabsf    0x00000000080174f4        0x8 /usr/bin/../lib/gcc/arm-none-eabi/4.9.3/../../../../arm-none-eabi/lib/armv7-m/libm.a(lib_a-sf_fabs.o)
                0x00000000080174f4                fabsf
 .text.floorf   0x00000000080174fc       0x8c /usr/bin/../lib/gcc/arm-none-eabi/4.9.3/../../../../arm-none-eabi/lib/armv7-m/libm.a(lib_a-sf_floor.o)
                0x00000000080174fc                floorf
 .text.__fpclassifyf
                0x0000000008017588       0x34 /usr/bin/../lib/gcc/arm-none-eabi/4.9.3/../../../../arm-none-eabi/lib/armv7-m/libm.a(lib_a-sf_fpclassify.o)
                0x0000000008017588                __fpclassifyf
 .text.scalbnf  0x00000000080175bc       0xb0 /usr/bin/../lib/gcc/arm-none-eabi/4.9.3/../../../../arm-none-eabi/lib/armv7-m/libm.a(lib_a-sf_scalbn.o)
                0x00000000080175bc                scalbnf
 .text.copysignf
                0x000000000801766c        0xc /usr/bin/../lib/gcc/arm-none-eabi/4.9.3/../../../../arm-none-eabi/lib/armv7-m/libm.a(lib_a-sf_copysign.o)
                0x000000000801766c                copysignf
 .text.__errno  0x0000000008017678        0xc /usr/bin/../lib/gcc/arm-none-eabi/4.9.3/../../../../arm-none-eabi/lib/armv7-m/libc_nano.a(lib_a-errno.o)
                0x0000000008017678                __errno
 *(.rodata)
 .rodata        0x0000000008017684      0x118 /tmp/ccZkfwo0.ltrans0.ltrans.o
                0x00000000080176d4                hsv_white
 .rodata        0x000000000801779c      0x1bf /tmp/ccZkfwo0.ltrans1.ltrans.o
 *fill*         0x000000000801795b        0x1 
 .rodata        0x000000000801795c      0x268 /tmp/ccZkfwo0.ltrans2.ltrans.o
 .rodata        0x0000000008017bc4       0x3c /tmp/ccZkfwo0.ltrans3.ltrans.o
 .rodata        0x0000000008017c00       0x18 /tmp/ccZkfwo0.ltrans5.ltrans.o
 .rodata        0x0000000008017c18       0x28 /tmp/ccZkfwo0.ltrans6.ltrans.o
 .rodata        0x0000000008017c40       0x14 /tmp/ccZkfwo0.ltrans7.ltrans.o
 .rodata        0x0000000008017c54       0x28 /tmp/ccZkfwo0.ltrans8.ltrans.o
 .rodata        0x0000000008017c7c       0x32 /tmp/ccZkfwo0.ltrans9.ltrans.o
                0x0000000008017c7c                hsv_green
                0x0000000008017c80                hsv_red
                0x0000000008017c84                hsv_yellow
                0x0000000008017c88                hsv_blue
                0x0000000008017caa                hsv_orange
 *fill*         0x0000000008017cae        0x2 
 .rodata        0x0000000008017cb0      0x50c /tmp/ccZkfwo0.ltrans10.ltrans.o
                0x0000000008017cbc                mixerQuadX1234.lto_priv.526
                0x0000000008017cfc                mixerAtail4.lto_priv.525
                0x0000000008017d3c                mixerDualcopter.lto_priv.524
                0x0000000008017d5c                mixerHex6H.lto_priv.523
                0x0000000008017dbc                mixerVtail4.lto_priv.522
                0x0000000008017dfc                mixerOctoFlatX.lto_priv.521
                0x0000000008017e7c                mixerOctoFlatP.lto_priv.520
                0x0000000008017efc                mixerOctoX8.lto_priv.519
                0x0000000008017f7c                mixerHex6X.lto_priv.518
                0x0000000008017fdc                mixerY4.lto_priv.517
                0x000000000801801c                mixerSingleProp.lto_priv.516
                0x000000000801802c                mixerHex6P.lto_priv.515
                0x000000000801808c                mixerY6.lto_priv.514
                0x00000000080180ec                mixerBicopter.lto_priv.513
                0x000000000801810c                mixerQuadX.lto_priv.512
                0x000000000801814c                mixerQuadP.lto_priv.511
                0x000000000801818c                mixerTricopter.lto_priv.510
 .rodata        0x00000000080181bc      0x217 /tmp/ccZkfwo0.ltrans11.ltrans.o
                0x0000000008018218                servoMixers
                0x0000000008018316                servoMixerSingle.lto_priv.533
                0x000000000801834e                servoMixerDual.lto_priv.532
                0x000000000801835c                servoMixerAirplane.lto_priv.531
                0x000000000801837f                servoMixerFlyingWing.lto_priv.530
                0x00000000080183a2                servoMixerGimbal.lto_priv.529
                0x00000000080183b0                servoMixerBI.lto_priv.528
                0x00000000080183cc                servoMixerTri.lto_priv.527
 *fill*         0x00000000080183d3        0x1 
 .rodata        0x00000000080183d4       0x28 /tmp/ccZkfwo0.ltrans13.ltrans.o
 .rodata        0x00000000080183fc       0xc4 /tmp/ccZkfwo0.ltrans14.ltrans.o
 .rodata        0x00000000080184c0       0x28 /tmp/ccZkfwo0.ltrans15.ltrans.o
 .rodata        0x00000000080184e8      0xe08 /tmp/ccZkfwo0.ltrans16.ltrans.o
                0x00000000080185c8                valueTable
                0x0000000008019158                lookupTables.lto_priv.201
                0x00000000080191c8                lookupTableSuperExpoYaw.lto_priv.237
                0x00000000080191d4                lookupTableDebug.lto_priv.236
                0x00000000080191f0                lookupTableMagHardware.lto_priv.235
                0x0000000008019204                lookupTableBaroHardware.lto_priv.234
                0x0000000008019218                lookupTableAccHardware.lto_priv.233
                0x0000000008019240                lookupTableGyroLpf.lto_priv.232
                0x0000000008019260                lookupTableSerialRX.lto_priv.231
                0x0000000008019284                lookupTablePidController.lto_priv.230
                0x0000000008019290                lookupTableGimbalMode.lto_priv.229
                0x0000000008019298                lookupTableCurrentSensor.lto_priv.228
                0x00000000080192a4                lookupTableBlackboxDevice.lto_priv.227
                0x00000000080192b0                lookupTableAlignment.lto_priv.226
                0x00000000080192d4                lookupTableUnit.lto_priv.225
                0x00000000080192dc                lookupTableOffOn.lto_priv.224
                0x00000000080192e4                shortGitRevision
                0x00000000080192e8                buildTime
                0x00000000080192ec                buildDate
 .rodata        0x00000000080192f0       0x3a /tmp/ccZkfwo0.ltrans17.ltrans.o
                0x0000000008019328                Device_Table
 *fill*         0x000000000801932a        0x2 
 .rodata        0x000000000801932c       0xbf /tmp/ccZkfwo0.ltrans24.ltrans.o
                0x000000000801932c                baudRates
                0x000000000801934c                Virtual_Com_Port_ConfigDescriptor
 *fill*         0x00000000080193eb        0x1 
 .rodata        0x00000000080193ec      0x1bf /tmp/ccZkfwo0.ltrans25.ltrans.o
                0x00000000080193ec                mixerNames.lto_priv.242
                0x0000000008019458                cmdTable
                0x0000000008019550                beep_armedBeep.lto_priv.257
                0x0000000008019555                beep_disarmRepeatBeep.lto_priv.256
                0x0000000008019559                beep_readyBeep.lto_priv.255
                0x0000000008019568                beep_2longerBeeps.lto_priv.254
                0x000000000801956d                beep_2shortBeeps.lto_priv.253
                0x0000000008019572                beep_shortBeep.lto_priv.252
                0x0000000008019575                beep_lowBatteryBeep.lto_priv.250
                0x0000000008019578                beep_critBatteryBeep.lto_priv.249
                0x000000000801957b                beep_armedGpsFix.lto_priv.248
                0x0000000008019584                beep_armingBeep.lto_priv.247
                0x0000000008019589                beep_disarmBeep.lto_priv.246
                0x000000000801958e                beep_sos.lto_priv.245
                0x00000000080195a1                beep_txLostBeep.lto_priv.244
                0x00000000080195a4                beep_gyroCalibrated.lto_priv.243
 *(.rodata*)
 *fill*         0x00000000080195ab        0x1 
 .rodata.timerHardware
                0x00000000080195ac       0xc0 /tmp/ccZkfwo0.ltrans0.ltrans.o
                0x00000000080195ac                timerHardware
 .rodata.str1.1
                0x000000000801966c      0x19a /tmp/ccZkfwo0.ltrans1.ltrans.o
                                        0x19d (size before relaxing)
 .rodata.str1.1
                0x0000000008019806      0x427 /tmp/ccZkfwo0.ltrans2.ltrans.o
                                        0x466 (size before relaxing)
 *fill*         0x0000000008019c2d        0x1 
 .rodata.frSkyDataIdTable
                0x0000000008019c2e       0x22 /tmp/ccZkfwo0.ltrans4.ltrans.o
 .rodata.str1.1
                0x0000000008019c50       0x4f /tmp/ccZkfwo0.ltrans4.ltrans.o
                                         0x57 (size before relaxing)
 .rodata.exDataTypeLen
                0x0000000008019c9f        0xa /tmp/ccZkfwo0.ltrans4.ltrans.o
 .rodata.str1.1
                0x0000000008019ca9       0x33 /tmp/ccZkfwo0.ltrans5.ltrans.o
                                         0x36 (size before relaxing)
 .rodata.hsv_black
                0x0000000008019cdc        0x4 /tmp/ccZkfwo0.ltrans9.ltrans.o
                0x0000000008019cdc                hsv_black
 .rodata.mixers
                0x0000000008019ce0       0xd8 /tmp/ccZkfwo0.ltrans10.ltrans.o
                0x0000000008019ce0                mixers
 .rodata.str1.1
                0x0000000008019db8      0x212 /tmp/ccZkfwo0.ltrans10.ltrans.o
                                        0x22b (size before relaxing)
 .rodata.str1.1
                0x0000000008019fca      0x445 /tmp/ccZkfwo0.ltrans11.ltrans.o
                                        0x499 (size before relaxing)
 .rodata.str1.1
                0x000000000801a40f        0x9 /tmp/ccZkfwo0.ltrans14.ltrans.o
 .rodata.str1.1
                0x000000000801a418      0xc2d /tmp/ccZkfwo0.ltrans16.ltrans.o
                                        0xcc6 (size before relaxing)
 .rodata.str1.1
                0x000000000801b045       0x27 /tmp/ccZkfwo0.ltrans18.ltrans.o
 .rodata.str1.1
                0x000000000801b06c        0xb /tmp/ccZkfwo0.ltrans21.ltrans.o
 .rodata.Virtual_Com_Port_DeviceDescriptor
                0x000000000801b077       0x12 /tmp/ccZkfwo0.ltrans24.ltrans.o
 .rodata.serialPortIdentifiers
                0x000000000801b089        0x4 /tmp/ccZkfwo0.ltrans24.ltrans.o
                0x000000000801b089                serialPortIdentifiers
 .rodata.str1.1
                0x0000000000000000        0xf /tmp/ccZkfwo0.ltrans24.ltrans.o
 .rodata.rcChannelLetters
                0x000000000801b08d       0x15 /tmp/ccZkfwo0.ltrans24.ltrans.o
                0x000000000801b08d                rcChannelLetters
 .rodata.str1.1
                0x000000000801b0a2      0x359 /tmp/ccZkfwo0.ltrans25.ltrans.o
                                        0x3f9 (size before relaxing)
 *fill*         0x000000000801b3fb        0x1 
 .rodata.beeperTable
                0x000000000801b3fc       0xf0 /tmp/ccZkfwo0.ltrans25.ltrans.o
                0x000000000801b3fc                beeperTable
 .rodata._ctype_
                0x000000000801b4ec      0x101 /usr/bin/../lib/gcc/arm-none-eabi/4.9.3/../../../../arm-none-eabi/lib/armv7-m/libc_nano.a(lib_a-ctype_.o)
                0x000000000801b4ec                _ctype_
 .rodata.str1.1
                0x0000000000000000        0x0 /usr/bin/../lib/gcc/arm-none-eabi/4.9.3/../../../../arm-none-eabi/lib/armv7-m/libc_nano.a(lib_a-impure.o)
                                          0x2 (size before relaxing)
 *fill*         0x000000000801b5ed        0x3 
 .rodata.TWO23  0x000000000801b5f0        0x8 /usr/bin/../lib/gcc/arm-none-eabi/4.9.3/../../../../arm-none-eabi/lib/armv7-m/libm.a(lib_a-sf_lrint.o)
 .rodata.str1.4
                0x000000000801b5f8        0x9 /usr/bin/../lib/gcc/arm-none-eabi/4.9.3/../../../../arm-none-eabi/lib/armv7-m/libm.a(lib_a-wf_acos.o)
 *fill*         0x000000000801b601        0x3 
 .rodata.str1.4
                0x000000000801b604        0x8 /usr/bin/../lib/gcc/arm-none-eabi/4.9.3/../../../../arm-none-eabi/lib/armv7-m/libm.a(lib_a-wf_sqrt.o)
                                          0x6 (size before relaxing)
 .rodata.npio2_hw
                0x000000000801b60c       0x80 /usr/bin/../lib/gcc/arm-none-eabi/4.9.3/../../../../arm-none-eabi/lib/armv7-m/libm.a(lib_a-ef_rem_pio2.o)
 .rodata.two_over_pi
                0x000000000801b68c      0x318 /usr/bin/../lib/gcc/arm-none-eabi/4.9.3/../../../../arm-none-eabi/lib/armv7-m/libm.a(lib_a-ef_rem_pio2.o)
 .rodata.init_jk
                0x000000000801b9a4        0xc /usr/bin/../lib/gcc/arm-none-eabi/4.9.3/../../../../arm-none-eabi/lib/armv7-m/libm.a(lib_a-kf_rem_pio2.o)
 .rodata.PIo2   0x000000000801b9b0       0x2c /usr/bin/../lib/gcc/arm-none-eabi/4.9.3/../../../../arm-none-eabi/lib/armv7-m/libm.a(lib_a-kf_rem_pio2.o)
 .rodata.atanlo
                0x000000000801b9dc       0x10 /usr/bin/../lib/gcc/arm-none-eabi/4.9.3/../../../../arm-none-eabi/lib/armv7-m/libm.a(lib_a-sf_atan.o)
 .rodata.atanhi
                0x000000000801b9ec       0x10 /usr/bin/../lib/gcc/arm-none-eabi/4.9.3/../../../../arm-none-eabi/lib/armv7-m/libm.a(lib_a-sf_atan.o)
 *(.glue_7)
 .glue_7        0x0000000000000000        0x0 linker stubs
 *(.glue_7t)
 .glue_7t       0x0000000000000000        0x0 linker stubs
 *(.eh_frame)
 *(.init)
 *(.fini)
                0x000000000801b9fc                . = ALIGN (0x4)
                0x000000000801b9fc                _etext = .

.vfp11_veneer   0x000000000801b9fc        0x0
 .vfp11_veneer  0x0000000000000000        0x0 linker stubs

.v4_bx          0x000000000801b9fc        0x0
 .v4_bx         0x0000000000000000        0x0 linker stubs

.iplt           0x000000000801b9fc        0x0
 .iplt          0x0000000000000000        0x0 obj/main/CC3D/startup_stm32f10x_md_gcc.o

.ARM.extab
 *(.ARM.extab* .gnu.linkonce.armextab.*)

.ARM            0x000000000801b9fc        0x8
                0x000000000801b9fc                __exidx_start = .
 *(.ARM.exidx*)
 .ARM.exidx     0x000000000801b9fc        0x8 /usr/bin/../lib/gcc/arm-none-eabi/4.9.3/armv7-m/libgcc.a(_divdi3.o)
 .ARM.exidx     0x000000000801ba04        0x0 /usr/bin/../lib/gcc/arm-none-eabi/4.9.3/armv7-m/libgcc.a(_udivdi3.o)
                                          0x8 (size before relaxing)
                0x000000000801ba04                __exidx_end = .

.rel.dyn        0x000000000801ba04        0x0
 .rel.iplt      0x0000000000000000        0x0 obj/main/CC3D/startup_stm32f10x_md_gcc.o

.preinit_array  0x000000000801ba04        0x0
                0x000000000801ba04                PROVIDE (__preinit_array_start, .)
 *(.preinit_array*)
                0x000000000801ba04                PROVIDE (__preinit_array_end, .)

.init_array     0x000000000801ba04        0x0
                0x000000000801ba04                PROVIDE (__init_array_start, .)
 *(SORT(.init_array.*))
 *(.init_array*)
                0x000000000801ba04                PROVIDE (__init_array_end, .)

.fini_array     0x000000000801ba04        0x0
                0x000000000801ba04                PROVIDE (__fini_array_start, .)
 *(.fini_array*)
 *(SORT(.fini_array.*))
                0x000000000801ba04                PROVIDE (__fini_array_end, .)
                0x000000000801ba04                _sidata = .

.data           0x0000000020000000      0x418 load address 0x000000000801ba04
                0x0000000020000000                . = ALIGN (0x4)
                0x0000000020000000                _sdata = .
 *(.data)
 .data          0x0000000020000000        0x8 /tmp/ccZkfwo0.ltrans3.ltrans.o
                0x0000000020000000                rxIsInFailsafeMode.lto_priv.327
                0x0000000020000001                rxIsInFailsafeModeNotDataDriven.lto_priv.329
                0x0000000020000002                isUsingSticksToArm.lto_priv.368
 .data          0x0000000020000008       0x76 /tmp/ccZkfwo0.ltrans4.ltrans.o
                0x0000000020000008                acc_1G
 *fill*         0x000000002000007e        0x2 
 .data          0x0000000020000080        0x5 /tmp/ccZkfwo0.ltrans7.ltrans.o
                0x0000000020000080                hse_value
                0x0000000020000084                standardBoardAlignment.lto_priv.488
 *fill*         0x0000000020000085        0x3 
 .data          0x0000000020000088       0x24 /tmp/ccZkfwo0.ltrans8.ltrans.o
 .data          0x00000000200000ac        0x3 /tmp/ccZkfwo0.ltrans9.ltrans.o
 *fill*         0x00000000200000af        0x1 
 .data          0x00000000200000b0       0x10 /tmp/ccZkfwo0.ltrans11.ltrans.o
                0x00000000200000b0                geometry.lto_priv.375
 .data          0x00000000200000c0        0xc /tmp/ccZkfwo0.ltrans15.ltrans.o
 .data          0x00000000200000cc        0x8 /tmp/ccZkfwo0.ltrans19.ltrans.o
                0x00000000200000cc                pwmMotorsEnabled.lto_priv.364
                0x00000000200000d0                q0.lto_priv.410
 .data          0x00000000200000d4       0x56 /tmp/ccZkfwo0.ltrans24.ltrans.o
                0x000000002000010c                rcReadRawFunc.lto_priv.321
                0x0000000020000110                Virtual_Com_Port_StringSerial
 *fill*         0x000000002000012a        0x2 
 .data          0x000000002000012c        0x4 /tmp/ccZkfwo0.ltrans25.ltrans.o
 .data          0x0000000020000130       0x30 /tmp/ccZkfwo0.ltrans26.ltrans.o
                0x0000000020000130                Device_Property
 *(.data*)
 .data.pid_controller
                0x0000000020000160        0x4 /tmp/ccZkfwo0.ltrans1.ltrans.o
                0x0000000020000160                pid_controller
 .data.batteryCellCount
                0x0000000020000164        0x1 /tmp/ccZkfwo0.ltrans16.ltrans.o
                0x0000000020000164                batteryCellCount
 .data.detectedSensors
                0x0000000020000165        0x4 /tmp/ccZkfwo0.ltrans16.ltrans.o
                0x0000000020000165                detectedSensors
 *fill*         0x0000000020000169        0x3 
 .data.SystemCoreClock
                0x000000002000016c        0x4 /tmp/ccZkfwo0.ltrans16.ltrans.o
                0x000000002000016c                SystemCoreClock
 .data.cfTasks  0x0000000020000170      0x23c /tmp/ccZkfwo0.ltrans16.ltrans.o
                0x0000000020000170                cfTasks
 .data.__ctype_ptr__
                0x00000000200003ac        0x4 /usr/bin/../lib/gcc/arm-none-eabi/4.9.3/../../../../arm-none-eabi/lib/armv7-m/libc_nano.a(lib_a-ctype_.o)
                0x00000000200003ac                __ctype_ptr__
 .data.impure_data
                0x00000000200003b0       0x60 /usr/bin/../lib/gcc/arm-none-eabi/4.9.3/../../../../arm-none-eabi/lib/armv7-m/libc_nano.a(lib_a-impure.o)
 .data._impure_ptr
                0x0000000020000410        0x4 /usr/bin/../lib/gcc/arm-none-eabi/4.9.3/../../../../arm-none-eabi/lib/armv7-m/libc_nano.a(lib_a-impure.o)
                0x0000000020000410                _impure_ptr
 .data.__fdlib_version
                0x0000000020000414        0x1 /usr/bin/../lib/gcc/arm-none-eabi/4.9.3/../../../../arm-none-eabi/lib/armv7-m/libm.a(lib_a-s_lib_ver.o)
                0x0000000020000414                __fdlib_version
                0x0000000020000418                . = ALIGN (0x4)
 *fill*         0x0000000020000415        0x3 
                0x0000000020000418                _edata = .

.igot.plt       0x0000000020000418        0x0 load address 0x000000000801be1c
 .igot.plt      0x0000000000000000        0x0 obj/main/CC3D/startup_stm32f10x_md_gcc.o
                0x0000000020000418                . = ALIGN (0x4)

.bss            0x0000000020000418     0x2754 load address 0x000000000801be1c
                0x0000000020000418                _sbss = .
                0x0000000020000418                __bss_start__ = _sbss
 *(.bss)
 .bss           0x0000000020000418      0x4f0 /tmp/ccZkfwo0.ltrans0.ltrans.o
                0x0000000020000418                stdout_putf.lto_priv.540
                0x000000002000041c                stdout_putp.lto_priv.539
                0x000000002000043c                inputFilteringMode.lto_priv.578
                0x0000000020000440                ppmDev
                0x0000000020000568                servos.lto_priv.580
                0x000000002000058c                mpuConfiguration
                0x0000000020000598                mpuIntExtiConfig.lto_priv.595
                0x000000002000059c                mpuDividerDrops.lto_priv.594
                0x00000000200005a0                hmc5883Config.lto_priv.581
                0x00000000200005ac                ledStripDMABuffer
                0x00000000200008d8                telemetryConfig.lto_priv.447
                0x00000000200008dc                portConfig.lto_priv.449
                0x00000000200008e0                frskyPortSharing.lto_priv.573
                0x00000000200008e1                hottPortSharing.lto_priv.571
                0x00000000200008e4                portConfig.lto_priv.451
                0x00000000200008e8                smartPortPortSharing.lto_priv.568
                0x00000000200008f0                portConfig.lto_priv.452
                0x00000000200008f4                ltmPortSharing.lto_priv.566
                0x00000000200008f5                couldBeBusy.lto_priv.576
                0x00000000200008f8                tailAddress.lto_priv.550
                0x0000000020000900                totalWaitingTasksSamples.lto_priv.536
                0x0000000020000904                totalWaitingTasks.lto_priv.537
 .bss           0x0000000020000908       0x99 /tmp/ccZkfwo0.ltrans1.ltrans.o
                0x0000000020000908                printfSerialPort.lto_priv.538
                0x0000000020000928                servo
                0x0000000020000938                serialPortCount.lto_priv.506
                0x000000002000093c                pwmOutputConfiguration.lto_priv.494
 *fill*         0x00000000200009a1        0x3 
 .bss           0x00000000200009a4      0x215 /tmp/ccZkfwo0.ltrans2.ltrans.o
                0x00000000200009a4                currentTask.lto_priv.441
                0x00000000200009ae                rxRefreshRate.lto_priv.458
                0x00000000200009c4                throttleAngleScale
                0x00000000200009c8                blackboxPort.lto_priv.439
                0x00000000200009cc                blackboxHeaderBudget
                0x00000000200009d0                blackboxMaxHeaderBytesPerIteration.lto_priv.437
                0x00000000200009d4                xmitState.lto_priv.435
                0x00000000200009dc                blackboxConditionCache.lto_priv.432
                0x00000000200009e0                vbatReference.lto_priv.428
                0x00000000200009e2                blackboxSlowFrameIterationTimer.lto_priv.436
                0x00000000200009e4                blackboxPFrameIndex.lto_priv.431
                0x00000000200009e8                blackboxIteration.lto_priv.430
                0x00000000200009ec                blackboxModeActivationConditionPresent.lto_priv.429
                0x00000000200009ed                blackboxPortSharing.lto_priv.438
                0x00000000200009ee                gyroAlign
                0x00000000200009f0                gyroLpfCutFreq.lto_priv.549
                0x0000000020000a64                gyroConfig.lto_priv.548
                0x0000000020000ac0                mixerConfig.lto_priv.425
                0x0000000020000ac4                currentMixer.lto_priv.493
                0x0000000020000b88                rxConfig.lto_priv.545
                0x0000000020000b90                currentMixerMode.lto_priv.424
                0x0000000020000bb4                gimbalConfig.lto_priv.544
                0x0000000020000bb8                blackboxLoggedAnyFrames.lto_priv.434
 *fill*         0x0000000020000bb9        0x3 
 .bss           0x0000000020000bbc      0x190 /tmp/ccZkfwo0.ltrans3.ltrans.o
                0x0000000020000bbc                rxUpdateAt.lto_priv.326
                0x0000000020000be4                rxSignalReceivedNotDataDriven.lto_priv.328
                0x0000000020000c30                rcInvalidPulsPeriod
                0x0000000020000c78                rcSampleIndex.lto_priv.457
                0x0000000020000c92                rxFlightChannelsValid.lto_priv.561
                0x0000000020000cac                rxConfig.lto_priv.316
                0x0000000020000cb0                deadband3dThrottle.lto_priv.482
                0x0000000020000cc4                disarmAt.lto_priv.427
                0x0000000020000ccc                AccInflightCalibrationMeasurementDone
                0x0000000020000ccd                AccInflightCalibrationSavetoEEProm
                0x0000000020000cd0                calibratingA
                0x0000000020000cd2                InflightcalibratingA
                0x0000000020000cd4                AccInflightCalibrationActive
                0x0000000020000cd8                adjustmentStates
                0x0000000020000d0c                currentControlRateProfile
                0x0000000020000d10                escAndServoConfig.lto_priv.366
                0x0000000020000d14                pidProfile.lto_priv.367
                0x0000000020000d18                magHold
                0x0000000020000d1a                headFreeModeHold
                0x0000000020000d1c                isRXDataNew.lto_priv.419
                0x0000000020000d1e                lookupYawRC
                0x0000000020000d34                armingCalibrationWasInitialised.lto_priv.426
                0x0000000020000d38                gyro
 .bss           0x0000000020000d4c       0xb2 /tmp/ccZkfwo0.ltrans4.ltrans.o
                0x0000000020000d4c                frskyTelemetryEnabled.lto_priv.574
                0x0000000020000d58                accSmooth
                0x0000000020000d64                telemTemperature1
                0x0000000020000d68                telemetryConfig.lto_priv.293
                0x0000000020000d6c                amperage
                0x0000000020000d70                mAhDrawn
                0x0000000020000d74                hottTelemetryEnabled.lto_priv.572
                0x0000000020000d7c                hottEAMMessage.lto_priv.453
                0x0000000020000dac                telemetryConfig.lto_priv.294
                0x0000000020000db8                hottPort.lto_priv.565
                0x0000000020000dc8                portConfig.lto_priv.450
                0x0000000020000dce                smartPortTelemetryEnabled.lto_priv.569
                0x0000000020000dd0                smartPortSerialPort.lto_priv.564
                0x0000000020000dd4                smartPortState
                0x0000000020000dd8                smartPortLastRequestTime.lto_priv.570
                0x0000000020000de0                telemetryConfig.lto_priv.295
                0x0000000020000de5                ltmEnabled.lto_priv.567
                0x0000000020000de8                ltmPort.lto_priv.562
                0x0000000020000df2                rssi
                0x0000000020000df4                stateFlags
                0x0000000020000df8                jetiExBusPort.lto_priv.476
 .bss           0x0000000020000dfe        0xa /tmp/ccZkfwo0.ltrans5.ltrans.o
 .bss           0x0000000020000e08      0x324 /tmp/ccZkfwo0.ltrans6.ltrans.o
 .bss           0x000000002000112c      0x186 /tmp/ccZkfwo0.ltrans7.ltrans.o
                0x000000002000112e                jetiExBusChannelData.lto_priv.333
                0x0000000020001150                ibusChannelData.lto_priv.336
                0x0000000020001178                xBusChannelData.lto_priv.193
                0x0000000020001198                jetiExBusFramePosition.lto_priv.477
                0x0000000020001199                jetiExBusFrameLength.lto_priv.478
                0x000000002000119a                jetiExBusFrameState.lto_priv.331
                0x000000002000119b                jetiExBusRequestState.lto_priv.297
                0x00000000200011a0                jetiExBusChannelFrame.lto_priv.332
                0x00000000200011c8                jetiExBusRequestFrame.lto_priv.299
                0x00000000200011d4                jetiTimeStampRequest.lto_priv.298
                0x00000000200011dd                ibus.lto_priv.335
                0x00000000200011fd                ibusFrameDone.lto_priv.334
                0x0000000020001208                xBusFramePosition.lto_priv.466
                0x0000000020001209                xBusDataIncoming.lto_priv.465
                0x000000002000120a                xBusFrame.lto_priv.192
                0x000000002000122b                xBusFrameLength.lto_priv.467
                0x000000002000122c                xBusProvider.lto_priv.469
                0x000000002000123c                boardRotation.lto_priv.489
                0x0000000020001260                batteryConfig
                0x0000000020001264                adcConfig
                0x0000000020001274                adcValues
                0x000000002000127c                vbatLatestADC
                0x000000002000127e                debugMode
                0x0000000020001280                debug
                0x00000000200012b0                vbat
 *fill*         0x00000000200012b2        0x2 
 .bss           0x00000000200012b4      0x164 /tmp/ccZkfwo0.ltrans8.ltrans.o
                0x00000000200012b6                selected_esc
                0x00000000200012b8                escHardware
                0x0000000020001379                DeviceInfo
                0x0000000020001380                _writer.lto_priv.361
                0x0000000020001384                CRCout.lto_priv.363
                0x0000000020001388                _mspPort.lto_priv.360
                0x000000002000138c                CRC_in.lto_priv.362
                0x00000000200013e2                lookupThrottleRC
                0x00000000200013fa                lookupPitchRollRC
                0x0000000020001408                blackboxState.lto_priv.365
                0x0000000020001409                beeperIsOn.lto_priv.355
                0x000000002000140c                beeperNextToggleTime.lto_priv.285
                0x0000000020001410                beeperPos.lto_priv.284
                0x0000000020001414                currentBeeperEntry.lto_priv.283
 .bss           0x0000000020001418       0xa0 /tmp/ccZkfwo0.ltrans9.ltrans.o
                0x0000000020001418                ledStripInitialised.lto_priv.454
                0x000000002000141a                ledColorBuffer.lto_priv.455
                0x00000000200014a8                ledCount
                0x00000000200014ac                rxSignalReceived.lto_priv.313
                0x00000000200014b4                highestYValueForNorth
                0x00000000200014b5                lowestXValueForEast
                0x00000000200014b6                lowestYValueForSouth
                0x00000000200014b7                highestXValueForWest
 .bss           0x00000000200014b8        0xd /tmp/ccZkfwo0.ltrans10.ltrans.o
                0x00000000200014bc                HiLoTsh.lto_priv.269
                0x00000000200014c0                LastBitTime.lto_priv.268
                0x00000000200014c4                SeqNumber.lto_priv.270
 *fill*         0x00000000200014c5        0x3 
 .bss           0x00000000200014c8       0x40 /tmp/ccZkfwo0.ltrans11.ltrans.o
                0x00000000200014c8                cliBuffer.lto_priv.378
                0x00000000200014f8                bufferIndex.lto_priv.377
                0x00000000200014fc                colors
                0x0000000020001500                ledConfigs
                0x0000000020001504                servoConf.lto_priv.286
 .bss           0x0000000020001508        0x7 /tmp/ccZkfwo0.ltrans12.ltrans.o
 *fill*         0x000000002000150f        0x1 
 .bss           0x0000000020001510      0x4a8 /tmp/ccZkfwo0.ltrans13.ltrans.o
 .bss           0x00000000200019b8       0xaa /tmp/ccZkfwo0.ltrans14.ltrans.o
                0x00000000200019e0                bufferHead.lto_priv.554
                0x00000000200019e1                bufferTail.lto_priv.575
                0x00000000200019e2                flashWriteBuffer.lto_priv.555
 *fill*         0x0000000020001a62        0x2 
 .bss           0x0000000020001a64       0x1a /tmp/ccZkfwo0.ltrans15.ltrans.o
                0x0000000020001a64                I2Cx.lto_priv.592
                0x0000000020001a68                I2Cx_index.lto_priv.593
                0x0000000020001a6a                reading.lto_priv.586
                0x0000000020001a6c                reg.lto_priv.584
                0x0000000020001a6d                bytes.lto_priv.589
                0x0000000020001a6e                addr.lto_priv.583
                0x0000000020001a70                read_p.lto_priv.588
                0x0000000020001a74                writing.lto_priv.585
                0x0000000020001a78                write_p.lto_priv.587
                0x0000000020001a7c                busy.lto_priv.590
                0x0000000020001a7d                error.lto_priv.591
 *fill*         0x0000000020001a7e        0x2 
 .bss           0x0000000020001a80      0x284 /tmp/ccZkfwo0.ltrans16.ltrans.o
                0x0000000020001a80                spekChannelData.lto_priv.354
                0x0000000020001ab0                sumhChannels.lto_priv.340
                0x0000000020001ad0                sumdChannels.lto_priv.345
                0x0000000020001af0                sbusChannelData.lto_priv.348
                0x0000000020001b38                mspFrame.lto_priv.371
                0x0000000020001b5c                captures.lto_priv.330
                0x0000000020001b7d                spekFrame.lto_priv.350
                0x0000000020001b8d                rcFrameComplete.lto_priv.349
                0x0000000020001b99                sumhFrame.lto_priv.339
                0x0000000020001bae                sumhFrameDone.lto_priv.338
                0x0000000020001bb5                sumdFrameDone.lto_priv.341
                0x0000000020001bb6                crc.lto_priv.342
                0x0000000020001bb8                sumdChannelCount.lto_priv.343
                0x0000000020001bb9                sumd.lto_priv.344
                0x0000000020001be5                sbusFrame.lto_priv.347
                0x0000000020001bfe                sbusFrameDone.lto_priv.346
                0x0000000020001c00                taskQueueSize.lto_priv.442
                0x0000000020001c04                taskQueueArray.lto_priv.440
                0x0000000020001c34                batteryState.lto_priv.292
                0x0000000020001c36                averageSystemLoadPercent
                0x0000000020001c38                enabledSensors.lto_priv.296
                0x0000000020001c3c                acc
                0x0000000020001c48                i2cErrorCount.lto_priv.376
                0x0000000020001c4a                currentControlRateProfileIndex.lto_priv.202
                0x0000000020001c4b                xBusChannelCount.lto_priv.468
                0x0000000020001c4c                xBusFrameReceived.lto_priv.337
                0x0000000020001c50                rxConfig.lto_priv.317
                0x0000000020001c54                activeFeaturesLatch.lto_priv.272
                0x0000000020001c58                rcData
                0x0000000020001c7c                suspendRxSignalUntil.lto_priv.320
                0x0000000020001c80                skipRxSamples.lto_priv.319
                0x0000000020001c84                failsafeState.lto_priv.291
                0x0000000020001ca8                warningLedState.lto_priv.273
                0x0000000020001cac                led_config
                0x0000000020001cc4                warningLedTimer.lto_priv.311
                0x0000000020001cc8                flightModeFlags
                0x0000000020001ccc                rcModeActivationMask
                0x0000000020001cd0                activeBoxIdCount.lto_priv.373
                0x0000000020001cd1                activeBoxIds.lto_priv.374
                0x0000000020001cf0                currentPort.lto_priv.357
                0x0000000020001cf4                writer.lto_priv.358
                0x0000000020001cf8                mspSerialPort.lto_priv.359
                0x0000000020001cfc                targetLooptime
                0x0000000020001d00                currentProfile
 .bss           0x0000000020001d04       0x18 /tmp/ccZkfwo0.ltrans17.ltrans.o
                0x0000000020001d08                SaveRState
                0x0000000020001d0a                SaveTState
                0x0000000020001d0c                pUser_Standard_Requests
                0x0000000020001d10                pProperty
 .bss           0x0000000020001d1c      0x2a8 /tmp/ccZkfwo0.ltrans19.ltrans.o
                0x0000000020001d1c                extiHandlerConfigs.lto_priv.507
                0x0000000020001d24                beeperPin.lto_priv.490
                0x0000000020001d7c                errorGyroI.lto_priv.314
                0x0000000020001d88                rcCommand
                0x0000000020001d90                attitude
                0x0000000020001d98                gyroADC
                0x0000000020001da4                PIDweight
                0x0000000020001da7                motorCount
                0x0000000020001da8                targetPidLooptime
                0x0000000020001dac                antiWindupProtection
                0x0000000020001dad                motorLimitReached
                0x0000000020001dbc                yawFilterState.lto_priv.288
                0x0000000020001dc8                deltaFilterState.lto_priv.289
                0x0000000020001dec                axisPID
                0x0000000020001df2                lowThrottlePidReduction.lto_priv.290
                0x0000000020001df4                axisPID_P
                0x0000000020001e00                axisPID_I
                0x0000000020001e0c                axisPID_D
                0x0000000020001e18                dmaHandlers.lto_priv.456
                0x0000000020001e28                usTicks.lto_priv.508
                0x0000000020001e2c                motor
                0x0000000020001e44                motors.lto_priv.495
                0x0000000020001e74                timerConfig
                0x0000000020001f14                flight3DConfig.lto_priv.415
                0x0000000020001f18                escAndServoConfig.lto_priv.416
                0x0000000020001f1c                servoRuleCount.lto_priv.418
                0x0000000020001f1d                currentServoMixer.lto_priv.417
                0x0000000020001f90                customServoMixers.lto_priv.505
                0x0000000020001f94                q1.lto_priv.411
                0x0000000020001f98                q2.lto_priv.412
                0x0000000020001f9c                q3.lto_priv.413
                0x0000000020001fa0                rMat.lto_priv.409
 .bss           0x0000000020001fc4       0x38 /tmp/ccZkfwo0.ltrans20.ltrans.o
 .bss           0x0000000020001ffc      0x2c1 /tmp/ccZkfwo0.ltrans21.ltrans.o
                0x0000000020002124                motorControlEnable
                0x000000002000213c                blackboxHistory.lto_priv.556
                0x0000000020002148                blackboxHistoryRing.lto_priv.557
                0x00000000200022b0                blackboxIFrameIndex.lto_priv.560
                0x00000000200022b4                blackboxLastArmingBeep.lto_priv.559
                0x00000000200022b8                blackboxLastFlightModeFlags.lto_priv.558
                0x00000000200022bc                systemState.lto_priv.443
 *fill*         0x00000000200022bd        0x3 
 .bss           0x00000000200022c0       0x2c /tmp/ccZkfwo0.ltrans22.ltrans.o
                0x00000000200022c5                rxMspFrameDone.lto_priv.372
                0x00000000200022c6                ppmFrameCount.lto_priv.579
                0x00000000200022cc                batteryWarningVoltage
                0x00000000200022ce                batteryCriticalVoltage
                0x00000000200022d8                amperageLatestADC
                0x00000000200022e8                armingBeepTimeMicros.lto_priv.433
 .bss           0x00000000200022ec       0xe4 /tmp/ccZkfwo0.ltrans23.ltrans.o
                0x00000000200022f4                gyroScale.lto_priv.484
                0x00000000200022f8                imuRuntimeConfig.lto_priv.483
                0x0000000020002308                magneticDeclination
                0x000000002000230c                smallAngleCosZ
                0x0000000020002318                fc_acc
                0x000000002000231c                accDeadband.lto_priv.543
                0x0000000020002330                accLpfCutHz.lto_priv.546
                0x0000000020002338                accTargetLooptime
                0x00000000200023a8                accelerationTrims.lto_priv.547
 .bss           0x00000000200023d0      0x698 /tmp/ccZkfwo0.ltrans24.ltrans.o
                0x00000000200023d0                receiveLength
                0x00000000200023d4                pInformation
                0x00000000200023d8                sysTickUptime.lto_priv.195
                0x00000000200023dc                packetSent
                0x00000000200023e1                receiveBuffer
                0x0000000020002421                jetiExBusTelemetryFrame.lto_priv.300
                0x000000002000244c                masterConfig
                0x000000002000295c                mspPorts.lto_priv.196
                0x00000000200029f4                rxRuntimeConfigPtr.lto_priv.352
                0x00000000200029f8                rxRuntimeConfig
                0x00000000200029fa                spek_chan_shift.lto_priv.351
                0x00000000200029fb                spek_chan_mask.lto_priv.353
                0x00000000200029fc                spekHiRes.lto_priv.194
                0x0000000020002a00                serialConfig.lto_priv.271
                0x0000000020002a04                findSharedSerialPortState.lto_priv.312
                0x0000000020002a08                serialPortUsageList.lto_priv.263
                0x0000000020002a38                StkCmd.lto_priv.265
                0x0000000020002a39                StkInBuf.lto_priv.266
                0x0000000020002a4c                Device_Info
 .bss           0x0000000020002a68       0x36 /tmp/ccZkfwo0.ltrans25.ltrans.o
                0x0000000020002a68                cliWriter.lto_priv.241
                0x0000000020002a6c                motor_disarmed
                0x0000000020002a84                cliPort.lto_priv.262
                0x0000000020002a88                beep_multiBeeps.lto_priv.251
 .bss           0x0000000020002a9e        0x2 /tmp/ccZkfwo0.ltrans26.ltrans.o
                0x0000000020002a9e                wInterrupt_Mask
 .bss           0x0000000020002aa0       0x74 /tmp/ccZkfwo0.ltrans27.ltrans.o
                0x0000000020002af8                errorGyroIf.lto_priv.315
                0x0000000020002b10                failsafeConfig.lto_priv.318
 .bss           0x0000000020002b14       0x29 /tmp/ccZkfwo0.ltrans28.ltrans.o
                0x0000000020002b18                mag
                0x0000000020002b20                magADC
                0x0000000020002b3c                magInit.lto_priv.485
 *(SORT(.bss*))
 *fill*         0x0000000020002b3d        0x3 
 .bss.systemBeepPtr
                0x0000000020002b40        0x4 /tmp/ccZkfwo0.ltrans19.ltrans.o
                0x0000000020002b40                systemBeepPtr
 .bss.accTimeSum
                0x0000000020002b44        0x4 /tmp/ccZkfwo0.ltrans23.ltrans.o
 .bss.bDeviceState
                0x0000000020002b48        0x4 /tmp/ccZkfwo0.ltrans24.ltrans.o
                0x0000000020002b48                bDeviceState
 .bss.currentTime
                0x0000000020002b4c        0x4 /tmp/ccZkfwo0.ltrans28.ltrans.o
                0x0000000020002b4c                currentTime
 .bss.__malloc_sbrk_start
                0x0000000020002b50        0x4 /usr/bin/../lib/gcc/arm-none-eabi/4.9.3/../../../../arm-none-eabi/lib/armv7-m/libc_nano.a(lib_a-nano-mallocr.o)
                0x0000000020002b50                __malloc_sbrk_start
 .bss.__malloc_free_list
                0x0000000020002b54        0x4 /usr/bin/../lib/gcc/arm-none-eabi/4.9.3/../../../../arm-none-eabi/lib/armv7-m/libc_nano.a(lib_a-nano-mallocr.o)
                0x0000000020002b54                __malloc_free_list
 .bss.heap_end.4079
                0x0000000020002b58        0x4 /usr/bin/../lib/gcc/arm-none-eabi/4.9.3/../../../../arm-none-eabi/lib/armv7-m/libnosys.a(sbrk.o)
 .bss.calibratingG
                0x0000000020002b5c        0x2 /tmp/ccZkfwo0.ltrans3.ltrans.o
                0x0000000020002b5c                calibratingG
 .bss.cycleTime
                0x0000000020002b5e        0x2 /tmp/ccZkfwo0.ltrans16.ltrans.o
                0x0000000020002b5e                cycleTime
 .bss.ws2811LedDataTransferInProgress
                0x0000000020002b60        0x1 /tmp/ccZkfwo0.ltrans9.ltrans.o
                0x0000000020002b60                ws2811LedDataTransferInProgress
 .bss.cliMode   0x0000000020002b61        0x1 /tmp/ccZkfwo0.ltrans11.ltrans.o
                0x0000000020002b61                cliMode
 .bss.armingFlags
                0x0000000020002b62        0x1 /tmp/ccZkfwo0.ltrans16.ltrans.o
                0x0000000020002b62                armingFlags
 .bss.Data_Mul_MaxPacketSize
                0x0000000020002b63        0x1 /tmp/ccZkfwo0.ltrans17.ltrans.o
                0x0000000020002b63                Data_Mul_MaxPacketSize
 .bss.bIntPackSOF
                0x0000000020002b64        0x1 /tmp/ccZkfwo0.ltrans17.ltrans.o
 .bss.accAlign  0x0000000020002b65        0x1 /tmp/ccZkfwo0.ltrans23.ltrans.o
                0x0000000020002b65                accAlign
 .bss.Request   0x0000000020002b66        0x1 /tmp/ccZkfwo0.ltrans26.ltrans.o
 .bss.magAlign  0x0000000020002b67        0x1 /tmp/ccZkfwo0.ltrans28.ltrans.o
                0x0000000020002b67                magAlign
 *(COMMON)
 COMMON         0x0000000020002b68        0x4 /usr/bin/../lib/gcc/arm-none-eabi/4.9.3/../../../../arm-none-eabi/lib/armv7-m/libc_nano.a(lib_a-reent.o)
                0x0000000020002b68                errno
                0x0000000020002b6c                . = ALIGN (0x4)
                0x0000000020002b6c                _ebss = .
                0x0000000020002b6c                __bss_end__ = _ebss

._user_heap_stack
                0x0000000020002b6c      0x400 load address 0x000000000801be1c
                0x0000000020002b6c                . = ALIGN (0x4)
                0x0000000020002b6c                PROVIDE (end, .)
                0x0000000020002b6c                PROVIDE (_end, .)
                0x0000000020002b6c                . = (. + _Min_Heap_Size)
                0x0000000020002f6c                . = (. + _Min_Stack_Size)
 *fill*         0x0000000020002b6c      0x400 
                0x0000000020002f6c                . = ALIGN (0x4)

.memory_b1_text
 *(.mb1text)
 *(.mb1text*)
 *(.mb1rodata)
 *(.mb1rodata*)

/DISCARD/
 libc.a(*)
 libm.a(*)
 libgcc.a(*)

.ARM.attributes
                0x0000000000000000       0x2f
 *(.ARM.attributes)
 .ARM.attributes
                0x0000000000000000       0x21 obj/main/CC3D/startup_stm32f10x_md_gcc.o
 .ARM.attributes
                0x0000000000000021       0x31 /tmp/ccZkfwo0.ltrans0.ltrans.o
 .ARM.attributes
                0x0000000000000052       0x31 /tmp/ccZkfwo0.ltrans1.ltrans.o
 .ARM.attributes
                0x0000000000000083       0x31 /tmp/ccZkfwo0.ltrans2.ltrans.o
 .ARM.attributes
                0x00000000000000b4       0x31 /tmp/ccZkfwo0.ltrans3.ltrans.o
 .ARM.attributes
                0x00000000000000e5       0x31 /tmp/ccZkfwo0.ltrans4.ltrans.o
 .ARM.attributes
                0x0000000000000116       0x31 /tmp/ccZkfwo0.ltrans5.ltrans.o
 .ARM.attributes
                0x0000000000000147       0x31 /tmp/ccZkfwo0.ltrans6.ltrans.o
 .ARM.attributes
                0x0000000000000178       0x31 /tmp/ccZkfwo0.ltrans7.ltrans.o
 .ARM.attributes
                0x00000000000001a9       0x31 /tmp/ccZkfwo0.ltrans8.ltrans.o
 .ARM.attributes
                0x00000000000001da       0x31 /tmp/ccZkfwo0.ltrans9.ltrans.o
 .ARM.attributes
                0x000000000000020b       0x31 /tmp/ccZkfwo0.ltrans10.ltrans.o
 .ARM.attributes
                0x000000000000023c       0x31 /tmp/ccZkfwo0.ltrans11.ltrans.o
 .ARM.attributes
                0x000000000000026d       0x31 /tmp/ccZkfwo0.ltrans12.ltrans.o
 .ARM.attributes
                0x000000000000029e       0x31 /tmp/ccZkfwo0.ltrans13.ltrans.o
 .ARM.attributes
                0x00000000000002cf       0x31 /tmp/ccZkfwo0.ltrans14.ltrans.o
 .ARM.attributes
                0x0000000000000300       0x31 /tmp/ccZkfwo0.ltrans15.ltrans.o
 .ARM.attributes
                0x0000000000000331       0x31 /tmp/ccZkfwo0.ltrans16.ltrans.o
 .ARM.attributes
                0x0000000000000362       0x31 /tmp/ccZkfwo0.ltrans17.ltrans.o
 .ARM.attributes
                0x0000000000000393       0x31 /tmp/ccZkfwo0.ltrans18.ltrans.o
 .ARM.attributes
                0x00000000000003c4       0x31 /tmp/ccZkfwo0.ltrans19.ltrans.o
 .ARM.attributes
                0x00000000000003f5       0x31 /tmp/ccZkfwo0.ltrans20.ltrans.o
 .ARM.attributes
                0x0000000000000426       0x31 /tmp/ccZkfwo0.ltrans21.ltrans.o
 .ARM.attributes
                0x0000000000000457       0x31 /tmp/ccZkfwo0.ltrans22.ltrans.o
 .ARM.attributes
                0x0000000000000488       0x31 /tmp/ccZkfwo0.ltrans23.ltrans.o
 .ARM.attributes
                0x00000000000004b9       0x31 /tmp/ccZkfwo0.ltrans24.ltrans.o
 .ARM.attributes
                0x00000000000004ea       0x31 /tmp/ccZkfwo0.ltrans25.ltrans.o
 .ARM.attributes
                0x000000000000051b       0x31 /tmp/ccZkfwo0.ltrans26.ltrans.o
 .ARM.attributes
                0x000000000000054c       0x31 /tmp/ccZkfwo0.ltrans27.ltrans.o
 .ARM.attributes
                0x000000000000057d       0x31 /tmp/ccZkfwo0.ltrans28.ltrans.o
 .ARM.attributes
                0x00000000000005ae       0x1d /usr/bin/../lib/gcc/arm-none-eabi/4.9.3/armv7-m/libgcc.a(_arm_addsubsf3.o)
 .ARM.attributes
                0x00000000000005cb       0x1d /usr/bin/../lib/gcc/arm-none-eabi/4.9.3/armv7-m/libgcc.a(_arm_muldivsf3.o)
 .ARM.attributes
                0x00000000000005e8       0x1d /usr/bin/../lib/gcc/arm-none-eabi/4.9.3/armv7-m/libgcc.a(_arm_cmpsf2.o)
 .ARM.attributes
                0x0000000000000605       0x1d /usr/bin/../lib/gcc/arm-none-eabi/4.9.3/armv7-m/libgcc.a(_arm_fixsfsi.o)
 .ARM.attributes
                0x0000000000000622       0x1d /usr/bin/../lib/gcc/arm-none-eabi/4.9.3/armv7-m/libgcc.a(_arm_fixunssfsi.o)
 .ARM.attributes
                0x000000000000063f       0x1d /usr/bin/../lib/gcc/arm-none-eabi/4.9.3/armv7-m/libgcc.a(_aeabi_ldivmod.o)
 .ARM.attributes
                0x000000000000065c       0x2d /usr/bin/../lib/gcc/arm-none-eabi/4.9.3/armv7-m/libgcc.a(bpabi.o)
 .ARM.attributes
                0x0000000000000689       0x1d /usr/bin/../lib/gcc/arm-none-eabi/4.9.3/armv7-m/libgcc.a(_dvmd_tls.o)
 .ARM.attributes
                0x00000000000006a6       0x2d /usr/bin/../lib/gcc/arm-none-eabi/4.9.3/armv7-m/libgcc.a(_divdi3.o)
 .ARM.attributes
                0x00000000000006d3       0x2d /usr/bin/../lib/gcc/arm-none-eabi/4.9.3/armv7-m/libgcc.a(_udivdi3.o)
 .ARM.attributes
                0x0000000000000700       0x2d /usr/bin/../lib/gcc/arm-none-eabi/4.9.3/../../../../arm-none-eabi/lib/armv7-m/libg_nano.a(lib_a-memcmp.o)
 .ARM.attributes
                0x000000000000072d       0x2d /usr/bin/../lib/gcc/arm-none-eabi/4.9.3/../../../../arm-none-eabi/lib/armv7-m/libg_nano.a(lib_a-memcpy.o)
 .ARM.attributes
                0x000000000000075a       0x2d /usr/bin/../lib/gcc/arm-none-eabi/4.9.3/../../../../arm-none-eabi/lib/armv7-m/libg_nano.a(lib_a-memmove.o)
 .ARM.attributes
                0x0000000000000787       0x2d /usr/bin/../lib/gcc/arm-none-eabi/4.9.3/../../../../arm-none-eabi/lib/armv7-m/libg_nano.a(lib_a-memset.o)
 .ARM.attributes
                0x00000000000007b4       0x2d /usr/bin/../lib/gcc/arm-none-eabi/4.9.3/../../../../arm-none-eabi/lib/armv7-m/libg_nano.a(lib_a-strcasecmp.o)
 .ARM.attributes
                0x00000000000007e1       0x2d /usr/bin/../lib/gcc/arm-none-eabi/4.9.3/../../../../arm-none-eabi/lib/armv7-m/libg_nano.a(lib_a-strcat.o)
 .ARM.attributes
                0x000000000000080e       0x2d /usr/bin/../lib/gcc/arm-none-eabi/4.9.3/../../../../arm-none-eabi/lib/armv7-m/libg_nano.a(lib_a-strchr.o)
 .ARM.attributes
                0x000000000000083b       0x2d /usr/bin/../lib/gcc/arm-none-eabi/4.9.3/../../../../arm-none-eabi/lib/armv7-m/libg_nano.a(lib_a-strlen.o)
 .ARM.attributes
                0x0000000000000868       0x2d /usr/bin/../lib/gcc/arm-none-eabi/4.9.3/../../../../arm-none-eabi/lib/armv7-m/libg_nano.a(lib_a-strncasecmp.o)
 .ARM.attributes
                0x0000000000000895       0x2d /usr/bin/../lib/gcc/arm-none-eabi/4.9.3/../../../../arm-none-eabi/lib/armv7-m/libg_nano.a(lib_a-strncpy.o)
 .ARM.attributes
                0x00000000000008c2       0x2d /usr/bin/../lib/gcc/arm-none-eabi/4.9.3/../../../../arm-none-eabi/lib/armv7-m/libg_nano.a(lib_a-strstr.o)
 .ARM.attributes
                0x00000000000008ef       0x2d /usr/bin/../lib/gcc/arm-none-eabi/4.9.3/../../../../arm-none-eabi/lib/armv7-m/libc_nano.a(lib_a-atoi.o)
 .ARM.attributes
                0x000000000000091c       0x2d /usr/bin/../lib/gcc/arm-none-eabi/4.9.3/../../../../arm-none-eabi/lib/armv7-m/libc_nano.a(lib_a-ctype_.o)
 .ARM.attributes
                0x0000000000000949       0x2d /usr/bin/../lib/gcc/arm-none-eabi/4.9.3/../../../../arm-none-eabi/lib/armv7-m/libc_nano.a(lib_a-strtok.o)
 .ARM.attributes
                0x0000000000000976       0x2d /usr/bin/../lib/gcc/arm-none-eabi/4.9.3/../../../../arm-none-eabi/lib/armv7-m/libc_nano.a(lib_a-strtok_r.o)
 .ARM.attributes
                0x00000000000009a3       0x2d /usr/bin/../lib/gcc/arm-none-eabi/4.9.3/../../../../arm-none-eabi/lib/armv7-m/libc_nano.a(lib_a-strtol.o)
 .ARM.attributes
                0x00000000000009d0       0x2d /usr/bin/../lib/gcc/arm-none-eabi/4.9.3/../../../../arm-none-eabi/lib/armv7-m/libc_nano.a(lib_a-impure.o)
 .ARM.attributes
                0x00000000000009fd       0x2d /usr/bin/../lib/gcc/arm-none-eabi/4.9.3/../../../../arm-none-eabi/lib/armv7-m/libc_nano.a(lib_a-malloc.o)
 .ARM.attributes
                0x0000000000000a2a       0x2d /usr/bin/../lib/gcc/arm-none-eabi/4.9.3/../../../../arm-none-eabi/lib/armv7-m/libc_nano.a(lib_a-nano-mallocr.o)
 .ARM.attributes
                0x0000000000000a57       0x2d /usr/bin/../lib/gcc/arm-none-eabi/4.9.3/../../../../arm-none-eabi/lib/armv7-m/libc_nano.a(lib_a-sbrkr.o)
 .ARM.attributes
                0x0000000000000a84       0x2d /usr/bin/../lib/gcc/arm-none-eabi/4.9.3/../../../../arm-none-eabi/lib/armv7-m/libc_nano.a(lib_a-reent.o)
 .ARM.attributes
                0x0000000000000ab1       0x2d /usr/bin/../lib/gcc/arm-none-eabi/4.9.3/../../../../arm-none-eabi/lib/armv7-m/libnosys.a(sbrk.o)
 .ARM.attributes
                0x0000000000000ade       0x2d /usr/bin/../lib/gcc/arm-none-eabi/4.9.3/../../../../arm-none-eabi/lib/armv7-m/libm.a(lib_a-sf_cos.o)
 .ARM.attributes
                0x0000000000000b0b       0x2d /usr/bin/../lib/gcc/arm-none-eabi/4.9.3/../../../../arm-none-eabi/lib/armv7-m/libm.a(lib_a-sf_lrint.o)
 .ARM.attributes
                0x0000000000000b38       0x2d /usr/bin/../lib/gcc/arm-none-eabi/4.9.3/../../../../arm-none-eabi/lib/armv7-m/libm.a(lib_a-sf_sin.o)
 .ARM.attributes
                0x0000000000000b65       0x2d /usr/bin/../lib/gcc/arm-none-eabi/4.9.3/../../../../arm-none-eabi/lib/armv7-m/libm.a(lib_a-wf_acos.o)
 .ARM.attributes
                0x0000000000000b92       0x2d /usr/bin/../lib/gcc/arm-none-eabi/4.9.3/../../../../arm-none-eabi/lib/armv7-m/libm.a(lib_a-wf_atan2.o)
 .ARM.attributes
                0x0000000000000bbf       0x2d /usr/bin/../lib/gcc/arm-none-eabi/4.9.3/../../../../arm-none-eabi/lib/armv7-m/libm.a(lib_a-wf_sqrt.o)
 .ARM.attributes
                0x0000000000000bec       0x2d /usr/bin/../lib/gcc/arm-none-eabi/4.9.3/../../../../arm-none-eabi/lib/armv7-m/libm.a(lib_a-ef_acos.o)
 .ARM.attributes
                0x0000000000000c19       0x2d /usr/bin/../lib/gcc/arm-none-eabi/4.9.3/../../../../arm-none-eabi/lib/armv7-m/libm.a(lib_a-ef_atan2.o)
 .ARM.attributes
                0x0000000000000c46       0x2d /usr/bin/../lib/gcc/arm-none-eabi/4.9.3/../../../../arm-none-eabi/lib/armv7-m/libm.a(lib_a-ef_rem_pio2.o)
 .ARM.attributes
                0x0000000000000c73       0x2d /usr/bin/../lib/gcc/arm-none-eabi/4.9.3/../../../../arm-none-eabi/lib/armv7-m/libm.a(lib_a-ef_sqrt.o)
 .ARM.attributes
                0x0000000000000ca0       0x2d /usr/bin/../lib/gcc/arm-none-eabi/4.9.3/../../../../arm-none-eabi/lib/armv7-m/libm.a(lib_a-kf_cos.o)
 .ARM.attributes
                0x0000000000000ccd       0x2d /usr/bin/../lib/gcc/arm-none-eabi/4.9.3/../../../../arm-none-eabi/lib/armv7-m/libm.a(lib_a-kf_rem_pio2.o)
 .ARM.attributes
                0x0000000000000cfa       0x2d /usr/bin/../lib/gcc/arm-none-eabi/4.9.3/../../../../arm-none-eabi/lib/armv7-m/libm.a(lib_a-kf_sin.o)
 .ARM.attributes
                0x0000000000000d27       0x2d /usr/bin/../lib/gcc/arm-none-eabi/4.9.3/../../../../arm-none-eabi/lib/armv7-m/libm.a(lib_a-s_lib_ver.o)
 .ARM.attributes
                0x0000000000000d54       0x2d /usr/bin/../lib/gcc/arm-none-eabi/4.9.3/../../../../arm-none-eabi/lib/armv7-m/libm.a(lib_a-s_matherr.o)
 .ARM.attributes
                0x0000000000000d81       0x2d /usr/bin/../lib/gcc/arm-none-eabi/4.9.3/../../../../arm-none-eabi/lib/armv7-m/libm.a(lib_a-s_nan.o)
 .ARM.attributes
                0x0000000000000dae       0x2d /usr/bin/../lib/gcc/arm-none-eabi/4.9.3/../../../../arm-none-eabi/lib/armv7-m/libm.a(lib_a-sf_atan.o)
 .ARM.attributes
                0x0000000000000ddb       0x2d /usr/bin/../lib/gcc/arm-none-eabi/4.9.3/../../../../arm-none-eabi/lib/armv7-m/libm.a(lib_a-sf_fabs.o)
 .ARM.attributes
                0x0000000000000e08       0x2d /usr/bin/../lib/gcc/arm-none-eabi/4.9.3/../../../../arm-none-eabi/lib/armv7-m/libm.a(lib_a-sf_floor.o)
 .ARM.attributes
                0x0000000000000e35       0x2d /usr/bin/../lib/gcc/arm-none-eabi/4.9.3/../../../../arm-none-eabi/lib/armv7-m/libm.a(lib_a-sf_fpclassify.o)
 .ARM.attributes
                0x0000000000000e62       0x2d /usr/bin/../lib/gcc/arm-none-eabi/4.9.3/../../../../arm-none-eabi/lib/armv7-m/libm.a(lib_a-sf_scalbn.o)
 .ARM.attributes
                0x0000000000000e8f       0x2d /usr/bin/../lib/gcc/arm-none-eabi/4.9.3/../../../../arm-none-eabi/lib/armv7-m/libm.a(lib_a-sf_copysign.o)
 .ARM.attributes
                0x0000000000000ebc       0x2d /usr/bin/../lib/gcc/arm-none-eabi/4.9.3/../../../../arm-none-eabi/lib/armv7-m/libc_nano.a(lib_a-errno.o)
 .ARM.attributes
                0x0000000000000ee9       0x1d /usr/bin/../lib/gcc/arm-none-eabi/4.9.3/armv7-m/libgcc.a(_arm_addsubdf3.o)
 .ARM.attributes
                0x0000000000000f06       0x1d /usr/bin/../lib/gcc/arm-none-eabi/4.9.3/armv7-m/libgcc.a(_arm_muldivdf3.o)
 .ARM.attributes
                0x0000000000000f23       0x1d /usr/bin/../lib/gcc/arm-none-eabi/4.9.3/armv7-m/libgcc.a(_arm_truncdfsf2.o)
OUTPUT(obj/main/betaflight_CC3D.elf elf32-littlearm)

.debug_info     0x0000000000000000    0x3f2ef
 .debug_info    0x0000000000000000     0x79a4 /tmp/ccZkfwo0.ltrans0.ltrans.o
 .debug_info    0x00000000000079a4     0x4847 /tmp/ccZkfwo0.ltrans1.ltrans.o
 .debug_info    0x000000000000c1eb     0x299d /tmp/ccZkfwo0.ltrans2.ltrans.o
 .debug_info    0x000000000000eb88     0x2cfe /tmp/ccZkfwo0.ltrans3.ltrans.o
 .debug_info    0x0000000000011886     0x258a /tmp/ccZkfwo0.ltrans4.ltrans.o
 .debug_info    0x0000000000013e10     0x1a70 /tmp/ccZkfwo0.ltrans5.ltrans.o
 .debug_info    0x0000000000015880     0x27eb /tmp/ccZkfwo0.ltrans6.ltrans.o
 .debug_info    0x000000000001806b     0x1da7 /tmp/ccZkfwo0.ltrans7.ltrans.o
 .debug_info    0x0000000000019e12     0x307a /tmp/ccZkfwo0.ltrans8.ltrans.o
 .debug_info    0x000000000001ce8c      0xf34 /tmp/ccZkfwo0.ltrans9.ltrans.o
 .debug_info    0x000000000001ddc0     0x29b6 /tmp/ccZkfwo0.ltrans10.ltrans.o
 .debug_info    0x0000000000020776     0x239b /tmp/ccZkfwo0.ltrans11.ltrans.o
 .debug_info    0x0000000000022b11     0x2537 /tmp/ccZkfwo0.ltrans12.ltrans.o
 .debug_info    0x0000000000025048     0x2406 /tmp/ccZkfwo0.ltrans13.ltrans.o
 .debug_info    0x000000000002744e     0x2edb /tmp/ccZkfwo0.ltrans14.ltrans.o
 .debug_info    0x000000000002a329     0x1597 /tmp/ccZkfwo0.ltrans15.ltrans.o
 .debug_info    0x000000000002b8c0     0x2fb6 /tmp/ccZkfwo0.ltrans16.ltrans.o
 .debug_info    0x000000000002e876      0xf65 /tmp/ccZkfwo0.ltrans17.ltrans.o
 .debug_info    0x000000000002f7db     0x1a62 /tmp/ccZkfwo0.ltrans18.ltrans.o
 .debug_info    0x000000000003123d     0x2696 /tmp/ccZkfwo0.ltrans19.ltrans.o
 .debug_info    0x00000000000338d3     0x1acd /tmp/ccZkfwo0.ltrans20.ltrans.o
 .debug_info    0x00000000000353a0     0x1859 /tmp/ccZkfwo0.ltrans21.ltrans.o
 .debug_info    0x0000000000036bf9      0xeb5 /tmp/ccZkfwo0.ltrans22.ltrans.o
 .debug_info    0x0000000000037aae     0x10c5 /tmp/ccZkfwo0.ltrans23.ltrans.o
 .debug_info    0x0000000000038b73     0x3376 /tmp/ccZkfwo0.ltrans24.ltrans.o
 .debug_info    0x000000000003bee9     0x19f9 /tmp/ccZkfwo0.ltrans25.ltrans.o
 .debug_info    0x000000000003d8e2      0xabb /tmp/ccZkfwo0.ltrans26.ltrans.o
 .debug_info    0x000000000003e39d      0xb34 /tmp/ccZkfwo0.ltrans27.ltrans.o
 .debug_info    0x000000000003eed1      0x41e /tmp/ccZkfwo0.ltrans28.ltrans.o

.debug_abbrev   0x0000000000000000     0x9463
 .debug_abbrev  0x0000000000000000      0x677 /tmp/ccZkfwo0.ltrans0.ltrans.o
 .debug_abbrev  0x0000000000000677      0x619 /tmp/ccZkfwo0.ltrans1.ltrans.o
 .debug_abbrev  0x0000000000000c90      0x571 /tmp/ccZkfwo0.ltrans2.ltrans.o
 .debug_abbrev  0x0000000000001201      0x4d9 /tmp/ccZkfwo0.ltrans3.ltrans.o
 .debug_abbrev  0x00000000000016da      0x496 /tmp/ccZkfwo0.ltrans4.ltrans.o
 .debug_abbrev  0x0000000000001b70      0x4e2 /tmp/ccZkfwo0.ltrans5.ltrans.o
 .debug_abbrev  0x0000000000002052      0x5ab /tmp/ccZkfwo0.ltrans6.ltrans.o
 .debug_abbrev  0x00000000000025fd      0x5e8 /tmp/ccZkfwo0.ltrans7.ltrans.o
 .debug_abbrev  0x0000000000002be5      0x6be /tmp/ccZkfwo0.ltrans8.ltrans.o
 .debug_abbrev  0x00000000000032a3      0x348 /tmp/ccZkfwo0.ltrans9.ltrans.o
 .debug_abbrev  0x00000000000035eb      0x574 /tmp/ccZkfwo0.ltrans10.ltrans.o
 .debug_abbrev  0x0000000000003b5f      0x4c7 /tmp/ccZkfwo0.ltrans11.ltrans.o
 .debug_abbrev  0x0000000000004026      0x6af /tmp/ccZkfwo0.ltrans12.ltrans.o
 .debug_abbrev  0x00000000000046d5      0x5c1 /tmp/ccZkfwo0.ltrans13.ltrans.o
 .debug_abbrev  0x0000000000004c96      0x694 /tmp/ccZkfwo0.ltrans14.ltrans.o
 .debug_abbrev  0x000000000000532a      0x46f /tmp/ccZkfwo0.ltrans15.ltrans.o
 .debug_abbrev  0x0000000000005799      0x737 /tmp/ccZkfwo0.ltrans16.ltrans.o
 .debug_abbrev  0x0000000000005ed0      0x446 /tmp/ccZkfwo0.ltrans17.ltrans.o
 .debug_abbrev  0x0000000000006316      0x608 /tmp/ccZkfwo0.ltrans18.ltrans.o
 .debug_abbrev  0x000000000000691e      0x67d /tmp/ccZkfwo0.ltrans19.ltrans.o
 .debug_abbrev  0x0000000000006f9b      0x524 /tmp/ccZkfwo0.ltrans20.ltrans.o
 .debug_abbrev  0x00000000000074bf      0x53b /tmp/ccZkfwo0.ltrans21.ltrans.o
 .debug_abbrev  0x00000000000079fa      0x3f3 /tmp/ccZkfwo0.ltrans22.ltrans.o
 .debug_abbrev  0x0000000000007ded      0x3a1 /tmp/ccZkfwo0.ltrans23.ltrans.o
 .debug_abbrev  0x000000000000818e      0x648 /tmp/ccZkfwo0.ltrans24.ltrans.o
 .debug_abbrev  0x00000000000087d6      0x47a /tmp/ccZkfwo0.ltrans25.ltrans.o
 .debug_abbrev  0x0000000000008c50      0x326 /tmp/ccZkfwo0.ltrans26.ltrans.o
 .debug_abbrev  0x0000000000008f76      0x2b1 /tmp/ccZkfwo0.ltrans27.ltrans.o
 .debug_abbrev  0x0000000000009227      0x23c /tmp/ccZkfwo0.ltrans28.ltrans.o

.debug_loc      0x0000000000000000    0x18984
 .debug_loc     0x0000000000000000     0x3018 /tmp/ccZkfwo0.ltrans0.ltrans.o
 .debug_loc     0x0000000000003018     0x1fb7 /tmp/ccZkfwo0.ltrans1.ltrans.o
 .debug_loc     0x0000000000004fcf      0xcf1 /tmp/ccZkfwo0.ltrans2.ltrans.o
 .debug_loc     0x0000000000005cc0     0x11e4 /tmp/ccZkfwo0.ltrans3.ltrans.o
 .debug_loc     0x0000000000006ea4      0x6c7 /tmp/ccZkfwo0.ltrans4.ltrans.o
 .debug_loc     0x000000000000756b      0xd10 /tmp/ccZkfwo0.ltrans5.ltrans.o
 .debug_loc     0x000000000000827b     0x135e /tmp/ccZkfwo0.ltrans6.ltrans.o
 .debug_loc     0x00000000000095d9     0x1154 /tmp/ccZkfwo0.ltrans7.ltrans.o
 .debug_loc     0x000000000000a72d     0x11b3 /tmp/ccZkfwo0.ltrans8.ltrans.o
 .debug_loc     0x000000000000b8e0      0xb10 /tmp/ccZkfwo0.ltrans9.ltrans.o
 .debug_loc     0x000000000000c3f0     0x130c /tmp/ccZkfwo0.ltrans10.ltrans.o
 .debug_loc     0x000000000000d6fc      0xf7f /tmp/ccZkfwo0.ltrans11.ltrans.o
 .debug_loc     0x000000000000e67b      0xccf /tmp/ccZkfwo0.ltrans12.ltrans.o
 .debug_loc     0x000000000000f34a     0x1053 /tmp/ccZkfwo0.ltrans13.ltrans.o
 .debug_loc     0x000000000001039d      0x7a4 /tmp/ccZkfwo0.ltrans14.ltrans.o
 .debug_loc     0x0000000000010b41      0xc03 /tmp/ccZkfwo0.ltrans15.ltrans.o
 .debug_loc     0x0000000000011744     0x1022 /tmp/ccZkfwo0.ltrans16.ltrans.o
 .debug_loc     0x0000000000012766      0x8e0 /tmp/ccZkfwo0.ltrans17.ltrans.o
 .debug_loc     0x0000000000013046     0x13ac /tmp/ccZkfwo0.ltrans18.ltrans.o
 .debug_loc     0x00000000000143f2      0xdd4 /tmp/ccZkfwo0.ltrans19.ltrans.o
 .debug_loc     0x00000000000151c6      0x96a /tmp/ccZkfwo0.ltrans20.ltrans.o
 .debug_loc     0x0000000000015b30      0x496 /tmp/ccZkfwo0.ltrans21.ltrans.o
 .debug_loc     0x0000000000015fc6      0x3a5 /tmp/ccZkfwo0.ltrans22.ltrans.o
 .debug_loc     0x000000000001636b      0x7dc /tmp/ccZkfwo0.ltrans23.ltrans.o
 .debug_loc     0x0000000000016b47      0xb67 /tmp/ccZkfwo0.ltrans24.ltrans.o
 .debug_loc     0x00000000000176ae      0x85f /tmp/ccZkfwo0.ltrans25.ltrans.o
 .debug_loc     0x0000000000017f0d      0x24c /tmp/ccZkfwo0.ltrans26.ltrans.o
 .debug_loc     0x0000000000018159      0x7aa /tmp/ccZkfwo0.ltrans27.ltrans.o
 .debug_loc     0x0000000000018903       0x81 /tmp/ccZkfwo0.ltrans28.ltrans.o

.debug_aranges  0x0000000000000000      0x3b8
 .debug_aranges
                0x0000000000000000       0x20 /tmp/ccZkfwo0.ltrans0.ltrans.o
 .debug_aranges
                0x0000000000000020       0x20 /tmp/ccZkfwo0.ltrans1.ltrans.o
 .debug_aranges
                0x0000000000000040       0x20 /tmp/ccZkfwo0.ltrans2.ltrans.o
 .debug_aranges
                0x0000000000000060       0x20 /tmp/ccZkfwo0.ltrans3.ltrans.o
 .debug_aranges
                0x0000000000000080       0x20 /tmp/ccZkfwo0.ltrans4.ltrans.o
 .debug_aranges
                0x00000000000000a0       0x20 /tmp/ccZkfwo0.ltrans5.ltrans.o
 .debug_aranges
                0x00000000000000c0       0x20 /tmp/ccZkfwo0.ltrans6.ltrans.o
 .debug_aranges
                0x00000000000000e0       0x28 /tmp/ccZkfwo0.ltrans7.ltrans.o
 .debug_aranges
                0x0000000000000108       0x20 /tmp/ccZkfwo0.ltrans8.ltrans.o
 .debug_aranges
                0x0000000000000128       0x20 /tmp/ccZkfwo0.ltrans9.ltrans.o
 .debug_aranges
                0x0000000000000148       0x20 /tmp/ccZkfwo0.ltrans10.ltrans.o
 .debug_aranges
                0x0000000000000168       0x20 /tmp/ccZkfwo0.ltrans11.ltrans.o
 .debug_aranges
                0x0000000000000188       0x20 /tmp/ccZkfwo0.ltrans12.ltrans.o
 .debug_aranges
                0x00000000000001a8       0x20 /tmp/ccZkfwo0.ltrans13.ltrans.o
 .debug_aranges
                0x00000000000001c8       0x20 /tmp/ccZkfwo0.ltrans14.ltrans.o
 .debug_aranges
                0x00000000000001e8       0x20 /tmp/ccZkfwo0.ltrans15.ltrans.o
 .debug_aranges
                0x0000000000000208       0x20 /tmp/ccZkfwo0.ltrans16.ltrans.o
 .debug_aranges
                0x0000000000000228       0x20 /tmp/ccZkfwo0.ltrans17.ltrans.o
 .debug_aranges
                0x0000000000000248       0x20 /tmp/ccZkfwo0.ltrans18.ltrans.o
 .debug_aranges
                0x0000000000000268       0x20 /tmp/ccZkfwo0.ltrans19.ltrans.o
 .debug_aranges
                0x0000000000000288       0x20 /tmp/ccZkfwo0.ltrans20.ltrans.o
 .debug_aranges
                0x00000000000002a8       0x20 /tmp/ccZkfwo0.ltrans21.ltrans.o
 .debug_aranges
                0x00000000000002c8       0x20 /tmp/ccZkfwo0.ltrans22.ltrans.o
 .debug_aranges
                0x00000000000002e8       0x20 /tmp/ccZkfwo0.ltrans23.ltrans.o
 .debug_aranges
                0x0000000000000308       0x30 /tmp/ccZkfwo0.ltrans24.ltrans.o
 .debug_aranges
                0x0000000000000338       0x20 /tmp/ccZkfwo0.ltrans25.ltrans.o
 .debug_aranges
                0x0000000000000358       0x20 /tmp/ccZkfwo0.ltrans26.ltrans.o
 .debug_aranges
                0x0000000000000378       0x20 /tmp/ccZkfwo0.ltrans27.ltrans.o
 .debug_aranges
                0x0000000000000398       0x20 /tmp/ccZkfwo0.ltrans28.ltrans.o

.debug_ranges   0x0000000000000000     0x5910
 .debug_ranges  0x0000000000000000     0x12a0 /tmp/ccZkfwo0.ltrans0.ltrans.o
 .debug_ranges  0x00000000000012a0      0xd48 /tmp/ccZkfwo0.ltrans1.ltrans.o
 .debug_ranges  0x0000000000001fe8      0x3b8 /tmp/ccZkfwo0.ltrans2.ltrans.o
 .debug_ranges  0x00000000000023a0      0x5b0 /tmp/ccZkfwo0.ltrans3.ltrans.o
 .debug_ranges  0x0000000000002950      0x398 /tmp/ccZkfwo0.ltrans4.ltrans.o
 .debug_ranges  0x0000000000002ce8      0x1c0 /tmp/ccZkfwo0.ltrans5.ltrans.o
 .debug_ranges  0x0000000000002ea8      0x268 /tmp/ccZkfwo0.ltrans6.ltrans.o
 .debug_ranges  0x0000000000003110       0xb0 /tmp/ccZkfwo0.ltrans7.ltrans.o
 .debug_ranges  0x00000000000031c0      0x388 /tmp/ccZkfwo0.ltrans8.ltrans.o
 .debug_ranges  0x0000000000003548      0x310 /tmp/ccZkfwo0.ltrans9.ltrans.o
 .debug_ranges  0x0000000000003858      0x218 /tmp/ccZkfwo0.ltrans10.ltrans.o
 .debug_ranges  0x0000000000003a70      0x1b0 /tmp/ccZkfwo0.ltrans11.ltrans.o
 .debug_ranges  0x0000000000003c20      0x370 /tmp/ccZkfwo0.ltrans12.ltrans.o
 .debug_ranges  0x0000000000003f90      0x1b8 /tmp/ccZkfwo0.ltrans13.ltrans.o
 .debug_ranges  0x0000000000004148      0x2e0 /tmp/ccZkfwo0.ltrans14.ltrans.o
 .debug_ranges  0x0000000000004428      0x1e0 /tmp/ccZkfwo0.ltrans15.ltrans.o
 .debug_ranges  0x0000000000004608      0x200 /tmp/ccZkfwo0.ltrans16.ltrans.o
 .debug_ranges  0x0000000000004808      0x1a0 /tmp/ccZkfwo0.ltrans17.ltrans.o
 .debug_ranges  0x00000000000049a8      0x1b8 /tmp/ccZkfwo0.ltrans18.ltrans.o
 .debug_ranges  0x0000000000004b60      0x180 /tmp/ccZkfwo0.ltrans19.ltrans.o
 .debug_ranges  0x0000000000004ce0      0x200 /tmp/ccZkfwo0.ltrans20.ltrans.o
 .debug_ranges  0x0000000000004ee0      0x1d0 /tmp/ccZkfwo0.ltrans21.ltrans.o
 .debug_ranges  0x00000000000050b0      0x240 /tmp/ccZkfwo0.ltrans22.ltrans.o
 .debug_ranges  0x00000000000052f0      0x190 /tmp/ccZkfwo0.ltrans23.ltrans.o
 .debug_ranges  0x0000000000005480      0x128 /tmp/ccZkfwo0.ltrans24.ltrans.o
 .debug_ranges  0x00000000000055a8       0xf0 /tmp/ccZkfwo0.ltrans25.ltrans.o
 .debug_ranges  0x0000000000005698      0x120 /tmp/ccZkfwo0.ltrans26.ltrans.o
 .debug_ranges  0x00000000000057b8      0x100 /tmp/ccZkfwo0.ltrans27.ltrans.o
 .debug_ranges  0x00000000000058b8       0x58 /tmp/ccZkfwo0.ltrans28.ltrans.o

.debug_line     0x0000000000000000     0xc47d
 .debug_line    0x0000000000000000     0x1943 /tmp/ccZkfwo0.ltrans0.ltrans.o
 .debug_line    0x0000000000001943      0xd80 /tmp/ccZkfwo0.ltrans1.ltrans.o
 .debug_line    0x00000000000026c3      0x849 /tmp/ccZkfwo0.ltrans2.ltrans.o
 .debug_line    0x0000000000002f0c      0x90c /tmp/ccZkfwo0.ltrans3.ltrans.o
 .debug_line    0x0000000000003818      0x696 /tmp/ccZkfwo0.ltrans4.ltrans.o
 .debug_line    0x0000000000003eae      0x4be /tmp/ccZkfwo0.ltrans5.ltrans.o
 .debug_line    0x000000000000436c      0x6d9 /tmp/ccZkfwo0.ltrans6.ltrans.o
 .debug_line    0x0000000000004a45      0x702 /tmp/ccZkfwo0.ltrans7.ltrans.o
 .debug_line    0x0000000000005147      0x93d /tmp/ccZkfwo0.ltrans8.ltrans.o
 .debug_line    0x0000000000005a84      0x3ee /tmp/ccZkfwo0.ltrans9.ltrans.o
 .debug_line    0x0000000000005e72      0x57c /tmp/ccZkfwo0.ltrans10.ltrans.o
 .debug_line    0x00000000000063ee      0x549 /tmp/ccZkfwo0.ltrans11.ltrans.o
 .debug_line    0x0000000000006937      0x72b /tmp/ccZkfwo0.ltrans12.ltrans.o
 .debug_line    0x0000000000007062      0x606 /tmp/ccZkfwo0.ltrans13.ltrans.o
 .debug_line    0x0000000000007668      0x866 /tmp/ccZkfwo0.ltrans14.ltrans.o
 .debug_line    0x0000000000007ece      0x57e /tmp/ccZkfwo0.ltrans15.ltrans.o
 .debug_line    0x000000000000844c      0x789 /tmp/ccZkfwo0.ltrans16.ltrans.o
 .debug_line    0x0000000000008bd5      0x3fb /tmp/ccZkfwo0.ltrans17.ltrans.o
 .debug_line    0x0000000000008fd0      0x60f /tmp/ccZkfwo0.ltrans18.ltrans.o
 .debug_line    0x00000000000095df      0x649 /tmp/ccZkfwo0.ltrans19.ltrans.o
 .debug_line    0x0000000000009c28      0x5ae /tmp/ccZkfwo0.ltrans20.ltrans.o
 .debug_line    0x000000000000a1d6      0x4dd /tmp/ccZkfwo0.ltrans21.ltrans.o
 .debug_line    0x000000000000a6b3      0x49c /tmp/ccZkfwo0.ltrans22.ltrans.o
 .debug_line    0x000000000000ab4f      0x43d /tmp/ccZkfwo0.ltrans23.ltrans.o
 .debug_line    0x000000000000af8c      0x821 /tmp/ccZkfwo0.ltrans24.ltrans.o
 .debug_line    0x000000000000b7ad      0x43a /tmp/ccZkfwo0.ltrans25.ltrans.o
 .debug_line    0x000000000000bbe7      0x380 /tmp/ccZkfwo0.ltrans26.ltrans.o
 .debug_line    0x000000000000bf67      0x368 /tmp/ccZkfwo0.ltrans27.ltrans.o
 .debug_line    0x000000000000c2cf      0x1ae /tmp/ccZkfwo0.ltrans28.ltrans.o

.debug_str      0x0000000000000000    0x12355
 .debug_str     0x0000000000000000     0x456e /tmp/ccZkfwo0.ltrans0.ltrans.o
                                       0x4728 (size before relaxing)
 .debug_str     0x000000000000456e     0x11c6 /tmp/ccZkfwo0.ltrans1.ltrans.o
                                       0x208f (size before relaxing)
 .debug_str     0x0000000000005734     0x1840 /tmp/ccZkfwo0.ltrans2.ltrans.o
                                       0x2537 (size before relaxing)
 .debug_str     0x0000000000006f74     0x1290 /tmp/ccZkfwo0.ltrans3.ltrans.o
                                       0x21ae (size before relaxing)
 .debug_str     0x0000000000008204      0xd5c /tmp/ccZkfwo0.ltrans4.ltrans.o
                                       0x1903 (size before relaxing)
 .debug_str     0x0000000000008f60      0x682 /tmp/ccZkfwo0.ltrans5.ltrans.o
                                       0x14f2 (size before relaxing)
 .debug_str     0x00000000000095e2      0x809 /tmp/ccZkfwo0.ltrans6.ltrans.o
                                       0x12cc (size before relaxing)
 .debug_str     0x0000000000009deb      0xa37 /tmp/ccZkfwo0.ltrans7.ltrans.o
                                       0x13c1 (size before relaxing)
 .debug_str     0x000000000000a822      0x749 /tmp/ccZkfwo0.ltrans8.ltrans.o
                                       0x23b6 (size before relaxing)
 .debug_str     0x000000000000af6b      0x4ae /tmp/ccZkfwo0.ltrans9.ltrans.o
                                        0x765 (size before relaxing)
 .debug_str     0x000000000000b419      0x855 /tmp/ccZkfwo0.ltrans10.ltrans.o
                                       0x1532 (size before relaxing)
 .debug_str     0x000000000000bc6e      0x8b5 /tmp/ccZkfwo0.ltrans11.ltrans.o
                                        0xed7 (size before relaxing)
 .debug_str     0x000000000000c523      0x6df /tmp/ccZkfwo0.ltrans12.ltrans.o
                                       0x1592 (size before relaxing)
 .debug_str     0x000000000000cc02      0x4e1 /tmp/ccZkfwo0.ltrans13.ltrans.o
                                       0x1179 (size before relaxing)
 .debug_str     0x000000000000d0e3      0xc49 /tmp/ccZkfwo0.ltrans14.ltrans.o
                                       0x25c0 (size before relaxing)
 .debug_str     0x000000000000dd2c      0x3d5 /tmp/ccZkfwo0.ltrans15.ltrans.o
                                        0x94a (size before relaxing)
 .debug_str     0x000000000000e101     0x1247 /tmp/ccZkfwo0.ltrans16.ltrans.o
                                       0x23b1 (size before relaxing)
 .debug_str     0x000000000000f348      0x46a /tmp/ccZkfwo0.ltrans17.ltrans.o
                                        0x91a (size before relaxing)
 .debug_str     0x000000000000f7b2      0x2c6 /tmp/ccZkfwo0.ltrans18.ltrans.o
                                        0xd08 (size before relaxing)
 .debug_str     0x000000000000fa78      0x72b /tmp/ccZkfwo0.ltrans19.ltrans.o
                                       0x1c8c (size before relaxing)
 .debug_str     0x00000000000101a3      0x2ea /tmp/ccZkfwo0.ltrans20.ltrans.o
                                        0xeaa (size before relaxing)
 .debug_str     0x000000000001048d      0x3b3 /tmp/ccZkfwo0.ltrans21.ltrans.o
                                       0x1a05 (size before relaxing)
 .debug_str     0x0000000000010840      0x490 /tmp/ccZkfwo0.ltrans22.ltrans.o
                                        0xb2d (size before relaxing)
 .debug_str     0x0000000000010cd0      0x40d /tmp/ccZkfwo0.ltrans23.ltrans.o
                                        0xa36 (size before relaxing)
 .debug_str     0x00000000000110dd      0x9db /tmp/ccZkfwo0.ltrans24.ltrans.o
                                       0x2bdb (size before relaxing)
 .debug_str     0x0000000000011ab8      0x555 /tmp/ccZkfwo0.ltrans25.ltrans.o
                                       0x10cb (size before relaxing)
 .debug_str     0x000000000001200d      0x1e8 /tmp/ccZkfwo0.ltrans26.ltrans.o
                                        0x682 (size before relaxing)
 .debug_str     0x00000000000121f5       0xcb /tmp/ccZkfwo0.ltrans27.ltrans.o
                                        0x89e (size before relaxing)
 .debug_str     0x00000000000122c0       0x95 /tmp/ccZkfwo0.ltrans28.ltrans.o
                                        0x383 (size before relaxing)

.comment        0x0000000000000000       0x70
 .comment       0x0000000000000000       0x70 /tmp/ccZkfwo0.ltrans0.ltrans.o
                                         0x71 (size before relaxing)
 .comment       0x0000000000000000       0x71 /tmp/ccZkfwo0.ltrans1.ltrans.o
 .comment       0x0000000000000000       0x71 /tmp/ccZkfwo0.ltrans2.ltrans.o
 .comment       0x0000000000000000       0x71 /tmp/ccZkfwo0.ltrans3.ltrans.o
 .comment       0x0000000000000000       0x71 /tmp/ccZkfwo0.ltrans4.ltrans.o
 .comment       0x0000000000000000       0x71 /tmp/ccZkfwo0.ltrans5.ltrans.o
 .comment       0x0000000000000000       0x71 /tmp/ccZkfwo0.ltrans6.ltrans.o
 .comment       0x0000000000000000       0x71 /tmp/ccZkfwo0.ltrans7.ltrans.o
 .comment       0x0000000000000000       0x71 /tmp/ccZkfwo0.ltrans8.ltrans.o
 .comment       0x0000000000000000       0x71 /tmp/ccZkfwo0.ltrans9.ltrans.o
 .comment       0x0000000000000000       0x71 /tmp/ccZkfwo0.ltrans10.ltrans.o
 .comment       0x0000000000000000       0x71 /tmp/ccZkfwo0.ltrans11.ltrans.o
 .comment       0x0000000000000000       0x71 /tmp/ccZkfwo0.ltrans12.ltrans.o
 .comment       0x0000000000000000       0x71 /tmp/ccZkfwo0.ltrans13.ltrans.o
 .comment       0x0000000000000000       0x71 /tmp/ccZkfwo0.ltrans14.ltrans.o
 .comment       0x0000000000000000       0x71 /tmp/ccZkfwo0.ltrans15.ltrans.o
 .comment       0x0000000000000000       0x71 /tmp/ccZkfwo0.ltrans16.ltrans.o
 .comment       0x0000000000000000       0x71 /tmp/ccZkfwo0.ltrans17.ltrans.o
 .comment       0x0000000000000000       0x71 /tmp/ccZkfwo0.ltrans18.ltrans.o
 .comment       0x0000000000000000       0x71 /tmp/ccZkfwo0.ltrans19.ltrans.o
 .comment       0x0000000000000000       0x71 /tmp/ccZkfwo0.ltrans20.ltrans.o
 .comment       0x0000000000000000       0x71 /tmp/ccZkfwo0.ltrans21.ltrans.o
 .comment       0x0000000000000000       0x71 /tmp/ccZkfwo0.ltrans22.ltrans.o
 .comment       0x0000000000000000       0x71 /tmp/ccZkfwo0.ltrans23.ltrans.o
 .comment       0x0000000000000000       0x71 /tmp/ccZkfwo0.ltrans24.ltrans.o
 .comment       0x0000000000000000       0x71 /tmp/ccZkfwo0.ltrans25.ltrans.o
 .comment       0x0000000000000000       0x71 /tmp/ccZkfwo0.ltrans26.ltrans.o
 .comment       0x0000000000000000       0x71 /tmp/ccZkfwo0.ltrans27.ltrans.o
 .comment       0x0000000000000000       0x71 /tmp/ccZkfwo0.ltrans28.ltrans.o

.debug_frame    0x0000000000000000     0x365c
 .debug_frame   0x0000000000000000       0x30 /tmp/ccZkfwo0.ltrans0.ltrans.o
 .debug_frame   0x0000000000000030       0x40 /tmp/ccZkfwo0.ltrans1.ltrans.o
 .debug_frame   0x0000000000000070       0x40 /tmp/ccZkfwo0.ltrans2.ltrans.o
 .debug_frame   0x00000000000000b0       0x50 /tmp/ccZkfwo0.ltrans3.ltrans.o
 .debug_frame   0x0000000000000100       0x40 /tmp/ccZkfwo0.ltrans4.ltrans.o
 .debug_frame   0x0000000000000140      0x188 /tmp/ccZkfwo0.ltrans5.ltrans.o
 .debug_frame   0x00000000000002c8      0x25c /tmp/ccZkfwo0.ltrans6.ltrans.o
 .debug_frame   0x0000000000000524      0x264 /tmp/ccZkfwo0.ltrans7.ltrans.o
 .debug_frame   0x0000000000000788      0x370 /tmp/ccZkfwo0.ltrans8.ltrans.o
 .debug_frame   0x0000000000000af8       0x50 /tmp/ccZkfwo0.ltrans9.ltrans.o
 .debug_frame   0x0000000000000b48      0x294 /tmp/ccZkfwo0.ltrans10.ltrans.o
 .debug_frame   0x0000000000000ddc      0x220 /tmp/ccZkfwo0.ltrans11.ltrans.o
 .debug_frame   0x0000000000000ffc      0x2e0 /tmp/ccZkfwo0.ltrans12.ltrans.o
 .debug_frame   0x00000000000012dc      0x1fc /tmp/ccZkfwo0.ltrans13.ltrans.o
 .debug_frame   0x00000000000014d8      0x1f8 /tmp/ccZkfwo0.ltrans14.ltrans.o
 .debug_frame   0x00000000000016d0       0xd0 /tmp/ccZkfwo0.ltrans15.ltrans.o
 .debug_frame   0x00000000000017a0      0x3e0 /tmp/ccZkfwo0.ltrans16.ltrans.o
 .debug_frame   0x0000000000001b80      0x11c /tmp/ccZkfwo0.ltrans17.ltrans.o
 .debug_frame   0x0000000000001c9c      0x30c /tmp/ccZkfwo0.ltrans18.ltrans.o
 .debug_frame   0x0000000000001fa8      0x314 /tmp/ccZkfwo0.ltrans19.ltrans.o
 .debug_frame   0x00000000000022bc      0x1e0 /tmp/ccZkfwo0.ltrans20.ltrans.o
 .debug_frame   0x000000000000249c       0xe8 /tmp/ccZkfwo0.ltrans21.ltrans.o
 .debug_frame   0x0000000000002584       0x84 /tmp/ccZkfwo0.ltrans22.ltrans.o
 .debug_frame   0x0000000000002608       0x68 /tmp/ccZkfwo0.ltrans23.ltrans.o
 .debug_frame   0x0000000000002670      0x338 /tmp/ccZkfwo0.ltrans24.ltrans.o
 .debug_frame   0x00000000000029a8      0x268 /tmp/ccZkfwo0.ltrans25.ltrans.o
 .debug_frame   0x0000000000002c10       0xdc /tmp/ccZkfwo0.ltrans26.ltrans.o
 .debug_frame   0x0000000000002cec       0x8c /tmp/ccZkfwo0.ltrans27.ltrans.o
 .debug_frame   0x0000000000002d78       0x30 /tmp/ccZkfwo0.ltrans28.ltrans.o
 .debug_frame   0x0000000000002da8       0x28 /usr/bin/../lib/gcc/arm-none-eabi/4.9.3/armv7-m/libgcc.a(_aeabi_ldivmod.o)
 .debug_frame   0x0000000000002dd0       0x54 /usr/bin/../lib/gcc/arm-none-eabi/4.9.3/armv7-m/libgcc.a(bpabi.o)
 .debug_frame   0x0000000000002e24       0x34 /usr/bin/../lib/gcc/arm-none-eabi/4.9.3/armv7-m/libgcc.a(_divdi3.o)
 .debug_frame   0x0000000000002e58       0x34 /usr/bin/../lib/gcc/arm-none-eabi/4.9.3/armv7-m/libgcc.a(_udivdi3.o)
 .debug_frame   0x0000000000002e8c       0x28 /usr/bin/../lib/gcc/arm-none-eabi/4.9.3/../../../../arm-none-eabi/lib/armv7-m/libg_nano.a(lib_a-memcmp.o)
 .debug_frame   0x0000000000002eb4       0x28 /usr/bin/../lib/gcc/arm-none-eabi/4.9.3/../../../../arm-none-eabi/lib/armv7-m/libg_nano.a(lib_a-memcpy.o)
 .debug_frame   0x0000000000002edc       0x28 /usr/bin/../lib/gcc/arm-none-eabi/4.9.3/../../../../arm-none-eabi/lib/armv7-m/libg_nano.a(lib_a-memmove.o)
 .debug_frame   0x0000000000002f04       0x20 /usr/bin/../lib/gcc/arm-none-eabi/4.9.3/../../../../arm-none-eabi/lib/armv7-m/libg_nano.a(lib_a-memset.o)
 .debug_frame   0x0000000000002f24       0x2c /usr/bin/../lib/gcc/arm-none-eabi/4.9.3/../../../../arm-none-eabi/lib/armv7-m/libg_nano.a(lib_a-strcasecmp.o)
 .debug_frame   0x0000000000002f50       0x28 /usr/bin/../lib/gcc/arm-none-eabi/4.9.3/../../../../arm-none-eabi/lib/armv7-m/libg_nano.a(lib_a-strcat.o)
 .debug_frame   0x0000000000002f78       0x20 /usr/bin/../lib/gcc/arm-none-eabi/4.9.3/../../../../arm-none-eabi/lib/armv7-m/libg_nano.a(lib_a-strchr.o)
 .debug_frame   0x0000000000002f98       0x20 /usr/bin/../lib/gcc/arm-none-eabi/4.9.3/../../../../arm-none-eabi/lib/armv7-m/libg_nano.a(lib_a-strlen.o)
 .debug_frame   0x0000000000002fb8       0x2c /usr/bin/../lib/gcc/arm-none-eabi/4.9.3/../../../../arm-none-eabi/lib/armv7-m/libg_nano.a(lib_a-strncasecmp.o)
 .debug_frame   0x0000000000002fe4       0x28 /usr/bin/../lib/gcc/arm-none-eabi/4.9.3/../../../../arm-none-eabi/lib/armv7-m/libg_nano.a(lib_a-strncpy.o)
 .debug_frame   0x000000000000300c       0x2c /usr/bin/../lib/gcc/arm-none-eabi/4.9.3/../../../../arm-none-eabi/lib/armv7-m/libg_nano.a(lib_a-strstr.o)
 .debug_frame   0x0000000000003038       0x30 /usr/bin/../lib/gcc/arm-none-eabi/4.9.3/../../../../arm-none-eabi/lib/armv7-m/libc_nano.a(lib_a-atoi.o)
 .debug_frame   0x0000000000003068       0x38 /usr/bin/../lib/gcc/arm-none-eabi/4.9.3/../../../../arm-none-eabi/lib/armv7-m/libc_nano.a(lib_a-strtok.o)
 .debug_frame   0x00000000000030a0       0x40 /usr/bin/../lib/gcc/arm-none-eabi/4.9.3/../../../../arm-none-eabi/lib/armv7-m/libc_nano.a(lib_a-strtok_r.o)
 .debug_frame   0x00000000000030e0       0x54 /usr/bin/../lib/gcc/arm-none-eabi/4.9.3/../../../../arm-none-eabi/lib/armv7-m/libc_nano.a(lib_a-strtol.o)
 .debug_frame   0x0000000000003134       0x30 /usr/bin/../lib/gcc/arm-none-eabi/4.9.3/../../../../arm-none-eabi/lib/armv7-m/libc_nano.a(lib_a-malloc.o)
 .debug_frame   0x0000000000003164       0x2c /usr/bin/../lib/gcc/arm-none-eabi/4.9.3/../../../../arm-none-eabi/lib/armv7-m/libc_nano.a(lib_a-nano-mallocr.o)
 .debug_frame   0x0000000000003190       0x2c /usr/bin/../lib/gcc/arm-none-eabi/4.9.3/../../../../arm-none-eabi/lib/armv7-m/libc_nano.a(lib_a-sbrkr.o)
 .debug_frame   0x00000000000031bc       0x5c /usr/bin/../lib/gcc/arm-none-eabi/4.9.3/../../../../arm-none-eabi/lib/armv7-m/libc_nano.a(lib_a-reent.o)
 .debug_frame   0x0000000000003218       0x20 /usr/bin/../lib/gcc/arm-none-eabi/4.9.3/../../../../arm-none-eabi/lib/armv7-m/libnosys.a(sbrk.o)
 .debug_frame   0x0000000000003238       0x34 /usr/bin/../lib/gcc/arm-none-eabi/4.9.3/../../../../arm-none-eabi/lib/armv7-m/libm.a(lib_a-sf_cos.o)
 .debug_frame   0x000000000000326c       0x40 /usr/bin/../lib/gcc/arm-none-eabi/4.9.3/../../../../arm-none-eabi/lib/armv7-m/libm.a(lib_a-sf_lrint.o)
 .debug_frame   0x00000000000032ac       0x34 /usr/bin/../lib/gcc/arm-none-eabi/4.9.3/../../../../arm-none-eabi/lib/armv7-m/libm.a(lib_a-sf_sin.o)
 .debug_frame   0x00000000000032e0       0x3c /usr/bin/../lib/gcc/arm-none-eabi/4.9.3/../../../../arm-none-eabi/lib/armv7-m/libm.a(lib_a-wf_acos.o)
 .debug_frame   0x000000000000331c       0x20 /usr/bin/../lib/gcc/arm-none-eabi/4.9.3/../../../../arm-none-eabi/lib/armv7-m/libm.a(lib_a-wf_atan2.o)
 .debug_frame   0x000000000000333c       0x3c /usr/bin/../lib/gcc/arm-none-eabi/4.9.3/../../../../arm-none-eabi/lib/armv7-m/libm.a(lib_a-wf_sqrt.o)
 .debug_frame   0x0000000000003378       0x30 /usr/bin/../lib/gcc/arm-none-eabi/4.9.3/../../../../arm-none-eabi/lib/armv7-m/libm.a(lib_a-ef_acos.o)
 .debug_frame   0x00000000000033a8       0x3c /usr/bin/../lib/gcc/arm-none-eabi/4.9.3/../../../../arm-none-eabi/lib/armv7-m/libm.a(lib_a-ef_atan2.o)
 .debug_frame   0x00000000000033e4       0x48 /usr/bin/../lib/gcc/arm-none-eabi/4.9.3/../../../../arm-none-eabi/lib/armv7-m/libm.a(lib_a-ef_rem_pio2.o)
 .debug_frame   0x000000000000342c       0x2c /usr/bin/../lib/gcc/arm-none-eabi/4.9.3/../../../../arm-none-eabi/lib/armv7-m/libm.a(lib_a-ef_sqrt.o)
 .debug_frame   0x0000000000003458       0x34 /usr/bin/../lib/gcc/arm-none-eabi/4.9.3/../../../../arm-none-eabi/lib/armv7-m/libm.a(lib_a-kf_cos.o)
 .debug_frame   0x000000000000348c       0x50 /usr/bin/../lib/gcc/arm-none-eabi/4.9.3/../../../../arm-none-eabi/lib/armv7-m/libm.a(lib_a-kf_rem_pio2.o)
 .debug_frame   0x00000000000034dc       0x34 /usr/bin/../lib/gcc/arm-none-eabi/4.9.3/../../../../arm-none-eabi/lib/armv7-m/libm.a(lib_a-kf_sin.o)
 .debug_frame   0x0000000000003510       0x20 /usr/bin/../lib/gcc/arm-none-eabi/4.9.3/../../../../arm-none-eabi/lib/armv7-m/libm.a(lib_a-s_matherr.o)
 .debug_frame   0x0000000000003530       0x20 /usr/bin/../lib/gcc/arm-none-eabi/4.9.3/../../../../arm-none-eabi/lib/armv7-m/libm.a(lib_a-s_nan.o)
 .debug_frame   0x0000000000003550       0x30 /usr/bin/../lib/gcc/arm-none-eabi/4.9.3/../../../../arm-none-eabi/lib/armv7-m/libm.a(lib_a-sf_atan.o)
 .debug_frame   0x0000000000003580       0x20 /usr/bin/../lib/gcc/arm-none-eabi/4.9.3/../../../../arm-none-eabi/lib/armv7-m/libm.a(lib_a-sf_fabs.o)
 .debug_frame   0x00000000000035a0       0x30 /usr/bin/../lib/gcc/arm-none-eabi/4.9.3/../../../../arm-none-eabi/lib/armv7-m/libm.a(lib_a-sf_floor.o)
 .debug_frame   0x00000000000035d0       0x20 /usr/bin/../lib/gcc/arm-none-eabi/4.9.3/../../../../arm-none-eabi/lib/armv7-m/libm.a(lib_a-sf_fpclassify.o)
 .debug_frame   0x00000000000035f0       0x2c /usr/bin/../lib/gcc/arm-none-eabi/4.9.3/../../../../arm-none-eabi/lib/armv7-m/libm.a(lib_a-sf_scalbn.o)
 .debug_frame   0x000000000000361c       0x20 /usr/bin/../lib/gcc/arm-none-eabi/4.9.3/../../../../arm-none-eabi/lib/armv7-m/libm.a(lib_a-sf_copysign.o)
 .debug_frame   0x000000000000363c       0x20 /usr/bin/../lib/gcc/arm-none-eabi/4.9.3/../../../../arm-none-eabi/lib/armv7-m/libc_nano.a(lib_a-errno.o)

Cross Reference Table

Symbol                                            File
ADC1_2_IRQHandler                                 obj/main/CC3D/startup_stm32f10x_md_gcc.o
ADC_AnalogWatchdogCmd                             obj/main/CC3D/stm32f10x_adc.o (symbol from plugin)
ADC_AnalogWatchdogSingleChannelConfig             obj/main/CC3D/stm32f10x_adc.o (symbol from plugin)
ADC_AnalogWatchdogThresholdsConfig                obj/main/CC3D/stm32f10x_adc.o (symbol from plugin)
ADC_AutoInjectedConvCmd                           obj/main/CC3D/stm32f10x_adc.o (symbol from plugin)
ADC_ClearFlag                                     obj/main/CC3D/stm32f10x_adc.o (symbol from plugin)
ADC_ClearITPendingBit                             obj/main/CC3D/stm32f10x_adc.o (symbol from plugin)
ADC_Cmd                                           obj/main/CC3D/stm32f10x_adc.o (symbol from plugin)
                                                  obj/main/CC3D/drivers/adc_stm32f10x.o (symbol from plugin)
ADC_DMACmd                                        obj/main/CC3D/stm32f10x_adc.o (symbol from plugin)
                                                  obj/main/CC3D/drivers/adc_stm32f10x.o (symbol from plugin)
ADC_DeInit                                        obj/main/CC3D/stm32f10x_adc.o (symbol from plugin)
ADC_DiscModeChannelCountConfig                    obj/main/CC3D/stm32f10x_adc.o (symbol from plugin)
ADC_DiscModeCmd                                   obj/main/CC3D/stm32f10x_adc.o (symbol from plugin)
ADC_ExternalTrigConvCmd                           obj/main/CC3D/stm32f10x_adc.o (symbol from plugin)
ADC_ExternalTrigInjectedConvCmd                   obj/main/CC3D/stm32f10x_adc.o (symbol from plugin)
ADC_ExternalTrigInjectedConvConfig                obj/main/CC3D/stm32f10x_adc.o (symbol from plugin)
ADC_GetCalibrationStatus                          obj/main/CC3D/stm32f10x_adc.o (symbol from plugin)
                                                  obj/main/CC3D/drivers/adc_stm32f10x.o (symbol from plugin)
ADC_GetConversionValue                            obj/main/CC3D/stm32f10x_adc.o (symbol from plugin)
ADC_GetDualModeConversionValue                    obj/main/CC3D/stm32f10x_adc.o (symbol from plugin)
ADC_GetFlagStatus                                 obj/main/CC3D/stm32f10x_adc.o (symbol from plugin)
ADC_GetITStatus                                   obj/main/CC3D/stm32f10x_adc.o (symbol from plugin)
ADC_GetInjectedConversionValue                    obj/main/CC3D/stm32f10x_adc.o (symbol from plugin)
ADC_GetResetCalibrationStatus                     obj/main/CC3D/stm32f10x_adc.o (symbol from plugin)
                                                  obj/main/CC3D/drivers/adc_stm32f10x.o (symbol from plugin)
ADC_GetSoftwareStartConvStatus                    obj/main/CC3D/stm32f10x_adc.o (symbol from plugin)
ADC_GetSoftwareStartInjectedConvCmdStatus         obj/main/CC3D/stm32f10x_adc.o (symbol from plugin)
ADC_ITConfig                                      obj/main/CC3D/stm32f10x_adc.o (symbol from plugin)
ADC_Init                                          obj/main/CC3D/stm32f10x_adc.o (symbol from plugin)
                                                  obj/main/CC3D/drivers/adc_stm32f10x.o (symbol from plugin)
ADC_InjectedChannelConfig                         obj/main/CC3D/stm32f10x_adc.o (symbol from plugin)
ADC_InjectedDiscModeCmd                           obj/main/CC3D/stm32f10x_adc.o (symbol from plugin)
ADC_InjectedSequencerLengthConfig                 obj/main/CC3D/stm32f10x_adc.o (symbol from plugin)
ADC_RegularChannelConfig                          obj/main/CC3D/stm32f10x_adc.o (symbol from plugin)
                                                  obj/main/CC3D/drivers/adc_stm32f10x.o (symbol from plugin)
ADC_ResetCalibration                              obj/main/CC3D/stm32f10x_adc.o (symbol from plugin)
                                                  obj/main/CC3D/drivers/adc_stm32f10x.o (symbol from plugin)
ADC_SetInjectedOffset                             obj/main/CC3D/stm32f10x_adc.o (symbol from plugin)
ADC_SoftwareStartConvCmd                          obj/main/CC3D/stm32f10x_adc.o (symbol from plugin)
                                                  obj/main/CC3D/drivers/adc_stm32f10x.o (symbol from plugin)
ADC_SoftwareStartInjectedConvCmd                  obj/main/CC3D/stm32f10x_adc.o (symbol from plugin)
ADC_StartCalibration                              obj/main/CC3D/stm32f10x_adc.o (symbol from plugin)
                                                  obj/main/CC3D/drivers/adc_stm32f10x.o (symbol from plugin)
ADC_StructInit                                    obj/main/CC3D/stm32f10x_adc.o (symbol from plugin)
                                                  obj/main/CC3D/drivers/adc_stm32f10x.o (symbol from plugin)
ADC_TempSensorVrefintCmd                          obj/main/CC3D/stm32f10x_adc.o (symbol from plugin)
AccInflightCalibrationActive                      /tmp/ccZkfwo0.ltrans3.ltrans.o
                                                  obj/main/CC3D/mw.o (symbol from plugin)
                                                  /tmp/ccZkfwo0.ltrans23.ltrans.o
                                                  obj/main/CC3D/sensors/acceleration.o (symbol from plugin)
AccInflightCalibrationArmed                       obj/main/CC3D/mw.o (symbol from plugin)
AccInflightCalibrationMeasurementDone             /tmp/ccZkfwo0.ltrans3.ltrans.o
                                                  obj/main/CC3D/mw.o (symbol from plugin)
                                                  /tmp/ccZkfwo0.ltrans23.ltrans.o
                                                  obj/main/CC3D/sensors/acceleration.o (symbol from plugin)
AccInflightCalibrationSavetoEEProm                /tmp/ccZkfwo0.ltrans3.ltrans.o
                                                  obj/main/CC3D/mw.o (symbol from plugin)
                                                  /tmp/ccZkfwo0.ltrans23.ltrans.o
                                                  obj/main/CC3D/sensors/acceleration.o (symbol from plugin)
AltHold                                           obj/main/CC3D/flight/altitudehold.o (symbol from plugin)
BKP_ClearFlag                                     obj/main/CC3D/stm32f10x_bkp.o (symbol from plugin)
BKP_ClearITPendingBit                             obj/main/CC3D/stm32f10x_bkp.o (symbol from plugin)
BKP_DeInit                                        obj/main/CC3D/stm32f10x_bkp.o (symbol from plugin)
BKP_GetFlagStatus                                 obj/main/CC3D/stm32f10x_bkp.o (symbol from plugin)
BKP_GetITStatus                                   obj/main/CC3D/stm32f10x_bkp.o (symbol from plugin)
BKP_ITConfig                                      obj/main/CC3D/stm32f10x_bkp.o (symbol from plugin)
BKP_RTCOutputConfig                               obj/main/CC3D/stm32f10x_bkp.o (symbol from plugin)
BKP_ReadBackupRegister                            obj/main/CC3D/stm32f10x_bkp.o (symbol from plugin)
BKP_SetRTCCalibrationValue                        obj/main/CC3D/stm32f10x_bkp.o (symbol from plugin)
BKP_TamperPinCmd                                  obj/main/CC3D/stm32f10x_bkp.o (symbol from plugin)
BKP_TamperPinLevelConfig                          obj/main/CC3D/stm32f10x_bkp.o (symbol from plugin)
BKP_WriteBackupRegister                           obj/main/CC3D/stm32f10x_bkp.o (symbol from plugin)
BL_ConnectEx                                      obj/main/CC3D/io/serial_4way_avrootloader.o (symbol from plugin)
                                                  obj/main/CC3D/io/serial_4way.o (symbol from plugin)
BL_GetACK.lto_priv.403                            /tmp/ccZkfwo0.ltrans8.ltrans.o
                                                  /tmp/ccZkfwo0.ltrans1.ltrans.o
BL_PageErase                                      obj/main/CC3D/io/serial_4way_avrootloader.o (symbol from plugin)
                                                  obj/main/CC3D/io/serial_4way.o (symbol from plugin)
BL_ReadA.lto_priv.401                             /tmp/ccZkfwo0.ltrans8.ltrans.o
                                                  /tmp/ccZkfwo0.ltrans1.ltrans.o
BL_ReadBuf.lto_priv.404                           /tmp/ccZkfwo0.ltrans8.ltrans.o
                                                  /tmp/ccZkfwo0.ltrans1.ltrans.o
BL_ReadEEprom                                     obj/main/CC3D/io/serial_4way_avrootloader.o (symbol from plugin)
                                                  obj/main/CC3D/io/serial_4way.o (symbol from plugin)
BL_ReadFlash                                      obj/main/CC3D/io/serial_4way_avrootloader.o (symbol from plugin)
                                                  obj/main/CC3D/io/serial_4way.o (symbol from plugin)
BL_SendBuf.lto_priv.402                           /tmp/ccZkfwo0.ltrans8.ltrans.o
                                                  /tmp/ccZkfwo0.ltrans1.ltrans.o
BL_SendCMDKeepAlive                               obj/main/CC3D/io/serial_4way_avrootloader.o (symbol from plugin)
                                                  obj/main/CC3D/io/serial_4way.o (symbol from plugin)
BL_SendCMDRunRestartBootloader                    obj/main/CC3D/io/serial_4way_avrootloader.o (symbol from plugin)
                                                  obj/main/CC3D/io/serial_4way.o (symbol from plugin)
BL_SendCMDSetAddress.lto_priv.399                 /tmp/ccZkfwo0.ltrans8.ltrans.o
                                                  /tmp/ccZkfwo0.ltrans1.ltrans.o
BL_WriteA.part.5.lto_priv.398                     /tmp/ccZkfwo0.ltrans8.ltrans.o
                                                  /tmp/ccZkfwo0.ltrans1.ltrans.o
BL_WriteEEprom                                    obj/main/CC3D/io/serial_4way_avrootloader.o (symbol from plugin)
                                                  obj/main/CC3D/io/serial_4way.o (symbol from plugin)
BL_WriteFlash                                     obj/main/CC3D/io/serial_4way_avrootloader.o (symbol from plugin)
                                                  obj/main/CC3D/io/serial_4way.o (symbol from plugin)
BaroAlt                                           obj/main/CC3D/sensors/barometer.o (symbol from plugin)
                                                  obj/main/CC3D/rx/jetiexbus.o (symbol from plugin)
                                                  obj/main/CC3D/telemetry/smartport.o (symbol from plugin)
                                                  obj/main/CC3D/telemetry/frsky.o (symbol from plugin)
BiQuadNewLpf                                      /tmp/ccZkfwo0.ltrans18.ltrans.o
                                                  obj/main/CC3D/common/filter.o (symbol from plugin)
                                                  /tmp/ccZkfwo0.ltrans23.ltrans.o
                                                  /tmp/ccZkfwo0.ltrans21.ltrans.o
                                                  /tmp/ccZkfwo0.ltrans7.ltrans.o
                                                  /tmp/ccZkfwo0.ltrans2.ltrans.o
                                                  obj/main/CC3D/sensors/gyro.o (symbol from plugin)
                                                  obj/main/CC3D/sensors/battery.o (symbol from plugin)
                                                  obj/main/CC3D/sensors/acceleration.o (symbol from plugin)
                                                  obj/main/CC3D/flight/mixer.o (symbol from plugin)
BusFault_Handler                                  /tmp/ccZkfwo0.ltrans17.ltrans.o
                                                  obj/main/CC3D/vcp/stm32_it.o (symbol from plugin)
                                                  obj/main/CC3D/startup_stm32f10x_md_gcc.o
ByteSwap                                          obj/main/CC3D/usb_regs.o (symbol from plugin)
                                                  obj/main/CC3D/usb_core.o (symbol from plugin)
CAN1_RX1_IRQHandler                               obj/main/CC3D/startup_stm32f10x_md_gcc.o
CAN1_SCE_IRQHandler                               obj/main/CC3D/startup_stm32f10x_md_gcc.o
CDC_BaudRate                                      obj/main/CC3D/vcp/hw_config.o (symbol from plugin)
                                                  obj/main/CC3D/drivers/serial_usb_vcp.o (symbol from plugin)
CDC_Receive_DATA                                  obj/main/CC3D/vcp/hw_config.o (symbol from plugin)
                                                  obj/main/CC3D/drivers/serial_usb_vcp.o (symbol from plugin)
CDC_Send_DATA                                     obj/main/CC3D/vcp/hw_config.o (symbol from plugin)
                                                  obj/main/CC3D/drivers/serial_usb_vcp.o (symbol from plugin)
CDC_Send_DATA.part.0.lto_priv.188                 /tmp/ccZkfwo0.ltrans17.ltrans.o
                                                  /tmp/ccZkfwo0.ltrans24.ltrans.o
CHAR_FORMAT                                       obj/main/CC3D/drivers/display_ug2864hsweg01.o (symbol from plugin)
CRC_in.lto_priv.362                               /tmp/ccZkfwo0.ltrans8.ltrans.o
                                                  /tmp/ccZkfwo0.ltrans1.ltrans.o
CRCout.lto_priv.363                               /tmp/ccZkfwo0.ltrans8.ltrans.o
                                                  /tmp/ccZkfwo0.ltrans1.ltrans.o
CTR_HP                                            obj/main/CC3D/usb_int.o (symbol from plugin)
CTR_LP                                            obj/main/CC3D/usb_int.o (symbol from plugin)
                                                  obj/main/CC3D/vcp/usb_istr.o (symbol from plugin)
ClearDTOG_RX                                      obj/main/CC3D/usb_regs.o (symbol from plugin)
                                                  obj/main/CC3D/usb_core.o (symbol from plugin)
ClearDTOG_TX                                      obj/main/CC3D/usb_regs.o (symbol from plugin)
                                                  obj/main/CC3D/usb_core.o (symbol from plugin)
ClearEPDoubleBuff                                 obj/main/CC3D/usb_regs.o (symbol from plugin)
ClearEP_CTR_RX                                    obj/main/CC3D/usb_regs.o (symbol from plugin)
ClearEP_CTR_TX                                    obj/main/CC3D/usb_regs.o (symbol from plugin)
ClearEP_KIND                                      obj/main/CC3D/usb_regs.o (symbol from plugin)
Clear_Status_Out                                  obj/main/CC3D/usb_regs.o (symbol from plugin)
                                                  obj/main/CC3D/vcp/usb_prop.o (symbol from plugin)
Config_Descriptor                                 obj/main/CC3D/vcp/usb_prop.o (symbol from plugin)
DAC_Cmd                                           obj/main/CC3D/stm32f10x_dac.o (symbol from plugin)
DAC_DMACmd                                        obj/main/CC3D/stm32f10x_dac.o (symbol from plugin)
DAC_DeInit                                        obj/main/CC3D/stm32f10x_dac.o (symbol from plugin)
DAC_DualSoftwareTriggerCmd                        obj/main/CC3D/stm32f10x_dac.o (symbol from plugin)
DAC_GetDataOutputValue                            obj/main/CC3D/stm32f10x_dac.o (symbol from plugin)
DAC_Init                                          obj/main/CC3D/stm32f10x_dac.o (symbol from plugin)
DAC_SetChannel1Data                               obj/main/CC3D/stm32f10x_dac.o (symbol from plugin)
DAC_SetChannel2Data                               obj/main/CC3D/stm32f10x_dac.o (symbol from plugin)
DAC_SetDualChannelData                            obj/main/CC3D/stm32f10x_dac.o (symbol from plugin)
DAC_SoftwareTriggerCmd                            obj/main/CC3D/stm32f10x_dac.o (symbol from plugin)
DAC_StructInit                                    obj/main/CC3D/stm32f10x_dac.o (symbol from plugin)
DAC_WaveGenerationCmd                             obj/main/CC3D/stm32f10x_dac.o (symbol from plugin)
DBGMCU_Config                                     obj/main/CC3D/stm32f10x_dbgmcu.o (symbol from plugin)
DBGMCU_GetDEVID                                   obj/main/CC3D/stm32f10x_dbgmcu.o (symbol from plugin)
DBGMCU_GetREVID                                   obj/main/CC3D/stm32f10x_dbgmcu.o (symbol from plugin)
DMA1_Channel1_IRQHandler                          obj/main/CC3D/startup_stm32f10x_md_gcc.o
DMA1_Channel2_IRQHandler                          /tmp/ccZkfwo0.ltrans19.ltrans.o
                                                  obj/main/CC3D/drivers/dma.o (symbol from plugin)
                                                  obj/main/CC3D/startup_stm32f10x_md_gcc.o
DMA1_Channel3_IRQHandler                          /tmp/ccZkfwo0.ltrans19.ltrans.o
                                                  obj/main/CC3D/drivers/dma.o (symbol from plugin)
                                                  obj/main/CC3D/startup_stm32f10x_md_gcc.o
DMA1_Channel4_IRQHandler                          /tmp/ccZkfwo0.ltrans13.ltrans.o
                                                  obj/main/CC3D/drivers/serial_uart_stm32f10x.o (symbol from plugin)
                                                  obj/main/CC3D/startup_stm32f10x_md_gcc.o
DMA1_Channel5_IRQHandler                          obj/main/CC3D/startup_stm32f10x_md_gcc.o
DMA1_Channel6_IRQHandler                          /tmp/ccZkfwo0.ltrans19.ltrans.o
                                                  obj/main/CC3D/drivers/dma.o (symbol from plugin)
                                                  obj/main/CC3D/startup_stm32f10x_md_gcc.o
DMA1_Channel7_IRQHandler                          /tmp/ccZkfwo0.ltrans19.ltrans.o
                                                  obj/main/CC3D/drivers/dma.o (symbol from plugin)
                                                  obj/main/CC3D/startup_stm32f10x_md_gcc.o
DMA_ClearFlag                                     obj/main/CC3D/stm32f10x_dma.o (symbol from plugin)
                                                  obj/main/CC3D/drivers/light_ws2811strip.o (symbol from plugin)
DMA_ClearITPendingBit                             obj/main/CC3D/stm32f10x_dma.o (symbol from plugin)
                                                  obj/main/CC3D/drivers/serial_uart_stm32f10x.o (symbol from plugin)
DMA_Cmd                                           obj/main/CC3D/stm32f10x_dma.o (symbol from plugin)
                                                  obj/main/CC3D/drivers/serial_uart_stm32f10x.o (symbol from plugin)
                                                  obj/main/CC3D/drivers/serial_uart.o (symbol from plugin)
                                                  obj/main/CC3D/drivers/light_ws2811strip_stm32f10x.o (symbol from plugin)
                                                  obj/main/CC3D/drivers/light_ws2811strip.o (symbol from plugin)
                                                  obj/main/CC3D/drivers/adc_stm32f10x.o (symbol from plugin)
DMA_DeInit                                        /tmp/ccZkfwo0.ltrans7.ltrans.o
                                                  obj/main/CC3D/stm32f10x_dma.o (symbol from plugin)
                                                  /tmp/ccZkfwo0.ltrans13.ltrans.o
                                                  /tmp/ccZkfwo0.ltrans0.ltrans.o
                                                  obj/main/CC3D/drivers/serial_uart.o (symbol from plugin)
                                                  obj/main/CC3D/drivers/light_ws2811strip_stm32f10x.o (symbol from plugin)
                                                  obj/main/CC3D/drivers/adc_stm32f10x.o (symbol from plugin)
DMA_GetCurrDataCounter                            obj/main/CC3D/stm32f10x_dma.o (symbol from plugin)
                                                  obj/main/CC3D/drivers/serial_uart.o (symbol from plugin)
DMA_GetFlagStatus                                 obj/main/CC3D/stm32f10x_dma.o (symbol from plugin)
                                                  obj/main/CC3D/drivers/light_ws2811strip.o (symbol from plugin)
DMA_GetITStatus                                   obj/main/CC3D/stm32f10x_dma.o (symbol from plugin)
DMA_ITConfig                                      obj/main/CC3D/stm32f10x_dma.o (symbol from plugin)
                                                  obj/main/CC3D/drivers/serial_uart.o (symbol from plugin)
                                                  obj/main/CC3D/drivers/light_ws2811strip_stm32f10x.o (symbol from plugin)
DMA_Init                                          /tmp/ccZkfwo0.ltrans7.ltrans.o
                                                  obj/main/CC3D/stm32f10x_dma.o (symbol from plugin)
                                                  /tmp/ccZkfwo0.ltrans13.ltrans.o
                                                  /tmp/ccZkfwo0.ltrans0.ltrans.o
                                                  obj/main/CC3D/drivers/serial_uart.o (symbol from plugin)
                                                  obj/main/CC3D/drivers/light_ws2811strip_stm32f10x.o (symbol from plugin)
                                                  obj/main/CC3D/drivers/adc_stm32f10x.o (symbol from plugin)
DMA_SetCurrDataCounter                            obj/main/CC3D/stm32f10x_dma.o (symbol from plugin)
                                                  obj/main/CC3D/drivers/serial_uart.o (symbol from plugin)
                                                  obj/main/CC3D/drivers/light_ws2811strip_stm32f10x.o (symbol from plugin)
DMA_StructInit                                    /tmp/ccZkfwo0.ltrans7.ltrans.o
                                                  obj/main/CC3D/stm32f10x_dma.o (symbol from plugin)
                                                  /tmp/ccZkfwo0.ltrans13.ltrans.o
                                                  /tmp/ccZkfwo0.ltrans0.ltrans.o
                                                  obj/main/CC3D/drivers/serial_uart.o (symbol from plugin)
                                                  obj/main/CC3D/drivers/light_ws2811strip_stm32f10x.o (symbol from plugin)
                                                  obj/main/CC3D/drivers/adc_stm32f10x.o (symbol from plugin)
DataStageIn.lto_priv.190                          /tmp/ccZkfwo0.ltrans7.ltrans.o
                                                  /tmp/ccZkfwo0.ltrans17.ltrans.o
Data_Mul_MaxPacketSize                            /tmp/ccZkfwo0.ltrans17.ltrans.o
                                                  obj/main/CC3D/usb_core.o (symbol from plugin)
                                                  /tmp/ccZkfwo0.ltrans7.ltrans.o
DeInitialize4WayInterface                         obj/main/CC3D/io/serial_4way.o (symbol from plugin)
DebugMon_Handler                                  /tmp/ccZkfwo0.ltrans17.ltrans.o
                                                  obj/main/CC3D/vcp/stm32_it.o (symbol from plugin)
                                                  obj/main/CC3D/startup_stm32f10x_md_gcc.o
Default_Handler                                   obj/main/CC3D/startup_stm32f10x_md_gcc.o
DeviceInfo                                        /tmp/ccZkfwo0.ltrans8.ltrans.o
                                                  obj/main/CC3D/io/serial_4way.o (symbol from plugin)
                                                  /tmp/ccZkfwo0.ltrans1.ltrans.o
Device_Descriptor                                 obj/main/CC3D/vcp/usb_prop.o (symbol from plugin)
Device_Info                                       /tmp/ccZkfwo0.ltrans24.ltrans.o
                                                  obj/main/CC3D/usb_init.o (symbol from plugin)
                                                  /tmp/ccZkfwo0.ltrans26.ltrans.o
                                                  /tmp/ccZkfwo0.ltrans8.ltrans.o
                                                  obj/main/CC3D/vcp/usb_prop.o (symbol from plugin)
                                                  obj/main/CC3D/vcp/hw_config.o (symbol from plugin)
Device_Property                                   /tmp/ccZkfwo0.ltrans26.ltrans.o
                                                  obj/main/CC3D/vcp/usb_prop.o (symbol from plugin)
                                                  /tmp/ccZkfwo0.ltrans17.ltrans.o
                                                  /tmp/ccZkfwo0.ltrans8.ltrans.o
                                                  /tmp/ccZkfwo0.ltrans7.ltrans.o
                                                  obj/main/CC3D/vcp/usb_istr.o (symbol from plugin)
                                                  obj/main/CC3D/usb_init.o (symbol from plugin)
                                                  obj/main/CC3D/usb_core.o (symbol from plugin)
Device_Table                                      /tmp/ccZkfwo0.ltrans17.ltrans.o
                                                  obj/main/CC3D/vcp/usb_prop.o (symbol from plugin)
                                                  obj/main/CC3D/usb_core.o (symbol from plugin)
EP                                                obj/main/CC3D/vcp/usb_pwr.o (symbol from plugin)
EP1_IN_Callback                                   /tmp/ccZkfwo0.ltrans26.ltrans.o
                                                  obj/main/CC3D/vcp/usb_endp.o (symbol from plugin)
                                                  /tmp/ccZkfwo0.ltrans17.ltrans.o
                                                  obj/main/CC3D/vcp/usb_istr.o (symbol from plugin)
EP3_OUT_Callback                                  /tmp/ccZkfwo0.ltrans26.ltrans.o
                                                  obj/main/CC3D/vcp/usb_endp.o (symbol from plugin)
                                                  /tmp/ccZkfwo0.ltrans17.ltrans.o
                                                  obj/main/CC3D/vcp/usb_istr.o (symbol from plugin)
EPindex                                           obj/main/CC3D/usb_init.o (symbol from plugin)
                                                  obj/main/CC3D/usb_int.o (symbol from plugin)
EXTI0_IRQHandler                                  obj/main/CC3D/startup_stm32f10x_md_gcc.o
EXTI15_10_IRQHandler                              /tmp/ccZkfwo0.ltrans19.ltrans.o
                                                  obj/main/CC3D/drivers/system.o (symbol from plugin)
                                                  obj/main/CC3D/startup_stm32f10x_md_gcc.o
EXTI1_IRQHandler                                  obj/main/CC3D/startup_stm32f10x_md_gcc.o
EXTI2_IRQHandler                                  obj/main/CC3D/startup_stm32f10x_md_gcc.o
EXTI3_IRQHandler                                  /tmp/ccZkfwo0.ltrans19.ltrans.o
                                                  obj/main/CC3D/drivers/system.o (symbol from plugin)
                                                  obj/main/CC3D/startup_stm32f10x_md_gcc.o
EXTI4_IRQHandler                                  obj/main/CC3D/startup_stm32f10x_md_gcc.o
EXTI9_5_IRQHandler                                obj/main/CC3D/startup_stm32f10x_md_gcc.o
EXTI_ClearFlag                                    obj/main/CC3D/stm32f10x_exti.o (symbol from plugin)
EXTI_ClearITPendingBit                            obj/main/CC3D/stm32f10x_exti.o (symbol from plugin)
                                                  obj/main/CC3D/vcp/stm32_it.o (symbol from plugin)
                                                  obj/main/CC3D/vcp/hw_config.o (symbol from plugin)
                                                  obj/main/CC3D/drivers/compass_hmc5883l.o (symbol from plugin)
                                                  obj/main/CC3D/drivers/accgyro_mpu.o (symbol from plugin)
EXTI_DeInit                                       obj/main/CC3D/stm32f10x_exti.o (symbol from plugin)
EXTI_GenerateSWInterrupt                          obj/main/CC3D/stm32f10x_exti.o (symbol from plugin)
EXTI_GetFlagStatus                                obj/main/CC3D/stm32f10x_exti.o (symbol from plugin)
EXTI_GetITStatus                                  obj/main/CC3D/stm32f10x_exti.o (symbol from plugin)
                                                  obj/main/CC3D/drivers/compass_hmc5883l.o (symbol from plugin)
                                                  obj/main/CC3D/drivers/accgyro_mpu.o (symbol from plugin)
EXTI_Init                                         obj/main/CC3D/stm32f10x_exti.o (symbol from plugin)
                                                  obj/main/CC3D/vcp/hw_config.o (symbol from plugin)
                                                  obj/main/CC3D/drivers/accgyro_mpu.o (symbol from plugin)
EXTI_Init.part.0.constprop.169                    /tmp/ccZkfwo0.ltrans24.ltrans.o
                                                  /tmp/ccZkfwo0.ltrans20.ltrans.o
                                                  /tmp/ccZkfwo0.ltrans8.ltrans.o
EXTI_InitStructure                                obj/main/CC3D/vcp/hw_config.o (symbol from plugin)
EXTI_StructInit                                   obj/main/CC3D/stm32f10x_exti.o (symbol from plugin)
Enter_LowPowerMode                                obj/main/CC3D/vcp/hw_config.o (symbol from plugin)
FLASH_ClearFlag                                   obj/main/CC3D/stm32f10x_flash.o (symbol from plugin)
                                                  obj/main/CC3D/config/config.o (symbol from plugin)
FLASH_EnableWriteProtection                       obj/main/CC3D/stm32f10x_flash.o (symbol from plugin)
FLASH_EraseAllBank1Pages                          obj/main/CC3D/stm32f10x_flash.o (symbol from plugin)
FLASH_EraseAllPages                               obj/main/CC3D/stm32f10x_flash.o (symbol from plugin)
FLASH_EraseOptionBytes                            obj/main/CC3D/stm32f10x_flash.o (symbol from plugin)
FLASH_ErasePage                                   obj/main/CC3D/stm32f10x_flash.o (symbol from plugin)
                                                  obj/main/CC3D/config/config.o (symbol from plugin)
FLASH_GetBank1Status                              obj/main/CC3D/stm32f10x_flash.o (symbol from plugin)
FLASH_GetFlagStatus                               obj/main/CC3D/stm32f10x_flash.o (symbol from plugin)
FLASH_GetPrefetchBufferStatus                     obj/main/CC3D/stm32f10x_flash.o (symbol from plugin)
FLASH_GetReadOutProtectionStatus                  obj/main/CC3D/stm32f10x_flash.o (symbol from plugin)
FLASH_GetStatus                                   obj/main/CC3D/stm32f10x_flash.o (symbol from plugin)
FLASH_GetUserOptionByte                           obj/main/CC3D/stm32f10x_flash.o (symbol from plugin)
FLASH_GetWriteProtectionOptionByte                obj/main/CC3D/stm32f10x_flash.o (symbol from plugin)
FLASH_HalfCycleAccessCmd                          obj/main/CC3D/stm32f10x_flash.o (symbol from plugin)
FLASH_IRQHandler                                  obj/main/CC3D/startup_stm32f10x_md_gcc.o
FLASH_ITConfig                                    obj/main/CC3D/stm32f10x_flash.o (symbol from plugin)
FLASH_Lock                                        obj/main/CC3D/stm32f10x_flash.o (symbol from plugin)
                                                  obj/main/CC3D/config/config.o (symbol from plugin)
FLASH_LockBank1                                   obj/main/CC3D/stm32f10x_flash.o (symbol from plugin)
FLASH_PrefetchBufferCmd                           obj/main/CC3D/stm32f10x_flash.o (symbol from plugin)
FLASH_ProgramHalfWord                             obj/main/CC3D/stm32f10x_flash.o (symbol from plugin)
FLASH_ProgramOptionByteData                       obj/main/CC3D/stm32f10x_flash.o (symbol from plugin)
FLASH_ProgramWord                                 obj/main/CC3D/stm32f10x_flash.o (symbol from plugin)
                                                  obj/main/CC3D/config/config.o (symbol from plugin)
FLASH_ReadOutProtection                           obj/main/CC3D/stm32f10x_flash.o (symbol from plugin)
FLASH_SetLatency                                  obj/main/CC3D/stm32f10x_flash.o (symbol from plugin)
FLASH_Unlock                                      obj/main/CC3D/stm32f10x_flash.o (symbol from plugin)
                                                  obj/main/CC3D/config/config.o (symbol from plugin)
FLASH_UnlockBank1                                 obj/main/CC3D/stm32f10x_flash.o (symbol from plugin)
FLASH_UserOptionByteConfig                        obj/main/CC3D/stm32f10x_flash.o (symbol from plugin)
FLASH_WaitForLastBank1Operation                   obj/main/CC3D/stm32f10x_flash.o (symbol from plugin)
FLASH_WaitForLastOperation                        /tmp/ccZkfwo0.ltrans7.ltrans.o
                                                  obj/main/CC3D/stm32f10x_flash.o (symbol from plugin)
                                                  /tmp/ccZkfwo0.ltrans18.ltrans.o
FSMC_ClearFlag                                    obj/main/CC3D/stm32f10x_fsmc.o (symbol from plugin)
FSMC_ClearITPendingBit                            obj/main/CC3D/stm32f10x_fsmc.o (symbol from plugin)
FSMC_GetECC                                       obj/main/CC3D/stm32f10x_fsmc.o (symbol from plugin)
FSMC_GetFlagStatus                                obj/main/CC3D/stm32f10x_fsmc.o (symbol from plugin)
FSMC_GetITStatus                                  obj/main/CC3D/stm32f10x_fsmc.o (symbol from plugin)
FSMC_ITConfig                                     obj/main/CC3D/stm32f10x_fsmc.o (symbol from plugin)
FSMC_NANDCmd                                      obj/main/CC3D/stm32f10x_fsmc.o (symbol from plugin)
FSMC_NANDDeInit                                   obj/main/CC3D/stm32f10x_fsmc.o (symbol from plugin)
FSMC_NANDECCCmd                                   obj/main/CC3D/stm32f10x_fsmc.o (symbol from plugin)
FSMC_NANDInit                                     obj/main/CC3D/stm32f10x_fsmc.o (symbol from plugin)
FSMC_NANDStructInit                               obj/main/CC3D/stm32f10x_fsmc.o (symbol from plugin)
FSMC_NORSRAMCmd                                   obj/main/CC3D/stm32f10x_fsmc.o (symbol from plugin)
FSMC_NORSRAMDeInit                                obj/main/CC3D/stm32f10x_fsmc.o (symbol from plugin)
FSMC_NORSRAMInit                                  obj/main/CC3D/stm32f10x_fsmc.o (symbol from plugin)
FSMC_NORSRAMStructInit                            obj/main/CC3D/stm32f10x_fsmc.o (symbol from plugin)
FSMC_PCCARDCmd                                    obj/main/CC3D/stm32f10x_fsmc.o (symbol from plugin)
FSMC_PCCARDDeInit                                 obj/main/CC3D/stm32f10x_fsmc.o (symbol from plugin)
FSMC_PCCARDInit                                   obj/main/CC3D/stm32f10x_fsmc.o (symbol from plugin)
FSMC_PCCARDStructInit                             obj/main/CC3D/stm32f10x_fsmc.o (symbol from plugin)
FreeUserBuffer                                    obj/main/CC3D/usb_regs.o (symbol from plugin)
GPIO_AFIODeInit                                   obj/main/CC3D/stm32f10x_gpio.o (symbol from plugin)
GPIO_DeInit                                       obj/main/CC3D/stm32f10x_gpio.o (symbol from plugin)
GPIO_ETH_MediaInterfaceConfig                     obj/main/CC3D/stm32f10x_gpio.o (symbol from plugin)
GPIO_EXTILineConfig                               obj/main/CC3D/stm32f10x_gpio.o (symbol from plugin)
GPIO_EventOutputCmd                               obj/main/CC3D/stm32f10x_gpio.o (symbol from plugin)
GPIO_EventOutputConfig                            obj/main/CC3D/stm32f10x_gpio.o (symbol from plugin)
GPIO_Init                                         /tmp/ccZkfwo0.ltrans7.ltrans.o
                                                  obj/main/CC3D/stm32f10x_gpio.o (symbol from plugin)
                                                  /tmp/ccZkfwo0.ltrans8.ltrans.o
                                                  /tmp/ccZkfwo0.ltrans0.ltrans.o
                                                  obj/main/CC3D/vcp/hw_config.o (symbol from plugin)
                                                  obj/main/CC3D/drivers/light_ws2811strip_stm32f10x.o (symbol from plugin)
                                                  obj/main/CC3D/drivers/adc_stm32f10x.o (symbol from plugin)
GPIO_PinLockConfig                                obj/main/CC3D/stm32f10x_gpio.o (symbol from plugin)
GPIO_PinRemapConfig                               obj/main/CC3D/stm32f10x_gpio.o (symbol from plugin)
                                                  obj/main/CC3D/drivers/timer.o (symbol from plugin)
GPIO_ReadInputData                                obj/main/CC3D/stm32f10x_gpio.o (symbol from plugin)
GPIO_ReadInputDataBit                             obj/main/CC3D/stm32f10x_gpio.o (symbol from plugin)
GPIO_ReadOutputData                               obj/main/CC3D/stm32f10x_gpio.o (symbol from plugin)
GPIO_ReadOutputDataBit                            obj/main/CC3D/stm32f10x_gpio.o (symbol from plugin)
GPIO_ResetBits                                    obj/main/CC3D/stm32f10x_gpio.o (symbol from plugin)
                                                  obj/main/CC3D/vcp/hw_config.o (symbol from plugin)
                                                  obj/main/CC3D/drivers/flash_m25p16.o (symbol from plugin)
                                                  obj/main/CC3D/drivers/accgyro_spi_mpu6000.o (symbol from plugin)
GPIO_SetBits                                      obj/main/CC3D/stm32f10x_gpio.o (symbol from plugin)
                                                  obj/main/CC3D/vcp/hw_config.o (symbol from plugin)
                                                  obj/main/CC3D/drivers/flash_m25p16.o (symbol from plugin)
                                                  obj/main/CC3D/drivers/bus_spi.o (symbol from plugin)
                                                  obj/main/CC3D/drivers/accgyro_spi_mpu6000.o (symbol from plugin)
GPIO_StructInit                                   obj/main/CC3D/stm32f10x_gpio.o (symbol from plugin)
                                                  obj/main/CC3D/drivers/light_ws2811strip_stm32f10x.o (symbol from plugin)
                                                  obj/main/CC3D/drivers/adc_stm32f10x.o (symbol from plugin)
GPIO_Write                                        obj/main/CC3D/stm32f10x_gpio.o (symbol from plugin)
GPIO_WriteBit                                     obj/main/CC3D/stm32f10x_gpio.o (symbol from plugin)
GPStoDDDMM_MMMM.lto_priv.304                      /tmp/ccZkfwo0.ltrans12.ltrans.o
                                                  /tmp/ccZkfwo0.ltrans4.ltrans.o
GetBTABLE                                         obj/main/CC3D/usb_regs.o (symbol from plugin)
GetCNTR                                           obj/main/CC3D/usb_regs.o (symbol from plugin)
GetDADDR                                          obj/main/CC3D/usb_regs.o (symbol from plugin)
GetENDPOINT                                       obj/main/CC3D/usb_regs.o (symbol from plugin)
GetEPAddress                                      obj/main/CC3D/usb_regs.o (symbol from plugin)
GetEPDblBuf0Addr                                  obj/main/CC3D/usb_regs.o (symbol from plugin)
GetEPDblBuf0Count                                 obj/main/CC3D/usb_regs.o (symbol from plugin)
GetEPDblBuf1Addr                                  obj/main/CC3D/usb_regs.o (symbol from plugin)
GetEPDblBuf1Count                                 obj/main/CC3D/usb_regs.o (symbol from plugin)
GetEPDblBufDir                                    obj/main/CC3D/usb_regs.o (symbol from plugin)
GetEPRxAddr                                       obj/main/CC3D/usb_regs.o (symbol from plugin)
                                                  obj/main/CC3D/usb_sil.o (symbol from plugin)
                                                  obj/main/CC3D/usb_core.o (symbol from plugin)
GetEPRxCount                                      obj/main/CC3D/usb_regs.o (symbol from plugin)
                                                  obj/main/CC3D/vcp/usb_endp.o (symbol from plugin)
                                                  obj/main/CC3D/usb_sil.o (symbol from plugin)
GetEPRxStatus                                     obj/main/CC3D/usb_regs.o (symbol from plugin)
GetEPTxAddr                                       obj/main/CC3D/usb_regs.o (symbol from plugin)
                                                  obj/main/CC3D/usb_sil.o (symbol from plugin)
                                                  obj/main/CC3D/usb_core.o (symbol from plugin)
GetEPTxCount                                      obj/main/CC3D/usb_regs.o (symbol from plugin)
GetEPTxStatus                                     obj/main/CC3D/usb_regs.o (symbol from plugin)
GetEPType                                         obj/main/CC3D/usb_regs.o (symbol from plugin)
GetFNR                                            obj/main/CC3D/usb_regs.o (symbol from plugin)
GetISTR                                           obj/main/CC3D/usb_regs.o (symbol from plugin)
GetRxStallStatus                                  obj/main/CC3D/usb_regs.o (symbol from plugin)
GetTxStallStatus                                  obj/main/CC3D/usb_regs.o (symbol from plugin)
Get_SerialNum                                     obj/main/CC3D/vcp/hw_config.o (symbol from plugin)
                                                  obj/main/CC3D/vcp/usb_prop.o (symbol from plugin)
HSEStartUpStatus                                  obj/main/CC3D/vcp/hw_config.o (symbol from plugin)
HardFault_Handler                                 /tmp/ccZkfwo0.ltrans21.ltrans.o
                                                  obj/main/CC3D/main.o (symbol from plugin)
                                                  obj/main/CC3D/startup_stm32f10x_md_gcc.o
HiLoTsh.lto_priv.269                              /tmp/ccZkfwo0.ltrans10.ltrans.o
                                                  /tmp/ccZkfwo0.ltrans8.ltrans.o
I2C1_ER_IRQHandler                                /tmp/ccZkfwo0.ltrans20.ltrans.o
                                                  obj/main/CC3D/drivers/bus_i2c_stm32f10x.o (symbol from plugin)
                                                  obj/main/CC3D/startup_stm32f10x_md_gcc.o
I2C1_EV_IRQHandler                                /tmp/ccZkfwo0.ltrans20.ltrans.o
                                                  obj/main/CC3D/drivers/bus_i2c_stm32f10x.o (symbol from plugin)
                                                  obj/main/CC3D/startup_stm32f10x_md_gcc.o
I2C2_ER_IRQHandler                                /tmp/ccZkfwo0.ltrans20.ltrans.o
                                                  obj/main/CC3D/drivers/bus_i2c_stm32f10x.o (symbol from plugin)
                                                  obj/main/CC3D/startup_stm32f10x_md_gcc.o
I2C2_EV_IRQHandler                                /tmp/ccZkfwo0.ltrans20.ltrans.o
                                                  obj/main/CC3D/drivers/bus_i2c_stm32f10x.o (symbol from plugin)
                                                  obj/main/CC3D/startup_stm32f10x_md_gcc.o
I2C_ARPCmd                                        obj/main/CC3D/stm32f10x_i2c.o (symbol from plugin)
I2C_AcknowledgeConfig                             obj/main/CC3D/stm32f10x_i2c.o (symbol from plugin)
                                                  obj/main/CC3D/drivers/bus_i2c_stm32f10x.o (symbol from plugin)
I2C_CalculatePEC                                  obj/main/CC3D/stm32f10x_i2c.o (symbol from plugin)
I2C_CheckEvent                                    obj/main/CC3D/stm32f10x_i2c.o (symbol from plugin)
I2C_ClearFlag                                     obj/main/CC3D/stm32f10x_i2c.o (symbol from plugin)
I2C_ClearITPendingBit                             obj/main/CC3D/stm32f10x_i2c.o (symbol from plugin)
I2C_Cmd                                           obj/main/CC3D/stm32f10x_i2c.o (symbol from plugin)
                                                  obj/main/CC3D/drivers/bus_i2c_stm32f10x.o (symbol from plugin)
I2C_DMACmd                                        obj/main/CC3D/stm32f10x_i2c.o (symbol from plugin)
I2C_DMALastTransferCmd                            obj/main/CC3D/stm32f10x_i2c.o (symbol from plugin)
I2C_DeInit                                        obj/main/CC3D/stm32f10x_i2c.o (symbol from plugin)
                                                  obj/main/CC3D/drivers/bus_i2c_stm32f10x.o (symbol from plugin)
I2C_DualAddressCmd                                obj/main/CC3D/stm32f10x_i2c.o (symbol from plugin)
I2C_FastModeDutyCycleConfig                       obj/main/CC3D/stm32f10x_i2c.o (symbol from plugin)
I2C_GeneralCallCmd                                obj/main/CC3D/stm32f10x_i2c.o (symbol from plugin)
I2C_GenerateSTART                                 obj/main/CC3D/stm32f10x_i2c.o (symbol from plugin)
                                                  obj/main/CC3D/drivers/bus_i2c_stm32f10x.o (symbol from plugin)
I2C_GenerateSTOP                                  obj/main/CC3D/stm32f10x_i2c.o (symbol from plugin)
                                                  obj/main/CC3D/drivers/bus_i2c_stm32f10x.o (symbol from plugin)
I2C_GetFlagStatus                                 obj/main/CC3D/stm32f10x_i2c.o (symbol from plugin)
I2C_GetITStatus                                   obj/main/CC3D/stm32f10x_i2c.o (symbol from plugin)
I2C_GetLastEvent                                  obj/main/CC3D/stm32f10x_i2c.o (symbol from plugin)
I2C_GetPEC                                        obj/main/CC3D/stm32f10x_i2c.o (symbol from plugin)
I2C_ITConfig                                      obj/main/CC3D/stm32f10x_i2c.o (symbol from plugin)
                                                  obj/main/CC3D/drivers/bus_i2c_stm32f10x.o (symbol from plugin)
I2C_Init                                          obj/main/CC3D/stm32f10x_i2c.o (symbol from plugin)
                                                  obj/main/CC3D/drivers/bus_i2c_stm32f10x.o (symbol from plugin)
I2C_NACKPositionConfig                            obj/main/CC3D/stm32f10x_i2c.o (symbol from plugin)
I2C_OwnAddress2Config                             obj/main/CC3D/stm32f10x_i2c.o (symbol from plugin)
I2C_PECPositionConfig                             obj/main/CC3D/stm32f10x_i2c.o (symbol from plugin)
I2C_ReadRegister                                  obj/main/CC3D/stm32f10x_i2c.o (symbol from plugin)
I2C_ReceiveData                                   obj/main/CC3D/stm32f10x_i2c.o (symbol from plugin)
I2C_SMBusAlertConfig                              obj/main/CC3D/stm32f10x_i2c.o (symbol from plugin)
I2C_Send7bitAddress                               obj/main/CC3D/stm32f10x_i2c.o (symbol from plugin)
                                                  obj/main/CC3D/drivers/bus_i2c_stm32f10x.o (symbol from plugin)
I2C_SendData                                      obj/main/CC3D/stm32f10x_i2c.o (symbol from plugin)
I2C_SoftwareResetCmd                              obj/main/CC3D/stm32f10x_i2c.o (symbol from plugin)
I2C_StretchClockCmd                               obj/main/CC3D/stm32f10x_i2c.o (symbol from plugin)
I2C_StructInit                                    obj/main/CC3D/stm32f10x_i2c.o (symbol from plugin)
                                                  obj/main/CC3D/drivers/bus_i2c_stm32f10x.o (symbol from plugin)
I2C_TransmitPEC                                   obj/main/CC3D/stm32f10x_i2c.o (symbol from plugin)
I2Cx.lto_priv.592                                 /tmp/ccZkfwo0.ltrans15.ltrans.o
                                                  /tmp/ccZkfwo0.ltrans20.ltrans.o
I2Cx_index.lto_priv.593                           /tmp/ccZkfwo0.ltrans15.ltrans.o
                                                  /tmp/ccZkfwo0.ltrans20.ltrans.o
I2S_Cmd                                           obj/main/CC3D/stm32f10x_spi.o (symbol from plugin)
I2S_Init                                          obj/main/CC3D/stm32f10x_spi.o (symbol from plugin)
I2S_StructInit                                    obj/main/CC3D/stm32f10x_spi.o (symbol from plugin)
IWDG_Enable                                       obj/main/CC3D/stm32f10x_iwdg.o (symbol from plugin)
IWDG_GetFlagStatus                                obj/main/CC3D/stm32f10x_iwdg.o (symbol from plugin)
IWDG_ReloadCounter                                obj/main/CC3D/stm32f10x_iwdg.o (symbol from plugin)
IWDG_SetPrescaler                                 obj/main/CC3D/stm32f10x_iwdg.o (symbol from plugin)
IWDG_SetReload                                    obj/main/CC3D/stm32f10x_iwdg.o (symbol from plugin)
IWDG_WriteAccessCmd                               obj/main/CC3D/stm32f10x_iwdg.o (symbol from plugin)
In0_Process                                       obj/main/CC3D/usb_core.o (symbol from plugin)
                                                  obj/main/CC3D/usb_int.o (symbol from plugin)
InflightcalibratingA                              /tmp/ccZkfwo0.ltrans3.ltrans.o
                                                  obj/main/CC3D/mw.o (symbol from plugin)
                                                  /tmp/ccZkfwo0.ltrans23.ltrans.o
                                                  obj/main/CC3D/sensors/acceleration.o (symbol from plugin)
Initialize4WayInterface                           obj/main/CC3D/io/serial_4way.o (symbol from plugin)
                                                  obj/main/CC3D/io/serial_msp.o (symbol from plugin)
IntToUnicode.lto_priv.189                         /tmp/ccZkfwo0.ltrans17.ltrans.o
                                                  /tmp/ccZkfwo0.ltrans26.ltrans.o
LastBitTime.lto_priv.268                          /tmp/ccZkfwo0.ltrans10.ltrans.o
                                                  /tmp/ccZkfwo0.ltrans8.ltrans.o
Leave_LowPowerMode                                obj/main/CC3D/vcp/hw_config.o (symbol from plugin)
                                                  obj/main/CC3D/vcp/usb_pwr.o (symbol from plugin)
MAG_DATA_READY_EXTI_Handler                       obj/main/CC3D/drivers/compass_hmc5883l.o (symbol from plugin)
MPU_DATA_READY_EXTI_Handler                       obj/main/CC3D/drivers/accgyro_mpu.o (symbol from plugin)
MemManage_Handler                                 /tmp/ccZkfwo0.ltrans17.ltrans.o
                                                  obj/main/CC3D/vcp/stm32_it.o (symbol from plugin)
                                                  obj/main/CC3D/startup_stm32f10x_md_gcc.o
NMI_Handler                                       /tmp/ccZkfwo0.ltrans17.ltrans.o
                                                  obj/main/CC3D/vcp/stm32_it.o (symbol from plugin)
                                                  obj/main/CC3D/startup_stm32f10x_md_gcc.o
NOP_Process                                       /tmp/ccZkfwo0.ltrans17.ltrans.o
                                                  obj/main/CC3D/usb_core.o (symbol from plugin)
                                                  /tmp/ccZkfwo0.ltrans8.ltrans.o
                                                  obj/main/CC3D/vcp/usb_prop.o (symbol from plugin)
                                                  obj/main/CC3D/vcp/usb_istr.o (symbol from plugin)
NVIC_Init                                         obj/main/CC3D/misc.o (symbol from plugin)
                                                  obj/main/CC3D/vcp/hw_config.o (symbol from plugin)
                                                  obj/main/CC3D/drivers/timer.o (symbol from plugin)
                                                  obj/main/CC3D/drivers/serial_uart_stm32f10x.o (symbol from plugin)
                                                  obj/main/CC3D/drivers/light_ws2811strip_stm32f10x.o (symbol from plugin)
                                                  obj/main/CC3D/drivers/bus_i2c_stm32f10x.o (symbol from plugin)
                                                  obj/main/CC3D/drivers/accgyro_mpu.o (symbol from plugin)
NVIC_Init.part.0.constprop.176                    /tmp/ccZkfwo0.ltrans24.ltrans.o
                                                  /tmp/ccZkfwo0.ltrans20.ltrans.o
                                                  /tmp/ccZkfwo0.ltrans15.ltrans.o
                                                  /tmp/ccZkfwo0.ltrans13.ltrans.o
                                                  /tmp/ccZkfwo0.ltrans12.ltrans.o
                                                  /tmp/ccZkfwo0.ltrans8.ltrans.o
                                                  /tmp/ccZkfwo0.ltrans0.ltrans.o
NVIC_PriorityGroupConfig                          obj/main/CC3D/misc.o (symbol from plugin)
                                                  obj/main/CC3D/vcp/hw_config.o (symbol from plugin)
                                                  obj/main/CC3D/drivers/system.o (symbol from plugin)
NVIC_SetVectorTable                               obj/main/CC3D/misc.o (symbol from plugin)
                                                  obj/main/CC3D/drivers/system.o (symbol from plugin)
NVIC_SystemLPConfig                               obj/main/CC3D/misc.o (symbol from plugin)
Out0_Process                                      obj/main/CC3D/usb_core.o (symbol from plugin)
                                                  obj/main/CC3D/usb_int.o (symbol from plugin)
PIDweight                                         /tmp/ccZkfwo0.ltrans19.ltrans.o
                                                  obj/main/CC3D/flight/pid.o (symbol from plugin)
                                                  /tmp/ccZkfwo0.ltrans27.ltrans.o
                                                  /tmp/ccZkfwo0.ltrans3.ltrans.o
                                                  obj/main/CC3D/mw.o (symbol from plugin)
PMAToUserBufferCopy                               obj/main/CC3D/usb_mem.o (symbol from plugin)
                                                  obj/main/CC3D/vcp/usb_endp.o (symbol from plugin)
                                                  obj/main/CC3D/usb_sil.o (symbol from plugin)
                                                  obj/main/CC3D/usb_core.o (symbol from plugin)
PVD_IRQHandler                                    obj/main/CC3D/startup_stm32f10x_md_gcc.o
PWR_BackupAccessCmd                               obj/main/CC3D/stm32f10x_pwr.o (symbol from plugin)
PWR_ClearFlag                                     obj/main/CC3D/stm32f10x_pwr.o (symbol from plugin)
PWR_DeInit                                        obj/main/CC3D/stm32f10x_pwr.o (symbol from plugin)
PWR_EnterSTANDBYMode                              obj/main/CC3D/stm32f10x_pwr.o (symbol from plugin)
PWR_EnterSTOPMode                                 obj/main/CC3D/stm32f10x_pwr.o (symbol from plugin)
PWR_GetFlagStatus                                 obj/main/CC3D/stm32f10x_pwr.o (symbol from plugin)
PWR_PVDCmd                                        obj/main/CC3D/stm32f10x_pwr.o (symbol from plugin)
PWR_PVDLevelConfig                                obj/main/CC3D/stm32f10x_pwr.o (symbol from plugin)
PWR_WakeUpPinCmd                                  obj/main/CC3D/stm32f10x_pwr.o (symbol from plugin)
PendSV_Handler                                    /tmp/ccZkfwo0.ltrans17.ltrans.o
                                                  obj/main/CC3D/vcp/stm32_it.o (symbol from plugin)
                                                  obj/main/CC3D/startup_stm32f10x_md_gcc.o
Post0_Process                                     /tmp/ccZkfwo0.ltrans7.ltrans.o
                                                  obj/main/CC3D/usb_core.o (symbol from plugin)
                                                  /tmp/ccZkfwo0.ltrans17.ltrans.o
PowerOff                                          obj/main/CC3D/vcp/usb_pwr.o (symbol from plugin)
PowerOn                                           obj/main/CC3D/vcp/usb_pwr.o (symbol from plugin)
                                                  obj/main/CC3D/vcp/usb_prop.o (symbol from plugin)
Process4WayInterface                              obj/main/CC3D/io/serial_4way.o (symbol from plugin)
                                                  obj/main/CC3D/io/serial_msp.o (symbol from plugin)
RCC_ADCCLKConfig                                  obj/main/CC3D/stm32f10x_rcc.o (symbol from plugin)
                                                  obj/main/CC3D/drivers/adc_stm32f10x.o (symbol from plugin)
RCC_AHBPeriphClockCmd                             obj/main/CC3D/stm32f10x_rcc.o (symbol from plugin)
                                                  obj/main/CC3D/drivers/serial_uart_stm32f10x.o (symbol from plugin)
                                                  obj/main/CC3D/drivers/light_ws2811strip_stm32f10x.o (symbol from plugin)
                                                  obj/main/CC3D/drivers/adc_stm32f10x.o (symbol from plugin)
RCC_APB1PeriphClockCmd                            obj/main/CC3D/stm32f10x_rcc.o (symbol from plugin)
                                                  obj/main/CC3D/vcp/hw_config.o (symbol from plugin)
                                                  obj/main/CC3D/drivers/timer.o (symbol from plugin)
                                                  obj/main/CC3D/drivers/serial_uart_stm32f10x.o (symbol from plugin)
                                                  obj/main/CC3D/drivers/light_ws2811strip_stm32f10x.o (symbol from plugin)
                                                  obj/main/CC3D/drivers/bus_i2c_stm32f10x.o (symbol from plugin)
                                                  obj/main/CC3D/drivers/bus_spi.o (symbol from plugin)
RCC_APB1PeriphResetCmd                            obj/main/CC3D/stm32f10x_rcc.o (symbol from plugin)
                                                  obj/main/CC3D/stm32f10x_wwdg.o (symbol from plugin)
                                                  obj/main/CC3D/stm32f10x_usart.o (symbol from plugin)
                                                  obj/main/CC3D/stm32f10x_tim.o (symbol from plugin)
                                                  obj/main/CC3D/stm32f10x_spi.o (symbol from plugin)
                                                  obj/main/CC3D/stm32f10x_pwr.o (symbol from plugin)
                                                  obj/main/CC3D/stm32f10x_i2c.o (symbol from plugin)
                                                  obj/main/CC3D/stm32f10x_dac.o (symbol from plugin)
                                                  obj/main/CC3D/drivers/bus_spi.o (symbol from plugin)
RCC_APB2PeriphClockCmd                            obj/main/CC3D/stm32f10x_rcc.o (symbol from plugin)
                                                  obj/main/CC3D/vcp/hw_config.o (symbol from plugin)
                                                  obj/main/CC3D/drivers/system.o (symbol from plugin)
                                                  obj/main/CC3D/drivers/timer.o (symbol from plugin)
                                                  obj/main/CC3D/drivers/system_stm32f10x.o (symbol from plugin)
                                                  obj/main/CC3D/drivers/sound_beeper_stm32f10x.o (symbol from plugin)
                                                  obj/main/CC3D/drivers/serial_uart_stm32f10x.o (symbol from plugin)
                                                  obj/main/CC3D/drivers/light_ws2811strip_stm32f10x.o (symbol from plugin)
                                                  obj/main/CC3D/drivers/light_led_stm32f10x.o (symbol from plugin)
                                                  obj/main/CC3D/drivers/inverter.o (symbol from plugin)
                                                  obj/main/CC3D/drivers/compass_hmc5883l.o (symbol from plugin)
                                                  obj/main/CC3D/drivers/bus_spi.o (symbol from plugin)
                                                  obj/main/CC3D/drivers/adc_stm32f10x.o (symbol from plugin)
                                                  obj/main/CC3D/drivers/accgyro_mpu.o (symbol from plugin)
RCC_APB2PeriphResetCmd                            obj/main/CC3D/stm32f10x_rcc.o (symbol from plugin)
                                                  obj/main/CC3D/stm32f10x_usart.o (symbol from plugin)
                                                  obj/main/CC3D/stm32f10x_tim.o (symbol from plugin)
                                                  obj/main/CC3D/stm32f10x_spi.o (symbol from plugin)
                                                  obj/main/CC3D/stm32f10x_gpio.o (symbol from plugin)
                                                  obj/main/CC3D/stm32f10x_adc.o (symbol from plugin)
                                                  obj/main/CC3D/drivers/bus_spi.o (symbol from plugin)
RCC_AdjustHSICalibrationValue                     obj/main/CC3D/stm32f10x_rcc.o (symbol from plugin)
RCC_BackupResetCmd                                obj/main/CC3D/stm32f10x_rcc.o (symbol from plugin)
                                                  obj/main/CC3D/stm32f10x_bkp.o (symbol from plugin)
RCC_ClearFlag                                     obj/main/CC3D/stm32f10x_rcc.o (symbol from plugin)
                                                  obj/main/CC3D/drivers/system.o (symbol from plugin)
RCC_ClearITPendingBit                             obj/main/CC3D/stm32f10x_rcc.o (symbol from plugin)
RCC_ClockSecuritySystemCmd                        obj/main/CC3D/stm32f10x_rcc.o (symbol from plugin)
RCC_DeInit                                        obj/main/CC3D/stm32f10x_rcc.o (symbol from plugin)
RCC_GetClocksFreq                                 /tmp/ccZkfwo0.ltrans7.ltrans.o
                                                  obj/main/CC3D/stm32f10x_rcc.o (symbol from plugin)
                                                  /tmp/ccZkfwo0.ltrans15.ltrans.o
                                                  /tmp/ccZkfwo0.ltrans13.ltrans.o
                                                  /tmp/ccZkfwo0.ltrans0.ltrans.o
                                                  obj/main/CC3D/stm32f10x_usart.o (symbol from plugin)
                                                  obj/main/CC3D/stm32f10x_spi.o (symbol from plugin)
                                                  obj/main/CC3D/stm32f10x_i2c.o (symbol from plugin)
                                                  obj/main/CC3D/drivers/system.o (symbol from plugin)
RCC_GetFlagStatus                                 obj/main/CC3D/stm32f10x_rcc.o (symbol from plugin)
RCC_GetITStatus                                   obj/main/CC3D/stm32f10x_rcc.o (symbol from plugin)
RCC_GetSYSCLKSource                               obj/main/CC3D/stm32f10x_rcc.o (symbol from plugin)
RCC_HCLKConfig                                    obj/main/CC3D/stm32f10x_rcc.o (symbol from plugin)
RCC_HSEConfig                                     obj/main/CC3D/stm32f10x_rcc.o (symbol from plugin)
RCC_HSICmd                                        obj/main/CC3D/stm32f10x_rcc.o (symbol from plugin)
RCC_IRQHandler                                    obj/main/CC3D/startup_stm32f10x_md_gcc.o
RCC_ITConfig                                      obj/main/CC3D/stm32f10x_rcc.o (symbol from plugin)
RCC_LSEConfig                                     obj/main/CC3D/stm32f10x_rcc.o (symbol from plugin)
RCC_LSICmd                                        obj/main/CC3D/stm32f10x_rcc.o (symbol from plugin)
RCC_MCOConfig                                     obj/main/CC3D/stm32f10x_rcc.o (symbol from plugin)
RCC_PCLK1Config                                   obj/main/CC3D/stm32f10x_rcc.o (symbol from plugin)
RCC_PCLK2Config                                   obj/main/CC3D/stm32f10x_rcc.o (symbol from plugin)
RCC_PLLCmd                                        obj/main/CC3D/stm32f10x_rcc.o (symbol from plugin)
RCC_PLLConfig                                     obj/main/CC3D/stm32f10x_rcc.o (symbol from plugin)
RCC_RTCCLKCmd                                     obj/main/CC3D/stm32f10x_rcc.o (symbol from plugin)
RCC_RTCCLKConfig                                  obj/main/CC3D/stm32f10x_rcc.o (symbol from plugin)
RCC_SYSCLKConfig                                  obj/main/CC3D/stm32f10x_rcc.o (symbol from plugin)
RCC_USBCLKConfig                                  obj/main/CC3D/stm32f10x_rcc.o (symbol from plugin)
                                                  obj/main/CC3D/vcp/hw_config.o (symbol from plugin)
RCC_WaitForHSEStartUp                             obj/main/CC3D/stm32f10x_rcc.o (symbol from plugin)
RTCAlarm_IRQHandler                               obj/main/CC3D/startup_stm32f10x_md_gcc.o
RTC_ClearFlag                                     obj/main/CC3D/stm32f10x_rtc.o (symbol from plugin)
RTC_ClearITPendingBit                             obj/main/CC3D/stm32f10x_rtc.o (symbol from plugin)
RTC_EnterConfigMode                               obj/main/CC3D/stm32f10x_rtc.o (symbol from plugin)
RTC_ExitConfigMode                                obj/main/CC3D/stm32f10x_rtc.o (symbol from plugin)
RTC_GetCounter                                    obj/main/CC3D/stm32f10x_rtc.o (symbol from plugin)
RTC_GetDivider                                    obj/main/CC3D/stm32f10x_rtc.o (symbol from plugin)
RTC_GetFlagStatus                                 obj/main/CC3D/stm32f10x_rtc.o (symbol from plugin)
RTC_GetITStatus                                   obj/main/CC3D/stm32f10x_rtc.o (symbol from plugin)
RTC_IRQHandler                                    obj/main/CC3D/startup_stm32f10x_md_gcc.o
RTC_ITConfig                                      obj/main/CC3D/stm32f10x_rtc.o (symbol from plugin)
RTC_SetAlarm                                      obj/main/CC3D/stm32f10x_rtc.o (symbol from plugin)
RTC_SetCounter                                    obj/main/CC3D/stm32f10x_rtc.o (symbol from plugin)
RTC_SetPrescaler                                  obj/main/CC3D/stm32f10x_rtc.o (symbol from plugin)
RTC_WaitForLastTask                               obj/main/CC3D/stm32f10x_rtc.o (symbol from plugin)
RTC_WaitForSynchro                                obj/main/CC3D/stm32f10x_rtc.o (symbol from plugin)
ReadBit.lto_priv.267                              /tmp/ccZkfwo0.ltrans8.ltrans.o
                                                  /tmp/ccZkfwo0.ltrans10.ltrans.o
ReadByte.lto_priv.394                             /tmp/ccZkfwo0.ltrans8.ltrans.o
                                                  /tmp/ccZkfwo0.ltrans1.ltrans.o
ReadByteCrc.lto_priv.395                          /tmp/ccZkfwo0.ltrans8.ltrans.o
                                                  /tmp/ccZkfwo0.ltrans1.ltrans.o
Request                                           obj/main/CC3D/vcp/usb_prop.o (symbol from plugin)
Reset_Handler                                     obj/main/CC3D/startup_stm32f10x_md_gcc.o
Resume                                            obj/main/CC3D/vcp/usb_pwr.o (symbol from plugin)
                                                  obj/main/CC3D/vcp/usb_istr.o (symbol from plugin)
ResumeS                                           obj/main/CC3D/vcp/usb_pwr.o (symbol from plugin)
Resume_Init                                       /tmp/ccZkfwo0.ltrans24.ltrans.o
                                                  obj/main/CC3D/vcp/usb_pwr.o (symbol from plugin)
                                                  /tmp/ccZkfwo0.ltrans17.ltrans.o
SDIO_CEATAITCmd                                   obj/main/CC3D/stm32f10x_sdio.o (symbol from plugin)
SDIO_ClearFlag                                    obj/main/CC3D/stm32f10x_sdio.o (symbol from plugin)
SDIO_ClearITPendingBit                            obj/main/CC3D/stm32f10x_sdio.o (symbol from plugin)
SDIO_ClockCmd                                     obj/main/CC3D/stm32f10x_sdio.o (symbol from plugin)
SDIO_CmdStructInit                                obj/main/CC3D/stm32f10x_sdio.o (symbol from plugin)
SDIO_CommandCompletionCmd                         obj/main/CC3D/stm32f10x_sdio.o (symbol from plugin)
SDIO_DMACmd                                       obj/main/CC3D/stm32f10x_sdio.o (symbol from plugin)
SDIO_DataConfig                                   obj/main/CC3D/stm32f10x_sdio.o (symbol from plugin)
SDIO_DataStructInit                               obj/main/CC3D/stm32f10x_sdio.o (symbol from plugin)
SDIO_DeInit                                       obj/main/CC3D/stm32f10x_sdio.o (symbol from plugin)
SDIO_GetCommandResponse                           obj/main/CC3D/stm32f10x_sdio.o (symbol from plugin)
SDIO_GetDataCounter                               obj/main/CC3D/stm32f10x_sdio.o (symbol from plugin)
SDIO_GetFIFOCount                                 obj/main/CC3D/stm32f10x_sdio.o (symbol from plugin)
SDIO_GetFlagStatus                                obj/main/CC3D/stm32f10x_sdio.o (symbol from plugin)
SDIO_GetITStatus                                  obj/main/CC3D/stm32f10x_sdio.o (symbol from plugin)
SDIO_GetPowerState                                obj/main/CC3D/stm32f10x_sdio.o (symbol from plugin)
SDIO_GetResponse                                  obj/main/CC3D/stm32f10x_sdio.o (symbol from plugin)
SDIO_ITConfig                                     obj/main/CC3D/stm32f10x_sdio.o (symbol from plugin)
SDIO_Init                                         obj/main/CC3D/stm32f10x_sdio.o (symbol from plugin)
SDIO_ReadData                                     obj/main/CC3D/stm32f10x_sdio.o (symbol from plugin)
SDIO_SendCEATACmd                                 obj/main/CC3D/stm32f10x_sdio.o (symbol from plugin)
SDIO_SendCommand                                  obj/main/CC3D/stm32f10x_sdio.o (symbol from plugin)
SDIO_SendSDIOSuspendCmd                           obj/main/CC3D/stm32f10x_sdio.o (symbol from plugin)
SDIO_SetPowerState                                obj/main/CC3D/stm32f10x_sdio.o (symbol from plugin)
SDIO_SetSDIOOperation                             obj/main/CC3D/stm32f10x_sdio.o (symbol from plugin)
SDIO_SetSDIOReadWaitMode                          obj/main/CC3D/stm32f10x_sdio.o (symbol from plugin)
SDIO_StartSDIOReadWait                            obj/main/CC3D/stm32f10x_sdio.o (symbol from plugin)
SDIO_StopSDIOReadWait                             obj/main/CC3D/stm32f10x_sdio.o (symbol from plugin)
SDIO_StructInit                                   obj/main/CC3D/stm32f10x_sdio.o (symbol from plugin)
SDIO_WriteData                                    obj/main/CC3D/stm32f10x_sdio.o (symbol from plugin)
SPI1_IRQHandler                                   obj/main/CC3D/startup_stm32f10x_md_gcc.o
SPI2_IRQHandler                                   obj/main/CC3D/startup_stm32f10x_md_gcc.o
SPI_BiDirectionalLineConfig                       obj/main/CC3D/stm32f10x_spi.o (symbol from plugin)
SPI_CalculateCRC                                  obj/main/CC3D/stm32f10x_spi.o (symbol from plugin)
SPI_Cmd                                           obj/main/CC3D/stm32f10x_spi.o (symbol from plugin)
                                                  obj/main/CC3D/drivers/bus_spi.o (symbol from plugin)
SPI_DataSizeConfig                                obj/main/CC3D/stm32f10x_spi.o (symbol from plugin)
SPI_GetCRC                                        obj/main/CC3D/stm32f10x_spi.o (symbol from plugin)
SPI_GetCRCPolynomial                              obj/main/CC3D/stm32f10x_spi.o (symbol from plugin)
SPI_I2S_ClearFlag                                 obj/main/CC3D/stm32f10x_spi.o (symbol from plugin)
SPI_I2S_ClearITPendingBit                         obj/main/CC3D/stm32f10x_spi.o (symbol from plugin)
SPI_I2S_DMACmd                                    obj/main/CC3D/stm32f10x_spi.o (symbol from plugin)
SPI_I2S_DeInit                                    obj/main/CC3D/stm32f10x_spi.o (symbol from plugin)
                                                  obj/main/CC3D/drivers/bus_spi.o (symbol from plugin)
SPI_I2S_GetFlagStatus                             obj/main/CC3D/stm32f10x_spi.o (symbol from plugin)
                                                  obj/main/CC3D/drivers/bus_spi.o (symbol from plugin)
SPI_I2S_GetITStatus                               obj/main/CC3D/stm32f10x_spi.o (symbol from plugin)
SPI_I2S_ITConfig                                  obj/main/CC3D/stm32f10x_spi.o (symbol from plugin)
SPI_I2S_ReceiveData                               obj/main/CC3D/stm32f10x_spi.o (symbol from plugin)
                                                  obj/main/CC3D/drivers/bus_spi.o (symbol from plugin)
SPI_I2S_SendData                                  obj/main/CC3D/stm32f10x_spi.o (symbol from plugin)
                                                  obj/main/CC3D/drivers/bus_spi.o (symbol from plugin)
SPI_Init                                          obj/main/CC3D/stm32f10x_spi.o (symbol from plugin)
                                                  obj/main/CC3D/drivers/bus_spi.o (symbol from plugin)
SPI_NSSInternalSoftwareConfig                     obj/main/CC3D/stm32f10x_spi.o (symbol from plugin)
SPI_SSOutputCmd                                   obj/main/CC3D/stm32f10x_spi.o (symbol from plugin)
SPI_StructInit                                    obj/main/CC3D/stm32f10x_spi.o (symbol from plugin)
SPI_TransmitCRC                                   obj/main/CC3D/stm32f10x_spi.o (symbol from plugin)
SVC_Handler                                       /tmp/ccZkfwo0.ltrans17.ltrans.o
                                                  obj/main/CC3D/vcp/stm32_it.o (symbol from plugin)
                                                  obj/main/CC3D/startup_stm32f10x_md_gcc.o
SaveRState                                        /tmp/ccZkfwo0.ltrans17.ltrans.o
                                                  obj/main/CC3D/usb_int.o (symbol from plugin)
                                                  /tmp/ccZkfwo0.ltrans7.ltrans.o
                                                  obj/main/CC3D/usb_core.o (symbol from plugin)
SaveState                                         obj/main/CC3D/usb_init.o (symbol from plugin)
SaveTState                                        /tmp/ccZkfwo0.ltrans17.ltrans.o
                                                  obj/main/CC3D/usb_int.o (symbol from plugin)
                                                  /tmp/ccZkfwo0.ltrans7.ltrans.o
                                                  obj/main/CC3D/usb_core.o (symbol from plugin)
SeqNumber.lto_priv.270                            /tmp/ccZkfwo0.ltrans10.ltrans.o
                                                  /tmp/ccZkfwo0.ltrans8.ltrans.o
SetBTABLE                                         obj/main/CC3D/usb_regs.o (symbol from plugin)
                                                  obj/main/CC3D/vcp/usb_prop.o (symbol from plugin)
SetCNTR                                           obj/main/CC3D/usb_regs.o (symbol from plugin)
SetDADDR                                          obj/main/CC3D/usb_regs.o (symbol from plugin)
SetDeviceAddress                                  /tmp/ccZkfwo0.ltrans17.ltrans.o
                                                  obj/main/CC3D/usb_core.o (symbol from plugin)
                                                  /tmp/ccZkfwo0.ltrans26.ltrans.o
                                                  obj/main/CC3D/vcp/usb_prop.o (symbol from plugin)
SetDouBleBuffEPStall                              obj/main/CC3D/usb_regs.o (symbol from plugin)
SetENDPOINT                                       obj/main/CC3D/usb_regs.o (symbol from plugin)
SetEPAddress                                      obj/main/CC3D/usb_regs.o (symbol from plugin)
SetEPCountRxReg                                   obj/main/CC3D/usb_regs.o (symbol from plugin)
SetEPDblBuf0Addr                                  obj/main/CC3D/usb_regs.o (symbol from plugin)
SetEPDblBuf0Count                                 obj/main/CC3D/usb_regs.o (symbol from plugin)
SetEPDblBuf1Addr                                  obj/main/CC3D/usb_regs.o (symbol from plugin)
SetEPDblBuf1Count                                 obj/main/CC3D/usb_regs.o (symbol from plugin)
SetEPDblBuffAddr                                  obj/main/CC3D/usb_regs.o (symbol from plugin)
SetEPDblBuffCount                                 obj/main/CC3D/usb_regs.o (symbol from plugin)
SetEPDoubleBuff                                   obj/main/CC3D/usb_regs.o (symbol from plugin)
SetEPRxAddr                                       obj/main/CC3D/usb_regs.o (symbol from plugin)
                                                  obj/main/CC3D/vcp/usb_prop.o (symbol from plugin)
SetEPRxCount                                      /tmp/ccZkfwo0.ltrans17.ltrans.o
                                                  obj/main/CC3D/usb_regs.o (symbol from plugin)
                                                  /tmp/ccZkfwo0.ltrans26.ltrans.o
                                                  /tmp/ccZkfwo0.ltrans24.ltrans.o
                                                  /tmp/ccZkfwo0.ltrans7.ltrans.o
                                                  obj/main/CC3D/vcp/usb_prop.o (symbol from plugin)
                                                  obj/main/CC3D/vcp/hw_config.o (symbol from plugin)
                                                  obj/main/CC3D/usb_core.o (symbol from plugin)
SetEPRxStatus                                     obj/main/CC3D/usb_regs.o (symbol from plugin)
                                                  obj/main/CC3D/vcp/usb_prop.o (symbol from plugin)
                                                  obj/main/CC3D/vcp/hw_config.o (symbol from plugin)
SetEPRxValid                                      obj/main/CC3D/usb_regs.o (symbol from plugin)
                                                  obj/main/CC3D/vcp/usb_prop.o (symbol from plugin)
SetEPTxAddr                                       obj/main/CC3D/usb_regs.o (symbol from plugin)
                                                  obj/main/CC3D/vcp/usb_prop.o (symbol from plugin)
SetEPTxCount                                      obj/main/CC3D/usb_regs.o (symbol from plugin)
                                                  obj/main/CC3D/vcp/hw_config.o (symbol from plugin)
                                                  obj/main/CC3D/usb_sil.o (symbol from plugin)
                                                  obj/main/CC3D/usb_core.o (symbol from plugin)
SetEPTxStatus                                     obj/main/CC3D/usb_regs.o (symbol from plugin)
                                                  obj/main/CC3D/vcp/usb_prop.o (symbol from plugin)
                                                  obj/main/CC3D/usb_core.o (symbol from plugin)
SetEPTxValid                                      obj/main/CC3D/usb_regs.o (symbol from plugin)
                                                  obj/main/CC3D/vcp/hw_config.o (symbol from plugin)
SetEPType                                         obj/main/CC3D/usb_regs.o (symbol from plugin)
                                                  obj/main/CC3D/vcp/usb_prop.o (symbol from plugin)
SetEP_KIND                                        obj/main/CC3D/usb_regs.o (symbol from plugin)
SetISTR                                           obj/main/CC3D/usb_regs.o (symbol from plugin)
SetSysClock                                       obj/main/CC3D/system_stm32f10x.o (symbol from plugin)
                                                  obj/main/CC3D/main.o (symbol from plugin)
Set_Status_Out                                    obj/main/CC3D/usb_regs.o (symbol from plugin)
Set_System                                        obj/main/CC3D/vcp/hw_config.o (symbol from plugin)
                                                  obj/main/CC3D/drivers/serial_usb_vcp.o (symbol from plugin)
Set_USBClock                                      obj/main/CC3D/vcp/hw_config.o (symbol from plugin)
                                                  obj/main/CC3D/drivers/serial_usb_vcp.o (symbol from plugin)
Setup0_Process                                    obj/main/CC3D/usb_core.o (symbol from plugin)
                                                  obj/main/CC3D/usb_int.o (symbol from plugin)
Standard_ClearFeature                             /tmp/ccZkfwo0.ltrans7.ltrans.o
                                                  obj/main/CC3D/usb_core.o (symbol from plugin)
                                                  /tmp/ccZkfwo0.ltrans17.ltrans.o
Standard_GetConfiguration                         /tmp/ccZkfwo0.ltrans7.ltrans.o
                                                  obj/main/CC3D/usb_core.o (symbol from plugin)
                                                  /tmp/ccZkfwo0.ltrans17.ltrans.o
Standard_GetDescriptorData                        obj/main/CC3D/usb_core.o (symbol from plugin)
                                                  obj/main/CC3D/vcp/usb_prop.o (symbol from plugin)
Standard_GetInterface                             /tmp/ccZkfwo0.ltrans7.ltrans.o
                                                  obj/main/CC3D/usb_core.o (symbol from plugin)
                                                  /tmp/ccZkfwo0.ltrans17.ltrans.o
Standard_GetStatus                                /tmp/ccZkfwo0.ltrans7.ltrans.o
                                                  obj/main/CC3D/usb_core.o (symbol from plugin)
                                                  /tmp/ccZkfwo0.ltrans17.ltrans.o
Standard_SetConfiguration                         obj/main/CC3D/usb_core.o (symbol from plugin)
Standard_SetDeviceFeature                         obj/main/CC3D/usb_core.o (symbol from plugin)
Standard_SetEndPointFeature                       obj/main/CC3D/usb_core.o (symbol from plugin)
Standard_SetInterface                             obj/main/CC3D/usb_core.o (symbol from plugin)
StatusInfo                                        obj/main/CC3D/usb_core.o (symbol from plugin)
StkCmd.lto_priv.265                               /tmp/ccZkfwo0.ltrans24.ltrans.o
                                                  /tmp/ccZkfwo0.ltrans10.ltrans.o
                                                  /tmp/ccZkfwo0.ltrans1.ltrans.o
StkInBuf.lto_priv.266                             /tmp/ccZkfwo0.ltrans24.ltrans.o
                                                  /tmp/ccZkfwo0.ltrans10.ltrans.o
                                                  /tmp/ccZkfwo0.ltrans1.ltrans.o
StkRcvPacket.lto_priv.187                         /tmp/ccZkfwo0.ltrans10.ltrans.o
                                                  /tmp/ccZkfwo0.ltrans24.ltrans.o
                                                  /tmp/ccZkfwo0.ltrans1.ltrans.o
StkSendByte.lto_priv.185                          /tmp/ccZkfwo0.ltrans8.ltrans.o
                                                  /tmp/ccZkfwo0.ltrans24.ltrans.o
                                                  /tmp/ccZkfwo0.ltrans10.ltrans.o
                                                  /tmp/ccZkfwo0.ltrans1.ltrans.o
StkSendPacketFooter.lto_priv.186                  /tmp/ccZkfwo0.ltrans8.ltrans.o
                                                  /tmp/ccZkfwo0.ltrans24.ltrans.o
                                                  /tmp/ccZkfwo0.ltrans10.ltrans.o
                                                  /tmp/ccZkfwo0.ltrans1.ltrans.o
StkSendPacketHeader.lto_priv.184                  /tmp/ccZkfwo0.ltrans8.ltrans.o
                                                  /tmp/ccZkfwo0.ltrans24.ltrans.o
                                                  /tmp/ccZkfwo0.ltrans10.ltrans.o
                                                  /tmp/ccZkfwo0.ltrans1.ltrans.o
Stk_Chip_Erase                                    obj/main/CC3D/io/serial_4way_stk500v2.o (symbol from plugin)
                                                  obj/main/CC3D/io/serial_4way.o (symbol from plugin)
Stk_ConnectEx                                     obj/main/CC3D/io/serial_4way_stk500v2.o (symbol from plugin)
                                                  obj/main/CC3D/io/serial_4way.o (symbol from plugin)
Stk_ReadEEprom                                    obj/main/CC3D/io/serial_4way_stk500v2.o (symbol from plugin)
                                                  obj/main/CC3D/io/serial_4way.o (symbol from plugin)
Stk_ReadFlash                                     obj/main/CC3D/io/serial_4way_stk500v2.o (symbol from plugin)
                                                  obj/main/CC3D/io/serial_4way.o (symbol from plugin)
Stk_SignOn                                        /tmp/ccZkfwo0.ltrans10.ltrans.o
                                                  obj/main/CC3D/io/serial_4way_stk500v2.o (symbol from plugin)
                                                  /tmp/ccZkfwo0.ltrans1.ltrans.o
                                                  obj/main/CC3D/io/serial_4way.o (symbol from plugin)
Stk_WriteEEprom                                   obj/main/CC3D/io/serial_4way_stk500v2.o (symbol from plugin)
                                                  obj/main/CC3D/io/serial_4way.o (symbol from plugin)
Stk_WriteFlash                                    obj/main/CC3D/io/serial_4way_stk500v2.o (symbol from plugin)
                                                  obj/main/CC3D/io/serial_4way.o (symbol from plugin)
StopPwmAllMotors                                  obj/main/CC3D/flight/mixer.o (symbol from plugin)
                                                  obj/main/CC3D/config/config.o (symbol from plugin)
String_Descriptor                                 obj/main/CC3D/vcp/usb_prop.o (symbol from plugin)
Suspend                                           obj/main/CC3D/vcp/usb_pwr.o (symbol from plugin)
SysTick_CLKSourceConfig                           obj/main/CC3D/misc.o (symbol from plugin)
SysTick_Handler                                   /tmp/ccZkfwo0.ltrans19.ltrans.o
                                                  obj/main/CC3D/drivers/system.o (symbol from plugin)
                                                  obj/main/CC3D/startup_stm32f10x_md_gcc.o
SystemCoreClock                                   /tmp/ccZkfwo0.ltrans16.ltrans.o
                                                  obj/main/CC3D/system_stm32f10x.o (symbol from plugin)
                                                  /tmp/ccZkfwo0.ltrans13.ltrans.o
                                                  /tmp/ccZkfwo0.ltrans6.ltrans.o
                                                  /tmp/ccZkfwo0.ltrans0.ltrans.o
                                                  obj/main/CC3D/io/serial_cli.o (symbol from plugin)
                                                  obj/main/CC3D/drivers/system.o (symbol from plugin)
                                                  obj/main/CC3D/drivers/timer.o (symbol from plugin)
                                                  obj/main/CC3D/drivers/serial_softserial.o (symbol from plugin)
                                                  obj/main/CC3D/drivers/light_ws2811strip_stm32f10x.o (symbol from plugin)
SystemCoreClockUpdate                             obj/main/CC3D/system_stm32f10x.o (symbol from plugin)
SystemInit                                        /tmp/ccZkfwo0.ltrans7.ltrans.o
                                                  obj/main/CC3D/system_stm32f10x.o (symbol from plugin)
                                                  /tmp/ccZkfwo0.ltrans24.ltrans.o
                                                  obj/main/CC3D/vcp/hw_config.o (symbol from plugin)
                                                  obj/main/CC3D/startup_stm32f10x_md_gcc.o
TAMPER_IRQHandler                                 obj/main/CC3D/startup_stm32f10x_md_gcc.o
TIM1_BRK_IRQHandler                               obj/main/CC3D/startup_stm32f10x_md_gcc.o
TIM1_CC_IRQHandler                                /tmp/ccZkfwo0.ltrans12.ltrans.o
                                                  obj/main/CC3D/drivers/timer.o (symbol from plugin)
                                                  obj/main/CC3D/startup_stm32f10x_md_gcc.o
TIM1_TRG_COM_IRQHandler                           obj/main/CC3D/startup_stm32f10x_md_gcc.o
TIM1_UP_IRQHandler                                /tmp/ccZkfwo0.ltrans12.ltrans.o
                                                  obj/main/CC3D/drivers/timer.o (symbol from plugin)
                                                  obj/main/CC3D/startup_stm32f10x_md_gcc.o
TIM2_IRQHandler                                   /tmp/ccZkfwo0.ltrans12.ltrans.o
                                                  obj/main/CC3D/drivers/timer.o (symbol from plugin)
                                                  obj/main/CC3D/startup_stm32f10x_md_gcc.o
TIM3_IRQHandler                                   /tmp/ccZkfwo0.ltrans12.ltrans.o
                                                  obj/main/CC3D/drivers/timer.o (symbol from plugin)
                                                  obj/main/CC3D/startup_stm32f10x_md_gcc.o
TIM4_IRQHandler                                   /tmp/ccZkfwo0.ltrans12.ltrans.o
                                                  obj/main/CC3D/drivers/timer.o (symbol from plugin)
                                                  obj/main/CC3D/startup_stm32f10x_md_gcc.o
TIM_ARRPreloadConfig                              obj/main/CC3D/stm32f10x_tim.o (symbol from plugin)
TIM_BDTRConfig                                    obj/main/CC3D/stm32f10x_tim.o (symbol from plugin)
TIM_BDTRStructInit                                obj/main/CC3D/stm32f10x_tim.o (symbol from plugin)
TIM_CCPreloadControl                              obj/main/CC3D/stm32f10x_tim.o (symbol from plugin)
TIM_CCxCmd                                        obj/main/CC3D/stm32f10x_tim.o (symbol from plugin)
TIM_CCxNCmd                                       obj/main/CC3D/stm32f10x_tim.o (symbol from plugin)
TIM_ClearFlag                                     obj/main/CC3D/stm32f10x_tim.o (symbol from plugin)
                                                  obj/main/CC3D/drivers/timer.o (symbol from plugin)
TIM_ClearITPendingBit                             obj/main/CC3D/stm32f10x_tim.o (symbol from plugin)
TIM_ClearOC1Ref                                   obj/main/CC3D/stm32f10x_tim.o (symbol from plugin)
TIM_ClearOC2Ref                                   obj/main/CC3D/stm32f10x_tim.o (symbol from plugin)
TIM_ClearOC3Ref                                   obj/main/CC3D/stm32f10x_tim.o (symbol from plugin)
TIM_ClearOC4Ref                                   obj/main/CC3D/stm32f10x_tim.o (symbol from plugin)
TIM_Cmd                                           obj/main/CC3D/stm32f10x_tim.o (symbol from plugin)
                                                  obj/main/CC3D/drivers/timer.o (symbol from plugin)
                                                  obj/main/CC3D/drivers/pwm_output.o (symbol from plugin)
                                                  obj/main/CC3D/drivers/light_ws2811strip_stm32f10x.o (symbol from plugin)
TIM_CounterModeConfig                             obj/main/CC3D/stm32f10x_tim.o (symbol from plugin)
TIM_CtrlPWMOutputs                                obj/main/CC3D/stm32f10x_tim.o (symbol from plugin)
                                                  obj/main/CC3D/drivers/pwm_output.o (symbol from plugin)
                                                  obj/main/CC3D/drivers/light_ws2811strip_stm32f10x.o (symbol from plugin)
TIM_DMACmd                                        obj/main/CC3D/stm32f10x_tim.o (symbol from plugin)
                                                  obj/main/CC3D/drivers/light_ws2811strip_stm32f10x.o (symbol from plugin)
TIM_DMAConfig                                     obj/main/CC3D/stm32f10x_tim.o (symbol from plugin)
TIM_DeInit                                        obj/main/CC3D/stm32f10x_tim.o (symbol from plugin)
TIM_ETRClockMode1Config                           obj/main/CC3D/stm32f10x_tim.o (symbol from plugin)
TIM_ETRClockMode2Config                           obj/main/CC3D/stm32f10x_tim.o (symbol from plugin)
TIM_ETRConfig                                     obj/main/CC3D/stm32f10x_tim.o (symbol from plugin)
TIM_EncoderInterfaceConfig                        obj/main/CC3D/stm32f10x_tim.o (symbol from plugin)
TIM_ForcedOC1Config                               obj/main/CC3D/stm32f10x_tim.o (symbol from plugin)
TIM_ForcedOC2Config                               obj/main/CC3D/stm32f10x_tim.o (symbol from plugin)
TIM_ForcedOC3Config                               obj/main/CC3D/stm32f10x_tim.o (symbol from plugin)
TIM_ForcedOC4Config                               obj/main/CC3D/stm32f10x_tim.o (symbol from plugin)
TIM_GenerateEvent                                 obj/main/CC3D/stm32f10x_tim.o (symbol from plugin)
TIM_GetCapture1                                   obj/main/CC3D/stm32f10x_tim.o (symbol from plugin)
TIM_GetCapture2                                   obj/main/CC3D/stm32f10x_tim.o (symbol from plugin)
TIM_GetCapture3                                   obj/main/CC3D/stm32f10x_tim.o (symbol from plugin)
TIM_GetCapture4                                   obj/main/CC3D/stm32f10x_tim.o (symbol from plugin)
TIM_GetCounter                                    obj/main/CC3D/stm32f10x_tim.o (symbol from plugin)
TIM_GetFlagStatus                                 obj/main/CC3D/stm32f10x_tim.o (symbol from plugin)
TIM_GetITStatus                                   obj/main/CC3D/stm32f10x_tim.o (symbol from plugin)
TIM_GetPrescaler                                  obj/main/CC3D/stm32f10x_tim.o (symbol from plugin)
TIM_ICInit                                        /tmp/ccZkfwo0.ltrans7.ltrans.o
                                                  obj/main/CC3D/stm32f10x_tim.o (symbol from plugin)
                                                  /tmp/ccZkfwo0.ltrans6.ltrans.o
                                                  obj/main/CC3D/drivers/timer.o (symbol from plugin)
                                                  obj/main/CC3D/drivers/serial_softserial.o (symbol from plugin)
                                                  obj/main/CC3D/drivers/pwm_rx.o (symbol from plugin)
TIM_ICStructInit                                  obj/main/CC3D/stm32f10x_tim.o (symbol from plugin)
                                                  obj/main/CC3D/drivers/timer.o (symbol from plugin)
                                                  obj/main/CC3D/drivers/serial_softserial.o (symbol from plugin)
                                                  obj/main/CC3D/drivers/pwm_rx.o (symbol from plugin)
TIM_ITConfig                                      obj/main/CC3D/stm32f10x_tim.o (symbol from plugin)
                                                  obj/main/CC3D/drivers/timer.o (symbol from plugin)
TIM_ITRxExternalClockConfig                       obj/main/CC3D/stm32f10x_tim.o (symbol from plugin)
TIM_InternalClockConfig                           obj/main/CC3D/stm32f10x_tim.o (symbol from plugin)
TIM_OC1FastConfig                                 obj/main/CC3D/stm32f10x_tim.o (symbol from plugin)
TIM_OC1Init                                       obj/main/CC3D/stm32f10x_tim.o (symbol from plugin)
                                                  obj/main/CC3D/drivers/timer.o (symbol from plugin)
                                                  obj/main/CC3D/drivers/pwm_output.o (symbol from plugin)
                                                  obj/main/CC3D/drivers/light_ws2811strip_stm32f10x.o (symbol from plugin)
TIM_OC1NPolarityConfig                            obj/main/CC3D/stm32f10x_tim.o (symbol from plugin)
TIM_OC1PolarityConfig                             obj/main/CC3D/stm32f10x_tim.o (symbol from plugin)
TIM_OC1PreloadConfig                              obj/main/CC3D/stm32f10x_tim.o (symbol from plugin)
                                                  obj/main/CC3D/drivers/timer.o (symbol from plugin)
                                                  obj/main/CC3D/drivers/pwm_output.o (symbol from plugin)
                                                  obj/main/CC3D/drivers/light_ws2811strip_stm32f10x.o (symbol from plugin)
TIM_OC2FastConfig                                 obj/main/CC3D/stm32f10x_tim.o (symbol from plugin)
TIM_OC2Init                                       obj/main/CC3D/stm32f10x_tim.o (symbol from plugin)
                                                  obj/main/CC3D/drivers/timer.o (symbol from plugin)
                                                  obj/main/CC3D/drivers/pwm_output.o (symbol from plugin)
TIM_OC2NPolarityConfig                            obj/main/CC3D/stm32f10x_tim.o (symbol from plugin)
TIM_OC2PolarityConfig                             obj/main/CC3D/stm32f10x_tim.o (symbol from plugin)
TIM_OC2PreloadConfig                              obj/main/CC3D/stm32f10x_tim.o (symbol from plugin)
                                                  obj/main/CC3D/drivers/timer.o (symbol from plugin)
                                                  obj/main/CC3D/drivers/pwm_output.o (symbol from plugin)
TIM_OC3FastConfig                                 obj/main/CC3D/stm32f10x_tim.o (symbol from plugin)
TIM_OC3Init                                       obj/main/CC3D/stm32f10x_tim.o (symbol from plugin)
                                                  obj/main/CC3D/drivers/timer.o (symbol from plugin)
                                                  obj/main/CC3D/drivers/pwm_output.o (symbol from plugin)
TIM_OC3NPolarityConfig                            obj/main/CC3D/stm32f10x_tim.o (symbol from plugin)
TIM_OC3PolarityConfig                             obj/main/CC3D/stm32f10x_tim.o (symbol from plugin)
TIM_OC3PreloadConfig                              obj/main/CC3D/stm32f10x_tim.o (symbol from plugin)
                                                  obj/main/CC3D/drivers/timer.o (symbol from plugin)
                                                  obj/main/CC3D/drivers/pwm_output.o (symbol from plugin)
TIM_OC4FastConfig                                 obj/main/CC3D/stm32f10x_tim.o (symbol from plugin)
TIM_OC4Init                                       obj/main/CC3D/stm32f10x_tim.o (symbol from plugin)
                                                  obj/main/CC3D/drivers/timer.o (symbol from plugin)
                                                  obj/main/CC3D/drivers/pwm_output.o (symbol from plugin)
TIM_OC4PolarityConfig                             obj/main/CC3D/stm32f10x_tim.o (symbol from plugin)
TIM_OC4PreloadConfig                              obj/main/CC3D/stm32f10x_tim.o (symbol from plugin)
                                                  obj/main/CC3D/drivers/timer.o (symbol from plugin)
                                                  obj/main/CC3D/drivers/pwm_output.o (symbol from plugin)
TIM_OCStructInit                                  obj/main/CC3D/stm32f10x_tim.o (symbol from plugin)
                                                  obj/main/CC3D/drivers/timer.o (symbol from plugin)
                                                  obj/main/CC3D/drivers/pwm_output.o (symbol from plugin)
                                                  obj/main/CC3D/drivers/light_ws2811strip_stm32f10x.o (symbol from plugin)
TIM_PWMIConfig                                    obj/main/CC3D/stm32f10x_tim.o (symbol from plugin)
TIM_PrescalerConfig                               obj/main/CC3D/stm32f10x_tim.o (symbol from plugin)
TIM_SelectCCDMA                                   obj/main/CC3D/stm32f10x_tim.o (symbol from plugin)
TIM_SelectCOM                                     obj/main/CC3D/stm32f10x_tim.o (symbol from plugin)
TIM_SelectHallSensor                              obj/main/CC3D/stm32f10x_tim.o (symbol from plugin)
TIM_SelectInputTrigger                            obj/main/CC3D/stm32f10x_tim.o (symbol from plugin)
TIM_SelectMasterSlaveMode                         obj/main/CC3D/stm32f10x_tim.o (symbol from plugin)
TIM_SelectOCxM                                    obj/main/CC3D/stm32f10x_tim.o (symbol from plugin)
TIM_SelectOCxM_NoDisable                          obj/main/CC3D/drivers/timer_stm32f10x.o (symbol from plugin)
TIM_SelectOnePulseMode                            obj/main/CC3D/stm32f10x_tim.o (symbol from plugin)
TIM_SelectOutputTrigger                           obj/main/CC3D/stm32f10x_tim.o (symbol from plugin)
TIM_SelectSlaveMode                               obj/main/CC3D/stm32f10x_tim.o (symbol from plugin)
TIM_SetAutoreload                                 obj/main/CC3D/stm32f10x_tim.o (symbol from plugin)
TIM_SetClockDivision                              obj/main/CC3D/stm32f10x_tim.o (symbol from plugin)
TIM_SetCompare1                                   obj/main/CC3D/stm32f10x_tim.o (symbol from plugin)
TIM_SetCompare2                                   obj/main/CC3D/stm32f10x_tim.o (symbol from plugin)
TIM_SetCompare3                                   obj/main/CC3D/stm32f10x_tim.o (symbol from plugin)
TIM_SetCompare4                                   obj/main/CC3D/stm32f10x_tim.o (symbol from plugin)
TIM_SetCounter                                    obj/main/CC3D/stm32f10x_tim.o (symbol from plugin)
                                                  obj/main/CC3D/drivers/serial_softserial.o (symbol from plugin)
                                                  obj/main/CC3D/drivers/light_ws2811strip_stm32f10x.o (symbol from plugin)
TIM_SetIC1Prescaler                               obj/main/CC3D/stm32f10x_tim.o (symbol from plugin)
TIM_SetIC2Prescaler                               obj/main/CC3D/stm32f10x_tim.o (symbol from plugin)
TIM_SetIC3Prescaler                               obj/main/CC3D/stm32f10x_tim.o (symbol from plugin)
TIM_SetIC4Prescaler                               obj/main/CC3D/stm32f10x_tim.o (symbol from plugin)
TIM_TIxExternalClockConfig                        obj/main/CC3D/stm32f10x_tim.o (symbol from plugin)
TIM_TimeBaseInit                                  obj/main/CC3D/stm32f10x_tim.o (symbol from plugin)
                                                  obj/main/CC3D/drivers/timer.o (symbol from plugin)
                                                  obj/main/CC3D/drivers/light_ws2811strip_stm32f10x.o (symbol from plugin)
TIM_TimeBaseStructInit                            obj/main/CC3D/stm32f10x_tim.o (symbol from plugin)
                                                  obj/main/CC3D/drivers/timer.o (symbol from plugin)
                                                  obj/main/CC3D/drivers/light_ws2811strip_stm32f10x.o (symbol from plugin)
TIM_UpdateDisableConfig                           obj/main/CC3D/stm32f10x_tim.o (symbol from plugin)
TIM_UpdateRequestConfig                           obj/main/CC3D/stm32f10x_tim.o (symbol from plugin)
ToWord                                            obj/main/CC3D/usb_regs.o (symbol from plugin)
ToggleDTOG_RX                                     obj/main/CC3D/usb_regs.o (symbol from plugin)
ToggleDTOG_TX                                     obj/main/CC3D/usb_regs.o (symbol from plugin)
USART1_IRQHandler                                 /tmp/ccZkfwo0.ltrans13.ltrans.o
                                                  obj/main/CC3D/drivers/serial_uart_stm32f10x.o (symbol from plugin)
                                                  obj/main/CC3D/startup_stm32f10x_md_gcc.o
USART2_IRQHandler                                 obj/main/CC3D/startup_stm32f10x_md_gcc.o
USART3_IRQHandler                                 /tmp/ccZkfwo0.ltrans13.ltrans.o
                                                  obj/main/CC3D/drivers/serial_uart_stm32f10x.o (symbol from plugin)
                                                  obj/main/CC3D/startup_stm32f10x_md_gcc.o
USART_ClearFlag                                   obj/main/CC3D/stm32f10x_usart.o (symbol from plugin)
USART_ClearITPendingBit                           obj/main/CC3D/stm32f10x_usart.o (symbol from plugin)
                                                  obj/main/CC3D/drivers/serial_uart.o (symbol from plugin)
USART_ClockInit                                   obj/main/CC3D/stm32f10x_usart.o (symbol from plugin)
USART_ClockStructInit                             obj/main/CC3D/stm32f10x_usart.o (symbol from plugin)
USART_Cmd                                         obj/main/CC3D/stm32f10x_usart.o (symbol from plugin)
                                                  obj/main/CC3D/drivers/serial_uart.o (symbol from plugin)
USART_DMACmd                                      obj/main/CC3D/stm32f10x_usart.o (symbol from plugin)
                                                  obj/main/CC3D/drivers/serial_uart.o (symbol from plugin)
USART_DeInit                                      obj/main/CC3D/stm32f10x_usart.o (symbol from plugin)
USART_GetFlagStatus                               obj/main/CC3D/stm32f10x_usart.o (symbol from plugin)
USART_GetITStatus                                 obj/main/CC3D/stm32f10x_usart.o (symbol from plugin)
USART_HalfDuplexCmd                               obj/main/CC3D/stm32f10x_usart.o (symbol from plugin)
                                                  obj/main/CC3D/drivers/serial_uart.o (symbol from plugin)
USART_ITConfig                                    obj/main/CC3D/stm32f10x_usart.o (symbol from plugin)
                                                  obj/main/CC3D/drivers/serial_uart_stm32f10x.o (symbol from plugin)
                                                  obj/main/CC3D/drivers/serial_uart.o (symbol from plugin)
USART_Init                                        obj/main/CC3D/stm32f10x_usart.o (symbol from plugin)
                                                  obj/main/CC3D/drivers/serial_uart.o (symbol from plugin)
USART_IrDACmd                                     obj/main/CC3D/stm32f10x_usart.o (symbol from plugin)
USART_IrDAConfig                                  obj/main/CC3D/stm32f10x_usart.o (symbol from plugin)
USART_LINBreakDetectLengthConfig                  obj/main/CC3D/stm32f10x_usart.o (symbol from plugin)
USART_LINCmd                                      obj/main/CC3D/stm32f10x_usart.o (symbol from plugin)
USART_OneBitMethodCmd                             obj/main/CC3D/stm32f10x_usart.o (symbol from plugin)
USART_OverSampling8Cmd                            obj/main/CC3D/stm32f10x_usart.o (symbol from plugin)
USART_ReceiveData                                 obj/main/CC3D/stm32f10x_usart.o (symbol from plugin)
USART_ReceiverWakeUpCmd                           obj/main/CC3D/stm32f10x_usart.o (symbol from plugin)
USART_SendBreak                                   obj/main/CC3D/stm32f10x_usart.o (symbol from plugin)
USART_SendData                                    obj/main/CC3D/stm32f10x_usart.o (symbol from plugin)
USART_SetAddress                                  obj/main/CC3D/stm32f10x_usart.o (symbol from plugin)
USART_SetGuardTime                                obj/main/CC3D/stm32f10x_usart.o (symbol from plugin)
USART_SetPrescaler                                obj/main/CC3D/stm32f10x_usart.o (symbol from plugin)
USART_SmartCardCmd                                obj/main/CC3D/stm32f10x_usart.o (symbol from plugin)
USART_SmartCardNACKCmd                            obj/main/CC3D/stm32f10x_usart.o (symbol from plugin)
USART_StructInit                                  obj/main/CC3D/stm32f10x_usart.o (symbol from plugin)
USART_WakeUpConfig                                obj/main/CC3D/stm32f10x_usart.o (symbol from plugin)
USBWakeUp_IRQHandler                              /tmp/ccZkfwo0.ltrans26.ltrans.o
                                                  obj/main/CC3D/vcp/stm32_it.o (symbol from plugin)
                                                  obj/main/CC3D/startup_stm32f10x_md_gcc.o
USB_Cable_Config                                  obj/main/CC3D/vcp/hw_config.o (symbol from plugin)
                                                  obj/main/CC3D/vcp/usb_pwr.o (symbol from plugin)
USB_HP_CAN1_TX_IRQHandler                         obj/main/CC3D/startup_stm32f10x_md_gcc.o
USB_Init                                          obj/main/CC3D/usb_init.o (symbol from plugin)
                                                  obj/main/CC3D/drivers/serial_usb_vcp.o (symbol from plugin)
USB_Interrupts_Config                             obj/main/CC3D/vcp/hw_config.o (symbol from plugin)
                                                  obj/main/CC3D/drivers/serial_usb_vcp.o (symbol from plugin)
USB_Istr                                          obj/main/CC3D/vcp/usb_istr.o (symbol from plugin)
                                                  obj/main/CC3D/vcp/stm32_it.o (symbol from plugin)
USB_LP_CAN1_RX0_IRQHandler                        /tmp/ccZkfwo0.ltrans17.ltrans.o
                                                  obj/main/CC3D/vcp/stm32_it.o (symbol from plugin)
                                                  obj/main/CC3D/startup_stm32f10x_md_gcc.o
USB_SIL_Init                                      obj/main/CC3D/usb_sil.o (symbol from plugin)
                                                  obj/main/CC3D/vcp/usb_prop.o (symbol from plugin)
USB_SIL_Read                                      obj/main/CC3D/usb_sil.o (symbol from plugin)
USB_SIL_Write                                     obj/main/CC3D/usb_sil.o (symbol from plugin)
UsageFault_Handler                                /tmp/ccZkfwo0.ltrans17.ltrans.o
                                                  obj/main/CC3D/vcp/stm32_it.o (symbol from plugin)
                                                  obj/main/CC3D/startup_stm32f10x_md_gcc.o
UserToPMABufferCopy                               obj/main/CC3D/usb_mem.o (symbol from plugin)
                                                  obj/main/CC3D/vcp/hw_config.o (symbol from plugin)
                                                  obj/main/CC3D/usb_sil.o (symbol from plugin)
                                                  obj/main/CC3D/usb_core.o (symbol from plugin)
User_Standard_Requests                            obj/main/CC3D/vcp/usb_prop.o (symbol from plugin)
                                                  obj/main/CC3D/usb_init.o (symbol from plugin)
Virtual_Com_Port_ConfigDescriptor                 /tmp/ccZkfwo0.ltrans24.ltrans.o
                                                  obj/main/CC3D/vcp/usb_desc.o (symbol from plugin)
                                                  obj/main/CC3D/vcp/usb_prop.o (symbol from plugin)
Virtual_Com_Port_Data_Setup                       obj/main/CC3D/vcp/usb_prop.o (symbol from plugin)
Virtual_Com_Port_DeviceDescriptor                 obj/main/CC3D/vcp/usb_desc.o (symbol from plugin)
                                                  obj/main/CC3D/vcp/usb_prop.o (symbol from plugin)
Virtual_Com_Port_GetBaudRate                      obj/main/CC3D/vcp/usb_prop.o (symbol from plugin)
                                                  obj/main/CC3D/vcp/hw_config.o (symbol from plugin)
Virtual_Com_Port_GetConfigDescriptor              /tmp/ccZkfwo0.ltrans24.ltrans.o
                                                  obj/main/CC3D/vcp/usb_prop.o (symbol from plugin)
                                                  /tmp/ccZkfwo0.ltrans26.ltrans.o
Virtual_Com_Port_GetDeviceDescriptor              /tmp/ccZkfwo0.ltrans24.ltrans.o
                                                  obj/main/CC3D/vcp/usb_prop.o (symbol from plugin)
                                                  /tmp/ccZkfwo0.ltrans26.ltrans.o
Virtual_Com_Port_GetLineCoding                    /tmp/ccZkfwo0.ltrans24.ltrans.o
                                                  obj/main/CC3D/vcp/usb_prop.o (symbol from plugin)
                                                  /tmp/ccZkfwo0.ltrans26.ltrans.o
Virtual_Com_Port_GetStringDescriptor              /tmp/ccZkfwo0.ltrans24.ltrans.o
                                                  obj/main/CC3D/vcp/usb_prop.o (symbol from plugin)
                                                  /tmp/ccZkfwo0.ltrans26.ltrans.o
Virtual_Com_Port_Get_Interface_Setting            /tmp/ccZkfwo0.ltrans24.ltrans.o
                                                  obj/main/CC3D/vcp/usb_prop.o (symbol from plugin)
                                                  /tmp/ccZkfwo0.ltrans26.ltrans.o
Virtual_Com_Port_NoData_Setup                     /tmp/ccZkfwo0.ltrans24.ltrans.o
                                                  obj/main/CC3D/vcp/usb_prop.o (symbol from plugin)
                                                  /tmp/ccZkfwo0.ltrans26.ltrans.o
Virtual_Com_Port_Reset                            obj/main/CC3D/vcp/usb_prop.o (symbol from plugin)
Virtual_Com_Port_SetConfiguration                 /tmp/ccZkfwo0.ltrans26.ltrans.o
                                                  obj/main/CC3D/vcp/usb_prop.o (symbol from plugin)
                                                  /tmp/ccZkfwo0.ltrans8.ltrans.o
Virtual_Com_Port_SetDeviceAddress                 /tmp/ccZkfwo0.ltrans26.ltrans.o
                                                  obj/main/CC3D/vcp/usb_prop.o (symbol from plugin)
                                                  /tmp/ccZkfwo0.ltrans8.ltrans.o
Virtual_Com_Port_SetLineCoding                    /tmp/ccZkfwo0.ltrans24.ltrans.o
                                                  obj/main/CC3D/vcp/usb_prop.o (symbol from plugin)
                                                  /tmp/ccZkfwo0.ltrans26.ltrans.o
Virtual_Com_Port_Status_In                        obj/main/CC3D/vcp/usb_prop.o (symbol from plugin)
Virtual_Com_Port_Status_Out                       obj/main/CC3D/vcp/usb_prop.o (symbol from plugin)
Virtual_Com_Port_StringLangID                     obj/main/CC3D/vcp/usb_desc.o (symbol from plugin)
                                                  obj/main/CC3D/vcp/usb_prop.o (symbol from plugin)
Virtual_Com_Port_StringProduct                    obj/main/CC3D/vcp/usb_desc.o (symbol from plugin)
                                                  obj/main/CC3D/vcp/usb_prop.o (symbol from plugin)
Virtual_Com_Port_StringSerial                     /tmp/ccZkfwo0.ltrans24.ltrans.o
                                                  obj/main/CC3D/vcp/usb_desc.o (symbol from plugin)
                                                  /tmp/ccZkfwo0.ltrans26.ltrans.o
                                                  obj/main/CC3D/vcp/usb_prop.o (symbol from plugin)
                                                  obj/main/CC3D/vcp/hw_config.o (symbol from plugin)
Virtual_Com_Port_StringVendor                     obj/main/CC3D/vcp/usb_desc.o (symbol from plugin)
                                                  obj/main/CC3D/vcp/usb_prop.o (symbol from plugin)
Virtual_Com_Port_init                             obj/main/CC3D/vcp/usb_prop.o (symbol from plugin)
WWDG_ClearFlag                                    obj/main/CC3D/stm32f10x_wwdg.o (symbol from plugin)
WWDG_DeInit                                       obj/main/CC3D/stm32f10x_wwdg.o (symbol from plugin)
WWDG_Enable                                       obj/main/CC3D/stm32f10x_wwdg.o (symbol from plugin)
WWDG_EnableIT                                     obj/main/CC3D/stm32f10x_wwdg.o (symbol from plugin)
WWDG_GetFlagStatus                                obj/main/CC3D/stm32f10x_wwdg.o (symbol from plugin)
WWDG_IRQHandler                                   obj/main/CC3D/startup_stm32f10x_md_gcc.o
WWDG_SetCounter                                   obj/main/CC3D/stm32f10x_wwdg.o (symbol from plugin)
WWDG_SetPrescaler                                 obj/main/CC3D/stm32f10x_wwdg.o (symbol from plugin)
WWDG_SetWindowValue                               obj/main/CC3D/stm32f10x_wwdg.o (symbol from plugin)
WriteByteCrc.lto_priv.393                         /tmp/ccZkfwo0.ltrans8.ltrans.o
                                                  /tmp/ccZkfwo0.ltrans1.ltrans.o
_CMD_LOAD_ADDRESS.lto_priv.396                    /tmp/ccZkfwo0.ltrans10.ltrans.o
                                                  /tmp/ccZkfwo0.ltrans1.ltrans.o
_CMD_PROGRAM_MEM_ISP.lto_priv.397                 /tmp/ccZkfwo0.ltrans10.ltrans.o
                                                  /tmp/ccZkfwo0.ltrans1.ltrans.o
_CMD_READ_MEM_ISP.lto_priv.400                    /tmp/ccZkfwo0.ltrans10.ltrans.o
                                                  /tmp/ccZkfwo0.ltrans1.ltrans.o
_CMD_SPI_MULTI_EX.constprop.24                    /tmp/ccZkfwo0.ltrans24.ltrans.o
                                                  /tmp/ccZkfwo0.ltrans1.ltrans.o
__LDREXB                                          obj/main/CC3D/core_cm3.o (symbol from plugin)
__LDREXH                                          obj/main/CC3D/core_cm3.o (symbol from plugin)
__LDREXW                                          obj/main/CC3D/core_cm3.o (symbol from plugin)
__RBIT                                            obj/main/CC3D/core_cm3.o (symbol from plugin)
__REV                                             obj/main/CC3D/core_cm3.o (symbol from plugin)
__REV16                                           obj/main/CC3D/core_cm3.o (symbol from plugin)
__REVSH                                           obj/main/CC3D/core_cm3.o (symbol from plugin)
__STREXB                                          obj/main/CC3D/core_cm3.o (symbol from plugin)
__STREXH                                          obj/main/CC3D/core_cm3.o (symbol from plugin)
__STREXW                                          obj/main/CC3D/core_cm3.o (symbol from plugin)
__adddf3                                          /usr/bin/../lib/gcc/arm-none-eabi/4.9.3/armv7-m/libgcc.a(_arm_addsubdf3.o)
__addsf3                                          /usr/bin/../lib/gcc/arm-none-eabi/4.9.3/armv7-m/libgcc.a(_arm_addsubsf3.o)
__aeabi_cfcmpeq                                   /usr/bin/../lib/gcc/arm-none-eabi/4.9.3/armv7-m/libgcc.a(_arm_cmpsf2.o)
__aeabi_cfcmple                                   /usr/bin/../lib/gcc/arm-none-eabi/4.9.3/armv7-m/libgcc.a(_arm_cmpsf2.o)
__aeabi_cfrcmple                                  /usr/bin/../lib/gcc/arm-none-eabi/4.9.3/armv7-m/libgcc.a(_arm_cmpsf2.o)
__aeabi_d2f                                       /usr/bin/../lib/gcc/arm-none-eabi/4.9.3/armv7-m/libgcc.a(_arm_truncdfsf2.o)
                                                  /usr/bin/../lib/gcc/arm-none-eabi/4.9.3/../../../../arm-none-eabi/lib/armv7-m/libm.a(lib_a-wf_sqrt.o)
                                                  /usr/bin/../lib/gcc/arm-none-eabi/4.9.3/../../../../arm-none-eabi/lib/armv7-m/libm.a(lib_a-wf_acos.o)
__aeabi_dadd                                      /usr/bin/../lib/gcc/arm-none-eabi/4.9.3/armv7-m/libgcc.a(_arm_addsubdf3.o)
__aeabi_ddiv                                      /usr/bin/../lib/gcc/arm-none-eabi/4.9.3/armv7-m/libgcc.a(_arm_muldivdf3.o)
                                                  /usr/bin/../lib/gcc/arm-none-eabi/4.9.3/../../../../arm-none-eabi/lib/armv7-m/libm.a(lib_a-wf_sqrt.o)
__aeabi_dmul                                      /usr/bin/../lib/gcc/arm-none-eabi/4.9.3/armv7-m/libgcc.a(_arm_muldivdf3.o)
__aeabi_drsub                                     /usr/bin/../lib/gcc/arm-none-eabi/4.9.3/armv7-m/libgcc.a(_arm_addsubdf3.o)
__aeabi_dsub                                      /usr/bin/../lib/gcc/arm-none-eabi/4.9.3/armv7-m/libgcc.a(_arm_addsubdf3.o)
__aeabi_f2d                                       /usr/bin/../lib/gcc/arm-none-eabi/4.9.3/armv7-m/libgcc.a(_arm_addsubdf3.o)
                                                  /usr/bin/../lib/gcc/arm-none-eabi/4.9.3/../../../../arm-none-eabi/lib/armv7-m/libm.a(lib_a-wf_sqrt.o)
                                                  /usr/bin/../lib/gcc/arm-none-eabi/4.9.3/../../../../arm-none-eabi/lib/armv7-m/libm.a(lib_a-wf_acos.o)
__aeabi_f2iz                                      /usr/bin/../lib/gcc/arm-none-eabi/4.9.3/armv7-m/libgcc.a(_arm_fixsfsi.o)
                                                  /usr/bin/../lib/gcc/arm-none-eabi/4.9.3/../../../../arm-none-eabi/lib/armv7-m/libm.a(lib_a-kf_sin.o)
                                                  /usr/bin/../lib/gcc/arm-none-eabi/4.9.3/../../../../arm-none-eabi/lib/armv7-m/libm.a(lib_a-kf_rem_pio2.o)
                                                  /usr/bin/../lib/gcc/arm-none-eabi/4.9.3/../../../../arm-none-eabi/lib/armv7-m/libm.a(lib_a-kf_cos.o)
                                                  /usr/bin/../lib/gcc/arm-none-eabi/4.9.3/../../../../arm-none-eabi/lib/armv7-m/libm.a(lib_a-ef_rem_pio2.o)
                                                  /usr/bin/../lib/gcc/arm-none-eabi/4.9.3/../../../../arm-none-eabi/lib/armv7-m/libm.a(lib_a-sf_lrint.o)
                                                  /tmp/ccZkfwo0.ltrans27.ltrans.o
                                                  /tmp/ccZkfwo0.ltrans23.ltrans.o
                                                  /tmp/ccZkfwo0.ltrans19.ltrans.o
                                                  /tmp/ccZkfwo0.ltrans18.ltrans.o
                                                  /tmp/ccZkfwo0.ltrans15.ltrans.o
                                                  /tmp/ccZkfwo0.ltrans4.ltrans.o
                                                  /tmp/ccZkfwo0.ltrans3.ltrans.o
                                                  /tmp/ccZkfwo0.ltrans2.ltrans.o
__aeabi_f2uiz                                     /usr/bin/../lib/gcc/arm-none-eabi/4.9.3/armv7-m/libgcc.a(_arm_fixunssfsi.o)
                                                  /tmp/ccZkfwo0.ltrans22.ltrans.o
                                                  /tmp/ccZkfwo0.ltrans16.ltrans.o
                                                  /tmp/ccZkfwo0.ltrans7.ltrans.o
                                                  /tmp/ccZkfwo0.ltrans3.ltrans.o
__aeabi_fadd                                      /usr/bin/../lib/gcc/arm-none-eabi/4.9.3/armv7-m/libgcc.a(_arm_addsubsf3.o)
                                                  /usr/bin/../lib/gcc/arm-none-eabi/4.9.3/../../../../arm-none-eabi/lib/armv7-m/libm.a(lib_a-sf_scalbn.o)
                                                  /usr/bin/../lib/gcc/arm-none-eabi/4.9.3/../../../../arm-none-eabi/lib/armv7-m/libm.a(lib_a-sf_floor.o)
                                                  /usr/bin/../lib/gcc/arm-none-eabi/4.9.3/../../../../arm-none-eabi/lib/armv7-m/libm.a(lib_a-sf_atan.o)
                                                  /usr/bin/../lib/gcc/arm-none-eabi/4.9.3/../../../../arm-none-eabi/lib/armv7-m/libm.a(lib_a-kf_sin.o)
                                                  /usr/bin/../lib/gcc/arm-none-eabi/4.9.3/../../../../arm-none-eabi/lib/armv7-m/libm.a(lib_a-kf_rem_pio2.o)
                                                  /usr/bin/../lib/gcc/arm-none-eabi/4.9.3/../../../../arm-none-eabi/lib/armv7-m/libm.a(lib_a-kf_cos.o)
                                                  /usr/bin/../lib/gcc/arm-none-eabi/4.9.3/../../../../arm-none-eabi/lib/armv7-m/libm.a(lib_a-ef_sqrt.o)
                                                  /usr/bin/../lib/gcc/arm-none-eabi/4.9.3/../../../../arm-none-eabi/lib/armv7-m/libm.a(lib_a-ef_rem_pio2.o)
                                                  /usr/bin/../lib/gcc/arm-none-eabi/4.9.3/../../../../arm-none-eabi/lib/armv7-m/libm.a(lib_a-ef_atan2.o)
                                                  /usr/bin/../lib/gcc/arm-none-eabi/4.9.3/../../../../arm-none-eabi/lib/armv7-m/libm.a(lib_a-ef_acos.o)
                                                  /usr/bin/../lib/gcc/arm-none-eabi/4.9.3/../../../../arm-none-eabi/lib/armv7-m/libm.a(lib_a-sf_lrint.o)
                                                  /tmp/ccZkfwo0.ltrans27.ltrans.o
                                                  /tmp/ccZkfwo0.ltrans23.ltrans.o
                                                  /tmp/ccZkfwo0.ltrans19.ltrans.o
                                                  /tmp/ccZkfwo0.ltrans18.ltrans.o
                                                  /tmp/ccZkfwo0.ltrans16.ltrans.o
                                                  /tmp/ccZkfwo0.ltrans7.ltrans.o
                                                  /tmp/ccZkfwo0.ltrans3.ltrans.o
                                                  /tmp/ccZkfwo0.ltrans2.ltrans.o
                                                  /tmp/ccZkfwo0.ltrans0.ltrans.o
__aeabi_fcmpeq                                    /usr/bin/../lib/gcc/arm-none-eabi/4.9.3/armv7-m/libgcc.a(_arm_cmpsf2.o)
                                                  /usr/bin/../lib/gcc/arm-none-eabi/4.9.3/../../../../arm-none-eabi/lib/armv7-m/libm.a(lib_a-kf_rem_pio2.o)
                                                  /usr/bin/../lib/gcc/arm-none-eabi/4.9.3/../../../../arm-none-eabi/lib/armv7-m/libm.a(lib_a-ef_rem_pio2.o)
                                                  /tmp/ccZkfwo0.ltrans27.ltrans.o
                                                  /tmp/ccZkfwo0.ltrans23.ltrans.o
                                                  /tmp/ccZkfwo0.ltrans19.ltrans.o
                                                  /tmp/ccZkfwo0.ltrans18.ltrans.o
                                                  /tmp/ccZkfwo0.ltrans11.ltrans.o
                                                  /tmp/ccZkfwo0.ltrans10.ltrans.o
                                                  /tmp/ccZkfwo0.ltrans2.ltrans.o
                                                  /tmp/ccZkfwo0.ltrans0.ltrans.o
__aeabi_fcmpge                                    /usr/bin/../lib/gcc/arm-none-eabi/4.9.3/armv7-m/libgcc.a(_arm_cmpsf2.o)
                                                  /usr/bin/../lib/gcc/arm-none-eabi/4.9.3/../../../../arm-none-eabi/lib/armv7-m/libm.a(lib_a-kf_rem_pio2.o)
                                                  /tmp/ccZkfwo0.ltrans27.ltrans.o
                                                  /tmp/ccZkfwo0.ltrans16.ltrans.o
__aeabi_fcmpgt                                    /usr/bin/../lib/gcc/arm-none-eabi/4.9.3/armv7-m/libgcc.a(_arm_cmpsf2.o)
                                                  /usr/bin/../lib/gcc/arm-none-eabi/4.9.3/../../../../arm-none-eabi/lib/armv7-m/libm.a(lib_a-sf_floor.o)
                                                  /usr/bin/../lib/gcc/arm-none-eabi/4.9.3/../../../../arm-none-eabi/lib/armv7-m/libm.a(lib_a-sf_atan.o)
                                                  /usr/bin/../lib/gcc/arm-none-eabi/4.9.3/../../../../arm-none-eabi/lib/armv7-m/libm.a(lib_a-wf_acos.o)
                                                  /tmp/ccZkfwo0.ltrans27.ltrans.o
                                                  /tmp/ccZkfwo0.ltrans23.ltrans.o
                                                  /tmp/ccZkfwo0.ltrans18.ltrans.o
                                                  /tmp/ccZkfwo0.ltrans2.ltrans.o
__aeabi_fcmple                                    /usr/bin/../lib/gcc/arm-none-eabi/4.9.3/armv7-m/libgcc.a(_arm_cmpsf2.o)
                                                  /tmp/ccZkfwo0.ltrans16.ltrans.o
                                                  /tmp/ccZkfwo0.ltrans2.ltrans.o
__aeabi_fcmplt                                    /usr/bin/../lib/gcc/arm-none-eabi/4.9.3/armv7-m/libgcc.a(_arm_cmpsf2.o)
                                                  /usr/bin/../lib/gcc/arm-none-eabi/4.9.3/../../../../arm-none-eabi/lib/armv7-m/libm.a(lib_a-wf_sqrt.o)
                                                  /tmp/ccZkfwo0.ltrans27.ltrans.o
                                                  /tmp/ccZkfwo0.ltrans23.ltrans.o
                                                  /tmp/ccZkfwo0.ltrans18.ltrans.o
                                                  /tmp/ccZkfwo0.ltrans11.ltrans.o
__aeabi_fdiv                                      /usr/bin/../lib/gcc/arm-none-eabi/4.9.3/armv7-m/libgcc.a(_arm_muldivsf3.o)
                                                  /usr/bin/../lib/gcc/arm-none-eabi/4.9.3/../../../../arm-none-eabi/lib/armv7-m/libm.a(lib_a-sf_atan.o)
                                                  /usr/bin/../lib/gcc/arm-none-eabi/4.9.3/../../../../arm-none-eabi/lib/armv7-m/libm.a(lib_a-ef_sqrt.o)
                                                  /usr/bin/../lib/gcc/arm-none-eabi/4.9.3/../../../../arm-none-eabi/lib/armv7-m/libm.a(lib_a-ef_atan2.o)
                                                  /usr/bin/../lib/gcc/arm-none-eabi/4.9.3/../../../../arm-none-eabi/lib/armv7-m/libm.a(lib_a-ef_acos.o)
                                                  /tmp/ccZkfwo0.ltrans27.ltrans.o
                                                  /tmp/ccZkfwo0.ltrans23.ltrans.o
                                                  /tmp/ccZkfwo0.ltrans22.ltrans.o
                                                  /tmp/ccZkfwo0.ltrans18.ltrans.o
                                                  /tmp/ccZkfwo0.ltrans16.ltrans.o
                                                  /tmp/ccZkfwo0.ltrans15.ltrans.o
                                                  /tmp/ccZkfwo0.ltrans14.ltrans.o
                                                  /tmp/ccZkfwo0.ltrans4.ltrans.o
                                                  /tmp/ccZkfwo0.ltrans3.ltrans.o
                                                  /tmp/ccZkfwo0.ltrans2.ltrans.o
                                                  /tmp/ccZkfwo0.ltrans0.ltrans.o
__aeabi_fmul                                      /usr/bin/../lib/gcc/arm-none-eabi/4.9.3/armv7-m/libgcc.a(_arm_muldivsf3.o)
                                                  /usr/bin/../lib/gcc/arm-none-eabi/4.9.3/../../../../arm-none-eabi/lib/armv7-m/libm.a(lib_a-sf_scalbn.o)
                                                  /usr/bin/../lib/gcc/arm-none-eabi/4.9.3/../../../../arm-none-eabi/lib/armv7-m/libm.a(lib_a-sf_atan.o)
                                                  /usr/bin/../lib/gcc/arm-none-eabi/4.9.3/../../../../arm-none-eabi/lib/armv7-m/libm.a(lib_a-kf_sin.o)
                                                  /usr/bin/../lib/gcc/arm-none-eabi/4.9.3/../../../../arm-none-eabi/lib/armv7-m/libm.a(lib_a-kf_rem_pio2.o)
                                                  /usr/bin/../lib/gcc/arm-none-eabi/4.9.3/../../../../arm-none-eabi/lib/armv7-m/libm.a(lib_a-kf_cos.o)
                                                  /usr/bin/../lib/gcc/arm-none-eabi/4.9.3/../../../../arm-none-eabi/lib/armv7-m/libm.a(lib_a-ef_sqrt.o)
                                                  /usr/bin/../lib/gcc/arm-none-eabi/4.9.3/../../../../arm-none-eabi/lib/armv7-m/libm.a(lib_a-ef_rem_pio2.o)
                                                  /usr/bin/../lib/gcc/arm-none-eabi/4.9.3/../../../../arm-none-eabi/lib/armv7-m/libm.a(lib_a-ef_acos.o)
                                                  /tmp/ccZkfwo0.ltrans27.ltrans.o
                                                  /tmp/ccZkfwo0.ltrans23.ltrans.o
                                                  /tmp/ccZkfwo0.ltrans19.ltrans.o
                                                  /tmp/ccZkfwo0.ltrans18.ltrans.o
                                                  /tmp/ccZkfwo0.ltrans16.ltrans.o
                                                  /tmp/ccZkfwo0.ltrans15.ltrans.o
                                                  /tmp/ccZkfwo0.ltrans14.ltrans.o
                                                  /tmp/ccZkfwo0.ltrans7.ltrans.o
                                                  /tmp/ccZkfwo0.ltrans4.ltrans.o
                                                  /tmp/ccZkfwo0.ltrans3.ltrans.o
                                                  /tmp/ccZkfwo0.ltrans2.ltrans.o
                                                  /tmp/ccZkfwo0.ltrans0.ltrans.o
__aeabi_frsub                                     /usr/bin/../lib/gcc/arm-none-eabi/4.9.3/armv7-m/libgcc.a(_arm_addsubsf3.o)
__aeabi_fsub                                      /usr/bin/../lib/gcc/arm-none-eabi/4.9.3/armv7-m/libgcc.a(_arm_addsubsf3.o)
                                                  /usr/bin/../lib/gcc/arm-none-eabi/4.9.3/../../../../arm-none-eabi/lib/armv7-m/libm.a(lib_a-sf_atan.o)
                                                  /usr/bin/../lib/gcc/arm-none-eabi/4.9.3/../../../../arm-none-eabi/lib/armv7-m/libm.a(lib_a-kf_sin.o)
                                                  /usr/bin/../lib/gcc/arm-none-eabi/4.9.3/../../../../arm-none-eabi/lib/armv7-m/libm.a(lib_a-kf_rem_pio2.o)
                                                  /usr/bin/../lib/gcc/arm-none-eabi/4.9.3/../../../../arm-none-eabi/lib/armv7-m/libm.a(lib_a-kf_cos.o)
                                                  /usr/bin/../lib/gcc/arm-none-eabi/4.9.3/../../../../arm-none-eabi/lib/armv7-m/libm.a(lib_a-ef_sqrt.o)
                                                  /usr/bin/../lib/gcc/arm-none-eabi/4.9.3/../../../../arm-none-eabi/lib/armv7-m/libm.a(lib_a-ef_rem_pio2.o)
                                                  /usr/bin/../lib/gcc/arm-none-eabi/4.9.3/../../../../arm-none-eabi/lib/armv7-m/libm.a(lib_a-ef_atan2.o)
                                                  /usr/bin/../lib/gcc/arm-none-eabi/4.9.3/../../../../arm-none-eabi/lib/armv7-m/libm.a(lib_a-ef_acos.o)
                                                  /usr/bin/../lib/gcc/arm-none-eabi/4.9.3/../../../../arm-none-eabi/lib/armv7-m/libm.a(lib_a-sf_sin.o)
                                                  /usr/bin/../lib/gcc/arm-none-eabi/4.9.3/../../../../arm-none-eabi/lib/armv7-m/libm.a(lib_a-sf_lrint.o)
                                                  /usr/bin/../lib/gcc/arm-none-eabi/4.9.3/../../../../arm-none-eabi/lib/armv7-m/libm.a(lib_a-sf_cos.o)
                                                  /tmp/ccZkfwo0.ltrans27.ltrans.o
                                                  /tmp/ccZkfwo0.ltrans23.ltrans.o
                                                  /tmp/ccZkfwo0.ltrans22.ltrans.o
                                                  /tmp/ccZkfwo0.ltrans19.ltrans.o
                                                  /tmp/ccZkfwo0.ltrans18.ltrans.o
                                                  /tmp/ccZkfwo0.ltrans3.ltrans.o
                                                  /tmp/ccZkfwo0.ltrans2.ltrans.o
                                                  /tmp/ccZkfwo0.ltrans0.ltrans.o
__aeabi_i2d                                       /usr/bin/../lib/gcc/arm-none-eabi/4.9.3/armv7-m/libgcc.a(_arm_addsubdf3.o)
__aeabi_i2f                                       /usr/bin/../lib/gcc/arm-none-eabi/4.9.3/armv7-m/libgcc.a(_arm_addsubsf3.o)
                                                  /usr/bin/../lib/gcc/arm-none-eabi/4.9.3/../../../../arm-none-eabi/lib/armv7-m/libm.a(lib_a-kf_rem_pio2.o)
                                                  /usr/bin/../lib/gcc/arm-none-eabi/4.9.3/../../../../arm-none-eabi/lib/armv7-m/libm.a(lib_a-ef_rem_pio2.o)
                                                  /tmp/ccZkfwo0.ltrans27.ltrans.o
                                                  /tmp/ccZkfwo0.ltrans25.ltrans.o
                                                  /tmp/ccZkfwo0.ltrans23.ltrans.o
                                                  /tmp/ccZkfwo0.ltrans21.ltrans.o
                                                  /tmp/ccZkfwo0.ltrans19.ltrans.o
                                                  /tmp/ccZkfwo0.ltrans18.ltrans.o
                                                  /tmp/ccZkfwo0.ltrans16.ltrans.o
                                                  /tmp/ccZkfwo0.ltrans15.ltrans.o
                                                  /tmp/ccZkfwo0.ltrans14.ltrans.o
                                                  /tmp/ccZkfwo0.ltrans7.ltrans.o
                                                  /tmp/ccZkfwo0.ltrans4.ltrans.o
                                                  /tmp/ccZkfwo0.ltrans3.ltrans.o
                                                  /tmp/ccZkfwo0.ltrans2.ltrans.o
                                                  /tmp/ccZkfwo0.ltrans0.ltrans.o
__aeabi_idiv0                                     /usr/bin/../lib/gcc/arm-none-eabi/4.9.3/armv7-m/libgcc.a(_dvmd_tls.o)
__aeabi_l2d                                       /usr/bin/../lib/gcc/arm-none-eabi/4.9.3/armv7-m/libgcc.a(_arm_addsubdf3.o)
__aeabi_l2f                                       /usr/bin/../lib/gcc/arm-none-eabi/4.9.3/armv7-m/libgcc.a(_arm_addsubsf3.o)
__aeabi_ldiv0                                     /usr/bin/../lib/gcc/arm-none-eabi/4.9.3/armv7-m/libgcc.a(_dvmd_tls.o)
                                                  /usr/bin/../lib/gcc/arm-none-eabi/4.9.3/armv7-m/libgcc.a(_aeabi_ldivmod.o)
__aeabi_ldivmod                                   /usr/bin/../lib/gcc/arm-none-eabi/4.9.3/armv7-m/libgcc.a(_aeabi_ldivmod.o)
                                                  /tmp/ccZkfwo0.ltrans22.ltrans.o
__aeabi_ui2d                                      /usr/bin/../lib/gcc/arm-none-eabi/4.9.3/armv7-m/libgcc.a(_arm_addsubdf3.o)
__aeabi_ui2f                                      /usr/bin/../lib/gcc/arm-none-eabi/4.9.3/armv7-m/libgcc.a(_arm_addsubsf3.o)
                                                  /tmp/ccZkfwo0.ltrans27.ltrans.o
                                                  /tmp/ccZkfwo0.ltrans23.ltrans.o
                                                  /tmp/ccZkfwo0.ltrans22.ltrans.o
                                                  /tmp/ccZkfwo0.ltrans18.ltrans.o
                                                  /tmp/ccZkfwo0.ltrans16.ltrans.o
                                                  /tmp/ccZkfwo0.ltrans7.ltrans.o
__aeabi_ul2d                                      /usr/bin/../lib/gcc/arm-none-eabi/4.9.3/armv7-m/libgcc.a(_arm_addsubdf3.o)
__aeabi_ul2f                                      /usr/bin/../lib/gcc/arm-none-eabi/4.9.3/armv7-m/libgcc.a(_arm_addsubsf3.o)
__cmpsf2                                          /usr/bin/../lib/gcc/arm-none-eabi/4.9.3/armv7-m/libgcc.a(_arm_cmpsf2.o)
__ctype_ptr__                                     /usr/bin/../lib/gcc/arm-none-eabi/4.9.3/../../../../arm-none-eabi/lib/armv7-m/libc_nano.a(lib_a-ctype_.o)
                                                  /usr/bin/../lib/gcc/arm-none-eabi/4.9.3/../../../../arm-none-eabi/lib/armv7-m/libg_nano.a(lib_a-strncasecmp.o)
                                                  /usr/bin/../lib/gcc/arm-none-eabi/4.9.3/../../../../arm-none-eabi/lib/armv7-m/libg_nano.a(lib_a-strcasecmp.o)
                                                  /tmp/ccZkfwo0.ltrans25.ltrans.o
                                                  /tmp/ccZkfwo0.ltrans1.ltrans.o
                                                  /usr/bin/../lib/gcc/arm-none-eabi/4.9.3/../../../../arm-none-eabi/lib/armv7-m/libc_nano.a(lib_a-strtol.o)
                                                  obj/main/CC3D/io/serial_cli.o (symbol from plugin)
__divdf3                                          /usr/bin/../lib/gcc/arm-none-eabi/4.9.3/armv7-m/libgcc.a(_arm_muldivdf3.o)
__divdi3                                          /usr/bin/../lib/gcc/arm-none-eabi/4.9.3/armv7-m/libgcc.a(_divdi3.o)
                                                  /usr/bin/../lib/gcc/arm-none-eabi/4.9.3/armv7-m/libgcc.a(bpabi.o)
__divsf3                                          /usr/bin/../lib/gcc/arm-none-eabi/4.9.3/armv7-m/libgcc.a(_arm_muldivsf3.o)
__eqsf2                                           /usr/bin/../lib/gcc/arm-none-eabi/4.9.3/armv7-m/libgcc.a(_arm_cmpsf2.o)
__errno                                           /usr/bin/../lib/gcc/arm-none-eabi/4.9.3/../../../../arm-none-eabi/lib/armv7-m/libc_nano.a(lib_a-errno.o)
                                                  /usr/bin/../lib/gcc/arm-none-eabi/4.9.3/../../../../arm-none-eabi/lib/armv7-m/libm.a(lib_a-wf_sqrt.o)
                                                  /usr/bin/../lib/gcc/arm-none-eabi/4.9.3/../../../../arm-none-eabi/lib/armv7-m/libm.a(lib_a-wf_acos.o)
__extendsfdf2                                     /usr/bin/../lib/gcc/arm-none-eabi/4.9.3/armv7-m/libgcc.a(_arm_addsubdf3.o)
__fdlib_version                                   /usr/bin/../lib/gcc/arm-none-eabi/4.9.3/../../../../arm-none-eabi/lib/armv7-m/libm.a(lib_a-s_lib_ver.o)
                                                  /usr/bin/../lib/gcc/arm-none-eabi/4.9.3/../../../../arm-none-eabi/lib/armv7-m/libm.a(lib_a-wf_sqrt.o)
                                                  /usr/bin/../lib/gcc/arm-none-eabi/4.9.3/../../../../arm-none-eabi/lib/armv7-m/libm.a(lib_a-wf_acos.o)
__fixsfsi                                         /usr/bin/../lib/gcc/arm-none-eabi/4.9.3/armv7-m/libgcc.a(_arm_fixsfsi.o)
__fixunssfsi                                      /usr/bin/../lib/gcc/arm-none-eabi/4.9.3/armv7-m/libgcc.a(_arm_fixunssfsi.o)
__floatdidf                                       /usr/bin/../lib/gcc/arm-none-eabi/4.9.3/armv7-m/libgcc.a(_arm_addsubdf3.o)
__floatdisf                                       /usr/bin/../lib/gcc/arm-none-eabi/4.9.3/armv7-m/libgcc.a(_arm_addsubsf3.o)
__floatsidf                                       /usr/bin/../lib/gcc/arm-none-eabi/4.9.3/armv7-m/libgcc.a(_arm_addsubdf3.o)
__floatsisf                                       /usr/bin/../lib/gcc/arm-none-eabi/4.9.3/armv7-m/libgcc.a(_arm_addsubsf3.o)
__floatundidf                                     /usr/bin/../lib/gcc/arm-none-eabi/4.9.3/armv7-m/libgcc.a(_arm_addsubdf3.o)
__floatundisf                                     /usr/bin/../lib/gcc/arm-none-eabi/4.9.3/armv7-m/libgcc.a(_arm_addsubsf3.o)
__floatunsidf                                     /usr/bin/../lib/gcc/arm-none-eabi/4.9.3/armv7-m/libgcc.a(_arm_addsubdf3.o)
__floatunsisf                                     /usr/bin/../lib/gcc/arm-none-eabi/4.9.3/armv7-m/libgcc.a(_arm_addsubsf3.o)
__fpclassifyf                                     /usr/bin/../lib/gcc/arm-none-eabi/4.9.3/../../../../arm-none-eabi/lib/armv7-m/libm.a(lib_a-sf_fpclassify.o)
                                                  /usr/bin/../lib/gcc/arm-none-eabi/4.9.3/../../../../arm-none-eabi/lib/armv7-m/libm.a(lib_a-wf_sqrt.o)
                                                  /usr/bin/../lib/gcc/arm-none-eabi/4.9.3/../../../../arm-none-eabi/lib/armv7-m/libm.a(lib_a-wf_acos.o)
__gesf2                                           /usr/bin/../lib/gcc/arm-none-eabi/4.9.3/armv7-m/libgcc.a(_arm_cmpsf2.o)
__get_BASEPRI                                     obj/main/CC3D/core_cm3.o (symbol from plugin)
                                                  obj/main/CC3D/drivers/timer.o (symbol from plugin)
__get_CONTROL                                     obj/main/CC3D/core_cm3.o (symbol from plugin)
__get_FAULTMASK                                   obj/main/CC3D/core_cm3.o (symbol from plugin)
__get_MSP                                         obj/main/CC3D/core_cm3.o (symbol from plugin)
__get_PRIMASK                                     obj/main/CC3D/core_cm3.o (symbol from plugin)
__get_PSP                                         obj/main/CC3D/core_cm3.o (symbol from plugin)
__gnu_ldivmod_helper                              /usr/bin/../lib/gcc/arm-none-eabi/4.9.3/armv7-m/libgcc.a(bpabi.o)
                                                  /usr/bin/../lib/gcc/arm-none-eabi/4.9.3/armv7-m/libgcc.a(_aeabi_ldivmod.o)
__gnu_uldivmod_helper                             /usr/bin/../lib/gcc/arm-none-eabi/4.9.3/armv7-m/libgcc.a(bpabi.o)
__gtsf2                                           /usr/bin/../lib/gcc/arm-none-eabi/4.9.3/armv7-m/libgcc.a(_arm_cmpsf2.o)
__ieee754_acosf                                   /usr/bin/../lib/gcc/arm-none-eabi/4.9.3/../../../../arm-none-eabi/lib/armv7-m/libm.a(lib_a-ef_acos.o)
                                                  /usr/bin/../lib/gcc/arm-none-eabi/4.9.3/../../../../arm-none-eabi/lib/armv7-m/libm.a(lib_a-wf_acos.o)
__ieee754_atan2f                                  /usr/bin/../lib/gcc/arm-none-eabi/4.9.3/../../../../arm-none-eabi/lib/armv7-m/libm.a(lib_a-ef_atan2.o)
                                                  /usr/bin/../lib/gcc/arm-none-eabi/4.9.3/../../../../arm-none-eabi/lib/armv7-m/libm.a(lib_a-wf_atan2.o)
__ieee754_rem_pio2f                               /usr/bin/../lib/gcc/arm-none-eabi/4.9.3/../../../../arm-none-eabi/lib/armv7-m/libm.a(lib_a-ef_rem_pio2.o)
                                                  /usr/bin/../lib/gcc/arm-none-eabi/4.9.3/../../../../arm-none-eabi/lib/armv7-m/libm.a(lib_a-sf_sin.o)
                                                  /usr/bin/../lib/gcc/arm-none-eabi/4.9.3/../../../../arm-none-eabi/lib/armv7-m/libm.a(lib_a-sf_cos.o)
__ieee754_sqrtf                                   /usr/bin/../lib/gcc/arm-none-eabi/4.9.3/../../../../arm-none-eabi/lib/armv7-m/libm.a(lib_a-ef_sqrt.o)
                                                  /usr/bin/../lib/gcc/arm-none-eabi/4.9.3/../../../../arm-none-eabi/lib/armv7-m/libm.a(lib_a-ef_acos.o)
                                                  /usr/bin/../lib/gcc/arm-none-eabi/4.9.3/../../../../arm-none-eabi/lib/armv7-m/libm.a(lib_a-wf_sqrt.o)
__kernel_cosf                                     /usr/bin/../lib/gcc/arm-none-eabi/4.9.3/../../../../arm-none-eabi/lib/armv7-m/libm.a(lib_a-kf_cos.o)
                                                  /usr/bin/../lib/gcc/arm-none-eabi/4.9.3/../../../../arm-none-eabi/lib/armv7-m/libm.a(lib_a-sf_sin.o)
                                                  /usr/bin/../lib/gcc/arm-none-eabi/4.9.3/../../../../arm-none-eabi/lib/armv7-m/libm.a(lib_a-sf_cos.o)
__kernel_rem_pio2f                                /usr/bin/../lib/gcc/arm-none-eabi/4.9.3/../../../../arm-none-eabi/lib/armv7-m/libm.a(lib_a-kf_rem_pio2.o)
                                                  /usr/bin/../lib/gcc/arm-none-eabi/4.9.3/../../../../arm-none-eabi/lib/armv7-m/libm.a(lib_a-ef_rem_pio2.o)
__kernel_sinf                                     /usr/bin/../lib/gcc/arm-none-eabi/4.9.3/../../../../arm-none-eabi/lib/armv7-m/libm.a(lib_a-kf_sin.o)
                                                  /usr/bin/../lib/gcc/arm-none-eabi/4.9.3/../../../../arm-none-eabi/lib/armv7-m/libm.a(lib_a-sf_sin.o)
                                                  /usr/bin/../lib/gcc/arm-none-eabi/4.9.3/../../../../arm-none-eabi/lib/armv7-m/libm.a(lib_a-sf_cos.o)
__lesf2                                           /usr/bin/../lib/gcc/arm-none-eabi/4.9.3/armv7-m/libgcc.a(_arm_cmpsf2.o)
__ltsf2                                           /usr/bin/../lib/gcc/arm-none-eabi/4.9.3/armv7-m/libgcc.a(_arm_cmpsf2.o)
__malloc_free_list                                /usr/bin/../lib/gcc/arm-none-eabi/4.9.3/../../../../arm-none-eabi/lib/armv7-m/libc_nano.a(lib_a-nano-mallocr.o)
                                                  /usr/bin/../lib/gcc/arm-none-eabi/4.9.3/../../../../arm-none-eabi/lib/armv7-m/libc_nano.a(lib_a-nano-freer.o)
__malloc_sbrk_start                               /usr/bin/../lib/gcc/arm-none-eabi/4.9.3/../../../../arm-none-eabi/lib/armv7-m/libc_nano.a(lib_a-nano-mallocr.o)
__muldf3                                          /usr/bin/../lib/gcc/arm-none-eabi/4.9.3/armv7-m/libgcc.a(_arm_muldivdf3.o)
__mulsf3                                          /usr/bin/../lib/gcc/arm-none-eabi/4.9.3/armv7-m/libgcc.a(_arm_muldivsf3.o)
__nesf2                                           /usr/bin/../lib/gcc/arm-none-eabi/4.9.3/armv7-m/libgcc.a(_arm_cmpsf2.o)
__set_BASEPRI                                     obj/main/CC3D/core_cm3.o (symbol from plugin)
                                                  obj/main/CC3D/drivers/timer.o (symbol from plugin)
__set_CONTROL                                     obj/main/CC3D/core_cm3.o (symbol from plugin)
__set_FAULTMASK                                   obj/main/CC3D/core_cm3.o (symbol from plugin)
__set_MSP                                         obj/main/CC3D/core_cm3.o (symbol from plugin)
__set_PRIMASK                                     obj/main/CC3D/core_cm3.o (symbol from plugin)
__set_PSP                                         obj/main/CC3D/core_cm3.o (symbol from plugin)
__sf_fake_stderr                                  /usr/bin/../lib/gcc/arm-none-eabi/4.9.3/../../../../arm-none-eabi/lib/armv7-m/libc_nano.a(lib_a-impure.o)
__sf_fake_stdin                                   /usr/bin/../lib/gcc/arm-none-eabi/4.9.3/../../../../arm-none-eabi/lib/armv7-m/libc_nano.a(lib_a-impure.o)
__sf_fake_stdout                                  /usr/bin/../lib/gcc/arm-none-eabi/4.9.3/../../../../arm-none-eabi/lib/armv7-m/libc_nano.a(lib_a-impure.o)
__strtok_r                                        /usr/bin/../lib/gcc/arm-none-eabi/4.9.3/../../../../arm-none-eabi/lib/armv7-m/libc_nano.a(lib_a-strtok_r.o)
                                                  /usr/bin/../lib/gcc/arm-none-eabi/4.9.3/../../../../arm-none-eabi/lib/armv7-m/libc_nano.a(lib_a-strtok.o)
__subdf3                                          /usr/bin/../lib/gcc/arm-none-eabi/4.9.3/armv7-m/libgcc.a(_arm_addsubdf3.o)
__subsf3                                          /usr/bin/../lib/gcc/arm-none-eabi/4.9.3/armv7-m/libgcc.a(_arm_addsubsf3.o)
__truncdfsf2                                      /usr/bin/../lib/gcc/arm-none-eabi/4.9.3/armv7-m/libgcc.a(_arm_truncdfsf2.o)
__udivdi3                                         /usr/bin/../lib/gcc/arm-none-eabi/4.9.3/armv7-m/libgcc.a(_udivdi3.o)
                                                  /usr/bin/../lib/gcc/arm-none-eabi/4.9.3/armv7-m/libgcc.a(bpabi.o)
_atoi_r                                           /usr/bin/../lib/gcc/arm-none-eabi/4.9.3/../../../../arm-none-eabi/lib/armv7-m/libc_nano.a(lib_a-atoi.o)
_crc_xmodem_update                                obj/main/CC3D/io/serial_4way.o (symbol from plugin)
_ctype_                                           /usr/bin/../lib/gcc/arm-none-eabi/4.9.3/../../../../arm-none-eabi/lib/armv7-m/libc_nano.a(lib_a-ctype_.o)
_ebss                                             obj/main/CC3D/startup_stm32f10x_md_gcc.o
_edata                                            obj/main/CC3D/startup_stm32f10x_md_gcc.o
_estack                                           obj/main/CC3D/startup_stm32f10x_md_gcc.o
_free_r                                           /usr/bin/../lib/gcc/arm-none-eabi/4.9.3/../../../../arm-none-eabi/lib/armv7-m/libc_nano.a(lib_a-nano-freer.o)
                                                  /usr/bin/../lib/gcc/arm-none-eabi/4.9.3/../../../../arm-none-eabi/lib/armv7-m/libc_nano.a(lib_a-reent.o)
                                                  /usr/bin/../lib/gcc/arm-none-eabi/4.9.3/../../../../arm-none-eabi/lib/armv7-m/libc_nano.a(lib_a-malloc.o)
_global_impure_ptr                                /usr/bin/../lib/gcc/arm-none-eabi/4.9.3/../../../../arm-none-eabi/lib/armv7-m/libc_nano.a(lib_a-impure.o)
_i2a.lto_priv.182                                 /tmp/ccZkfwo0.ltrans18.ltrans.o
                                                  /tmp/ccZkfwo0.ltrans24.ltrans.o
_impure_ptr                                       /usr/bin/../lib/gcc/arm-none-eabi/4.9.3/../../../../arm-none-eabi/lib/armv7-m/libc_nano.a(lib_a-impure.o)
                                                  /usr/bin/../lib/gcc/arm-none-eabi/4.9.3/../../../../arm-none-eabi/lib/armv7-m/libc_nano.a(lib_a-errno.o)
                                                  /usr/bin/../lib/gcc/arm-none-eabi/4.9.3/../../../../arm-none-eabi/lib/armv7-m/libc_nano.a(lib_a-reent.o)
                                                  /usr/bin/../lib/gcc/arm-none-eabi/4.9.3/../../../../arm-none-eabi/lib/armv7-m/libc_nano.a(lib_a-malloc.o)
                                                  /usr/bin/../lib/gcc/arm-none-eabi/4.9.3/../../../../arm-none-eabi/lib/armv7-m/libc_nano.a(lib_a-strtol.o)
                                                  /usr/bin/../lib/gcc/arm-none-eabi/4.9.3/../../../../arm-none-eabi/lib/armv7-m/libc_nano.a(lib_a-strtok.o)
_malloc_r                                         /usr/bin/../lib/gcc/arm-none-eabi/4.9.3/../../../../arm-none-eabi/lib/armv7-m/libc_nano.a(lib_a-nano-mallocr.o)
                                                  /usr/bin/../lib/gcc/arm-none-eabi/4.9.3/../../../../arm-none-eabi/lib/armv7-m/libc_nano.a(lib_a-malloc.o)
_mspPort.lto_priv.360                             /tmp/ccZkfwo0.ltrans8.ltrans.o
                                                  /tmp/ccZkfwo0.ltrans1.ltrans.o
_putc.lto_priv.509                                /tmp/ccZkfwo0.ltrans18.ltrans.o
                                                  /tmp/ccZkfwo0.ltrans0.ltrans.o
_reclaim_reent                                    /usr/bin/../lib/gcc/arm-none-eabi/4.9.3/../../../../arm-none-eabi/lib/armv7-m/libc_nano.a(lib_a-reent.o)
_sbrk                                             /usr/bin/../lib/gcc/arm-none-eabi/4.9.3/../../../../arm-none-eabi/lib/armv7-m/libnosys.a(sbrk.o)
                                                  /usr/bin/../lib/gcc/arm-none-eabi/4.9.3/../../../../arm-none-eabi/lib/armv7-m/libc_nano.a(lib_a-sbrkr.o)
_sbrk_r                                           /usr/bin/../lib/gcc/arm-none-eabi/4.9.3/../../../../arm-none-eabi/lib/armv7-m/libc_nano.a(lib_a-sbrkr.o)
                                                  /usr/bin/../lib/gcc/arm-none-eabi/4.9.3/../../../../arm-none-eabi/lib/armv7-m/libc_nano.a(lib_a-nano-mallocr.o)
_sbss                                             obj/main/CC3D/startup_stm32f10x_md_gcc.o
_sdata                                            obj/main/CC3D/startup_stm32f10x_md_gcc.o
_sidata                                           obj/main/CC3D/startup_stm32f10x_md_gcc.o
_strtol_r                                         /usr/bin/../lib/gcc/arm-none-eabi/4.9.3/../../../../arm-none-eabi/lib/armv7-m/libc_nano.a(lib_a-strtol.o)
                                                  /usr/bin/../lib/gcc/arm-none-eabi/4.9.3/../../../../arm-none-eabi/lib/armv7-m/libc_nano.a(lib_a-atoi.o)
_writer.lto_priv.361                              /tmp/ccZkfwo0.ltrans8.ltrans.o
                                                  /tmp/ccZkfwo0.ltrans1.ltrans.o
a2d                                               obj/main/CC3D/common/typeconversion.o (symbol from plugin)
a2i                                               obj/main/CC3D/common/typeconversion.o (symbol from plugin)
                                                  obj/main/CC3D/common/printf.o (symbol from plugin)
acc                                               /tmp/ccZkfwo0.ltrans16.ltrans.o
                                                  obj/main/CC3D/sensors/acceleration.o (symbol from plugin)
                                                  /tmp/ccZkfwo0.ltrans23.ltrans.o
                                                  /tmp/ccZkfwo0.ltrans0.ltrans.o
                                                  obj/main/CC3D/sensors/initialisation.o (symbol from plugin)
                                                  obj/main/CC3D/io/serial_cli.o (symbol from plugin)
accAlign                                          /tmp/ccZkfwo0.ltrans23.ltrans.o
                                                  obj/main/CC3D/sensors/acceleration.o (symbol from plugin)
                                                  /tmp/ccZkfwo0.ltrans0.ltrans.o
                                                  obj/main/CC3D/sensors/initialisation.o (symbol from plugin)
accDeadband.lto_priv.543                          /tmp/ccZkfwo0.ltrans23.ltrans.o
                                                  /tmp/ccZkfwo0.ltrans14.ltrans.o
accLpfCutHz.lto_priv.546                          /tmp/ccZkfwo0.ltrans23.ltrans.o
                                                  /tmp/ccZkfwo0.ltrans14.ltrans.o
accSetCalibrationCycles                           obj/main/CC3D/sensors/acceleration.o (symbol from plugin)
                                                  obj/main/CC3D/io/serial_msp.o (symbol from plugin)
                                                  obj/main/CC3D/io/rc_controls.o (symbol from plugin)
                                                  obj/main/CC3D/main.o (symbol from plugin)
accSmooth                                         /tmp/ccZkfwo0.ltrans4.ltrans.o
                                                  obj/main/CC3D/sensors/acceleration.o (symbol from plugin)
                                                  /tmp/ccZkfwo0.ltrans23.ltrans.o
                                                  /tmp/ccZkfwo0.ltrans5.ltrans.o
                                                  /tmp/ccZkfwo0.ltrans1.ltrans.o
                                                  obj/main/CC3D/io/serial_msp.o (symbol from plugin)
                                                  obj/main/CC3D/flight/imu.o (symbol from plugin)
                                                  obj/main/CC3D/blackbox/blackbox.o (symbol from plugin)
                                                  obj/main/CC3D/telemetry/smartport.o (symbol from plugin)
                                                  obj/main/CC3D/telemetry/frsky.o (symbol from plugin)
accSum                                            obj/main/CC3D/flight/imu.o (symbol from plugin)
accSumCount                                       obj/main/CC3D/flight/imu.o (symbol from plugin)
accTargetLooptime                                 /tmp/ccZkfwo0.ltrans23.ltrans.o
                                                  obj/main/CC3D/sensors/acceleration.o (symbol from plugin)
                                                  /tmp/ccZkfwo0.ltrans0.ltrans.o
                                                  obj/main/CC3D/main.o (symbol from plugin)
accTimeSum                                        obj/main/CC3D/flight/imu.o (symbol from plugin)
accVelScale                                       obj/main/CC3D/flight/imu.o (symbol from plugin)
acc_1G                                            /tmp/ccZkfwo0.ltrans4.ltrans.o
                                                  obj/main/CC3D/sensors/acceleration.o (symbol from plugin)
                                                  /tmp/ccZkfwo0.ltrans23.ltrans.o
                                                  /tmp/ccZkfwo0.ltrans20.ltrans.o
                                                  /tmp/ccZkfwo0.ltrans2.ltrans.o
                                                  /tmp/ccZkfwo0.ltrans1.ltrans.o
                                                  /tmp/ccZkfwo0.ltrans0.ltrans.o
                                                  obj/main/CC3D/io/serial_msp.o (symbol from plugin)
                                                  obj/main/CC3D/flight/imu.o (symbol from plugin)
                                                  obj/main/CC3D/blackbox/blackbox.o (symbol from plugin)
                                                  obj/main/CC3D/telemetry/frsky.o (symbol from plugin)
                                                  obj/main/CC3D/drivers/accgyro_spi_mpu6000.o (symbol from plugin)
accelerationTrims.lto_priv.547                    /tmp/ccZkfwo0.ltrans23.ltrans.o
                                                  /tmp/ccZkfwo0.ltrans14.ltrans.o
acos_approx                                       obj/main/CC3D/common/maths.o (symbol from plugin)
acosf                                             /usr/bin/../lib/gcc/arm-none-eabi/4.9.3/../../../../arm-none-eabi/lib/armv7-m/libm.a(lib_a-wf_acos.o)
                                                  /tmp/ccZkfwo0.ltrans23.ltrans.o
                                                  /tmp/ccZkfwo0.ltrans2.ltrans.o
activateConfig                                    obj/main/CC3D/config/config.o (symbol from plugin)
activateControlRateConfig                         /tmp/ccZkfwo0.ltrans14.ltrans.o
                                                  obj/main/CC3D/config/config.o (symbol from plugin)
                                                  /tmp/ccZkfwo0.ltrans18.ltrans.o
activeBoxIdCount.lto_priv.373                     /tmp/ccZkfwo0.ltrans16.ltrans.o
                                                  /tmp/ccZkfwo0.ltrans1.ltrans.o
                                                  /tmp/ccZkfwo0.ltrans0.ltrans.o
activeBoxIds.lto_priv.374                         /tmp/ccZkfwo0.ltrans16.ltrans.o
                                                  /tmp/ccZkfwo0.ltrans1.ltrans.o
                                                  /tmp/ccZkfwo0.ltrans0.ltrans.o
activeFeaturesLatch.lto_priv.272                  /tmp/ccZkfwo0.ltrans16.ltrans.o
                                                  /tmp/ccZkfwo0.ltrans23.ltrans.o
                                                  /tmp/ccZkfwo0.ltrans22.ltrans.o
                                                  /tmp/ccZkfwo0.ltrans21.ltrans.o
                                                  /tmp/ccZkfwo0.ltrans19.ltrans.o
                                                  /tmp/ccZkfwo0.ltrans18.ltrans.o
                                                  /tmp/ccZkfwo0.ltrans9.ltrans.o
                                                  /tmp/ccZkfwo0.ltrans8.ltrans.o
                                                  /tmp/ccZkfwo0.ltrans4.ltrans.o
                                                  /tmp/ccZkfwo0.ltrans3.ltrans.o
                                                  /tmp/ccZkfwo0.ltrans2.ltrans.o
                                                  /tmp/ccZkfwo0.ltrans0.ltrans.o
adcConfig                                         /tmp/ccZkfwo0.ltrans7.ltrans.o
                                                  obj/main/CC3D/drivers/adc.o (symbol from plugin)
                                                  /tmp/ccZkfwo0.ltrans22.ltrans.o
                                                  /tmp/ccZkfwo0.ltrans3.ltrans.o
                                                  /tmp/ccZkfwo0.ltrans0.ltrans.o
                                                  obj/main/CC3D/drivers/adc_stm32f10x.o (symbol from plugin)
adcGetChannel                                     obj/main/CC3D/drivers/adc.o (symbol from plugin)
                                                  obj/main/CC3D/sensors/battery.o (symbol from plugin)
                                                  obj/main/CC3D/rx/rx.o (symbol from plugin)
adcInit                                           obj/main/CC3D/drivers/adc_stm32f10x.o (symbol from plugin)
                                                  obj/main/CC3D/main.o (symbol from plugin)
adcValues                                         /tmp/ccZkfwo0.ltrans7.ltrans.o
                                                  obj/main/CC3D/drivers/adc.o (symbol from plugin)
                                                  /tmp/ccZkfwo0.ltrans22.ltrans.o
                                                  /tmp/ccZkfwo0.ltrans3.ltrans.o
                                                  /tmp/ccZkfwo0.ltrans0.ltrans.o
                                                  obj/main/CC3D/drivers/adc_stm32f10x.o (symbol from plugin)
addr.lto_priv.583                                 /tmp/ccZkfwo0.ltrans15.ltrans.o
                                                  /tmp/ccZkfwo0.ltrans20.ltrans.o
adjustmentStateMask                               obj/main/CC3D/io/rc_controls.o (symbol from plugin)
adjustmentStates                                  /tmp/ccZkfwo0.ltrans3.ltrans.o
                                                  obj/main/CC3D/io/rc_controls.o (symbol from plugin)
                                                  /tmp/ccZkfwo0.ltrans14.ltrans.o
alignSensors                                      /tmp/ccZkfwo0.ltrans7.ltrans.o
                                                  obj/main/CC3D/sensors/boardalignment.o (symbol from plugin)
                                                  /tmp/ccZkfwo0.ltrans28.ltrans.o
                                                  /tmp/ccZkfwo0.ltrans23.ltrans.o
                                                  /tmp/ccZkfwo0.ltrans2.ltrans.o
                                                  obj/main/CC3D/sensors/gyro.o (symbol from plugin)
                                                  obj/main/CC3D/sensors/compass.o (symbol from plugin)
                                                  obj/main/CC3D/sensors/acceleration.o (symbol from plugin)
altHoldThrottleAdjustment                         obj/main/CC3D/flight/altitudehold.o (symbol from plugin)
amperage                                          /tmp/ccZkfwo0.ltrans4.ltrans.o
                                                  obj/main/CC3D/sensors/battery.o (symbol from plugin)
                                                  /tmp/ccZkfwo0.ltrans22.ltrans.o
                                                  /tmp/ccZkfwo0.ltrans1.ltrans.o
                                                  obj/main/CC3D/rx/jetiexbus.o (symbol from plugin)
                                                  obj/main/CC3D/io/serial_msp.o (symbol from plugin)
                                                  obj/main/CC3D/telemetry/smartport.o (symbol from plugin)
                                                  obj/main/CC3D/telemetry/hott.o (symbol from plugin)
                                                  obj/main/CC3D/telemetry/frsky.o (symbol from plugin)
amperageLatestADC                                 /tmp/ccZkfwo0.ltrans22.ltrans.o
                                                  obj/main/CC3D/sensors/battery.o (symbol from plugin)
                                                  /tmp/ccZkfwo0.ltrans5.ltrans.o
                                                  obj/main/CC3D/blackbox/blackbox.o (symbol from plugin)
annexCode                                         obj/main/CC3D/mw.o (symbol from plugin)
antiWindupProtection                              /tmp/ccZkfwo0.ltrans19.ltrans.o
                                                  obj/main/CC3D/io/serial_msp.o (symbol from plugin)
                                                  obj/main/CC3D/io/serial_cli.o (symbol from plugin)
                                                  obj/main/CC3D/io/rc_controls.o (symbol from plugin)
                                                  obj/main/CC3D/flight/mixer.o (symbol from plugin)
                                                  obj/main/CC3D/flight/imu.o (symbol from plugin)
                                                  obj/main/CC3D/flight/pid.o (symbol from plugin)
                                                  obj/main/CC3D/flight/altitudehold.o (symbol from plugin)
                                                  obj/main/CC3D/mw.o (symbol from plugin)
                                                  obj/main/CC3D/main.o (symbol from plugin)
                                                  obj/main/CC3D/config/config.o (symbol from plugin)
                                                  obj/main/CC3D/blackbox/blackbox_io.o (symbol from plugin)
                                                  obj/main/CC3D/blackbox/blackbox.o (symbol from plugin)
                                                  obj/main/CC3D/telemetry/ltm.o (symbol from plugin)
                                                  obj/main/CC3D/telemetry/smartport.o (symbol from plugin)
                                                  obj/main/CC3D/telemetry/hott.o (symbol from plugin)
                                                  obj/main/CC3D/telemetry/frsky.o (symbol from plugin)
                                                  obj/main/CC3D/io/gps.o (symbol from plugin)
                                                  obj/main/CC3D/flight/navigation.o (symbol from plugin)
                                                  /tmp/ccZkfwo0.ltrans27.ltrans.o
                                                  /tmp/ccZkfwo0.ltrans3.ltrans.o
applyAccelerationTrims                            obj/main/CC3D/sensors/acceleration.o (symbol from plugin)
applyAndSaveAccelerometerTrimsDelta               obj/main/CC3D/mw.o (symbol from plugin)
                                                  obj/main/CC3D/io/rc_controls.o (symbol from plugin)
applyBiQuadFilter                                 /tmp/ccZkfwo0.ltrans18.ltrans.o
                                                  obj/main/CC3D/common/filter.o (symbol from plugin)
                                                  /tmp/ccZkfwo0.ltrans23.ltrans.o
                                                  /tmp/ccZkfwo0.ltrans21.ltrans.o
                                                  /tmp/ccZkfwo0.ltrans7.ltrans.o
                                                  /tmp/ccZkfwo0.ltrans2.ltrans.o
                                                  obj/main/CC3D/sensors/gyro.o (symbol from plugin)
                                                  obj/main/CC3D/sensors/battery.o (symbol from plugin)
                                                  obj/main/CC3D/sensors/acceleration.o (symbol from plugin)
                                                  obj/main/CC3D/flight/mixer.o (symbol from plugin)
applyChangedBits                                  /tmp/ccZkfwo0.ltrans6.ltrans.o
                                                  obj/main/CC3D/drivers/serial_softserial.o (symbol from plugin)
                                                  /tmp/ccZkfwo0.ltrans13.ltrans.o
applyDeadband                                     /tmp/ccZkfwo0.ltrans18.ltrans.o
                                                  obj/main/CC3D/common/maths.o (symbol from plugin)
                                                  /tmp/ccZkfwo0.ltrans23.ltrans.o
                                                  obj/main/CC3D/flight/imu.o (symbol from plugin)
applyDefaultColors                                obj/main/CC3D/io/ledstrip.o (symbol from plugin)
                                                  obj/main/CC3D/config/config.o (symbol from plugin)
applyDefaultLedStripConfig                        obj/main/CC3D/io/ledstrip.o (symbol from plugin)
                                                  obj/main/CC3D/config/config.o (symbol from plugin)
applyDirectionalModeColor                         /tmp/ccZkfwo0.ltrans12.ltrans.o
                                                  obj/main/CC3D/io/ledstrip.o (symbol from plugin)
                                                  /tmp/ccZkfwo0.ltrans9.ltrans.o
applyLedIndicatorLayer                            obj/main/CC3D/io/ledstrip.o (symbol from plugin)
applyLedModeLayer                                 obj/main/CC3D/io/ledstrip.o (symbol from plugin)
applyLedThrottleLayer                             obj/main/CC3D/io/ledstrip.o (symbol from plugin)
applyLedThrustRingLayer                           obj/main/CC3D/io/ledstrip.o (symbol from plugin)
applyLedWarningLayer                              obj/main/CC3D/io/ledstrip.o (symbol from plugin)
applyQuadrantColor                                obj/main/CC3D/io/ledstrip.o (symbol from plugin)
applySelectAdjustment                             obj/main/CC3D/io/rc_controls.o (symbol from plugin)
applyStepAdjustment                               obj/main/CC3D/io/rc_controls.o (symbol from plugin)
areSticksInApModePosition                         obj/main/CC3D/io/rc_controls.o (symbol from plugin)
armingBeepTimeMicros.lto_priv.433                 /tmp/ccZkfwo0.ltrans22.ltrans.o
                                                  /tmp/ccZkfwo0.ltrans21.ltrans.o
                                                  /tmp/ccZkfwo0.ltrans5.ltrans.o
armingCalibrationWasInitialised.lto_priv.426      /tmp/ccZkfwo0.ltrans3.ltrans.o
                                                  /tmp/ccZkfwo0.ltrans21.ltrans.o
armingFlags                                       /tmp/ccZkfwo0.ltrans16.ltrans.o
                                                  obj/main/CC3D/config/runtime_config.o (symbol from plugin)
                                                  /tmp/ccZkfwo0.ltrans23.ltrans.o
                                                  /tmp/ccZkfwo0.ltrans22.ltrans.o
                                                  /tmp/ccZkfwo0.ltrans21.ltrans.o
                                                  /tmp/ccZkfwo0.ltrans12.ltrans.o
                                                  /tmp/ccZkfwo0.ltrans9.ltrans.o
                                                  /tmp/ccZkfwo0.ltrans4.ltrans.o
                                                  /tmp/ccZkfwo0.ltrans3.ltrans.o
                                                  /tmp/ccZkfwo0.ltrans2.ltrans.o
                                                  /tmp/ccZkfwo0.ltrans1.ltrans.o
                                                  /tmp/ccZkfwo0.ltrans0.ltrans.o
                                                  obj/main/CC3D/sensors/battery.o (symbol from plugin)
                                                  obj/main/CC3D/io/serial_msp.o (symbol from plugin)
                                                  obj/main/CC3D/io/serial_cli.o (symbol from plugin)
                                                  obj/main/CC3D/io/rc_controls.o (symbol from plugin)
                                                  obj/main/CC3D/flight/mixer.o (symbol from plugin)
                                                  obj/main/CC3D/flight/imu.o (symbol from plugin)
                                                  obj/main/CC3D/flight/failsafe.o (symbol from plugin)
                                                  obj/main/CC3D/mw.o (symbol from plugin)
                                                  obj/main/CC3D/main.o (symbol from plugin)
                                                  obj/main/CC3D/telemetry/ltm.o (symbol from plugin)
                                                  obj/main/CC3D/telemetry/smartport.o (symbol from plugin)
                                                  obj/main/CC3D/telemetry/frsky.o (symbol from plugin)
                                                  obj/main/CC3D/telemetry/telemetry.o (symbol from plugin)
                                                  obj/main/CC3D/io/ledstrip.o (symbol from plugin)
arraySubInt32                                     obj/main/CC3D/common/maths.o (symbol from plugin)
                                                  obj/main/CC3D/blackbox/blackbox.o (symbol from plugin)
atan2_approx                                      obj/main/CC3D/common/maths.o (symbol from plugin)
atan2f                                            /usr/bin/../lib/gcc/arm-none-eabi/4.9.3/../../../../arm-none-eabi/lib/armv7-m/libm.a(lib_a-wf_atan2.o)
                                                  /tmp/ccZkfwo0.ltrans23.ltrans.o
atanf                                             /usr/bin/../lib/gcc/arm-none-eabi/4.9.3/../../../../arm-none-eabi/lib/armv7-m/libm.a(lib_a-sf_atan.o)
                                                  /usr/bin/../lib/gcc/arm-none-eabi/4.9.3/../../../../arm-none-eabi/lib/armv7-m/libm.a(lib_a-ef_atan2.o)
atoi                                              /usr/bin/../lib/gcc/arm-none-eabi/4.9.3/../../../../arm-none-eabi/lib/armv7-m/libc_nano.a(lib_a-atoi.o)
                                                  /tmp/ccZkfwo0.ltrans25.ltrans.o
                                                  /tmp/ccZkfwo0.ltrans16.ltrans.o
                                                  /tmp/ccZkfwo0.ltrans11.ltrans.o
                                                  /tmp/ccZkfwo0.ltrans10.ltrans.o
                                                  obj/main/CC3D/io/serial_cli.o (symbol from plugin)
                                                  obj/main/CC3D/io/ledstrip.o (symbol from plugin)
attitude                                          /tmp/ccZkfwo0.ltrans19.ltrans.o
                                                  obj/main/CC3D/flight/imu.o (symbol from plugin)
                                                  /tmp/ccZkfwo0.ltrans27.ltrans.o
                                                  /tmp/ccZkfwo0.ltrans23.ltrans.o
                                                  /tmp/ccZkfwo0.ltrans21.ltrans.o
                                                  /tmp/ccZkfwo0.ltrans4.ltrans.o
                                                  /tmp/ccZkfwo0.ltrans3.ltrans.o
                                                  /tmp/ccZkfwo0.ltrans2.ltrans.o
                                                  /tmp/ccZkfwo0.ltrans1.ltrans.o
                                                  obj/main/CC3D/io/serial_msp.o (symbol from plugin)
                                                  obj/main/CC3D/flight/mixer.o (symbol from plugin)
                                                  obj/main/CC3D/flight/pid.o (symbol from plugin)
                                                  obj/main/CC3D/mw.o (symbol from plugin)
                                                  obj/main/CC3D/telemetry/ltm.o (symbol from plugin)
                                                  obj/main/CC3D/telemetry/smartport.o (symbol from plugin)
                                                  obj/main/CC3D/telemetry/frsky.o (symbol from plugin)
averageSystemLoadPercent                          /tmp/ccZkfwo0.ltrans16.ltrans.o
                                                  obj/main/CC3D/scheduler.o (symbol from plugin)
                                                  /tmp/ccZkfwo0.ltrans18.ltrans.o
                                                  /tmp/ccZkfwo0.ltrans3.ltrans.o
                                                  /tmp/ccZkfwo0.ltrans2.ltrans.o
                                                  obj/main/CC3D/io/serial_cli.o (symbol from plugin)
                                                  obj/main/CC3D/mw.o (symbol from plugin)
axisPID                                           /tmp/ccZkfwo0.ltrans19.ltrans.o
                                                  obj/main/CC3D/flight/pid.o (symbol from plugin)
                                                  /tmp/ccZkfwo0.ltrans27.ltrans.o
                                                  /tmp/ccZkfwo0.ltrans2.ltrans.o
                                                  obj/main/CC3D/flight/mixer.o (symbol from plugin)
axisPID_D                                         /tmp/ccZkfwo0.ltrans19.ltrans.o
                                                  obj/main/CC3D/flight/pid.o (symbol from plugin)
                                                  /tmp/ccZkfwo0.ltrans27.ltrans.o
                                                  /tmp/ccZkfwo0.ltrans5.ltrans.o
                                                  obj/main/CC3D/blackbox/blackbox.o (symbol from plugin)
axisPID_I                                         /tmp/ccZkfwo0.ltrans19.ltrans.o
                                                  obj/main/CC3D/flight/pid.o (symbol from plugin)
                                                  /tmp/ccZkfwo0.ltrans27.ltrans.o
                                                  /tmp/ccZkfwo0.ltrans5.ltrans.o
                                                  obj/main/CC3D/blackbox/blackbox.o (symbol from plugin)
axisPID_P                                         /tmp/ccZkfwo0.ltrans19.ltrans.o
                                                  obj/main/CC3D/flight/pid.o (symbol from plugin)
                                                  /tmp/ccZkfwo0.ltrans27.ltrans.o
                                                  /tmp/ccZkfwo0.ltrans5.ltrans.o
                                                  obj/main/CC3D/blackbox/blackbox.o (symbol from plugin)
bDeviceState                                      /tmp/ccZkfwo0.ltrans24.ltrans.o
                                                  obj/main/CC3D/vcp/usb_pwr.o (symbol from plugin)
                                                  /tmp/ccZkfwo0.ltrans26.ltrans.o
                                                  obj/main/CC3D/vcp/usb_prop.o (symbol from plugin)
                                                  obj/main/CC3D/vcp/hw_config.o (symbol from plugin)
bIntPackSOF                                       obj/main/CC3D/vcp/usb_istr.o (symbol from plugin)
baro                                              obj/main/CC3D/sensors/barometer.o (symbol from plugin)
baroPressure                                      obj/main/CC3D/sensors/barometer.o (symbol from plugin)
baroTemperature                                   obj/main/CC3D/sensors/barometer.o (symbol from plugin)
baro_cf_alt                                       obj/main/CC3D/sensors/sonar.o (symbol from plugin)
baro_cf_vel                                       obj/main/CC3D/sensors/sonar.o (symbol from plugin)
batteryAdcToVoltage                               /tmp/ccZkfwo0.ltrans7.ltrans.o
                                                  obj/main/CC3D/sensors/battery.o (symbol from plugin)
                                                  /tmp/ccZkfwo0.ltrans22.ltrans.o
batteryCellCount                                  /tmp/ccZkfwo0.ltrans16.ltrans.o
                                                  obj/main/CC3D/sensors/battery.o (symbol from plugin)
                                                  /tmp/ccZkfwo0.ltrans22.ltrans.o
                                                  /tmp/ccZkfwo0.ltrans19.ltrans.o
                                                  /tmp/ccZkfwo0.ltrans4.ltrans.o
                                                  /tmp/ccZkfwo0.ltrans2.ltrans.o
                                                  /tmp/ccZkfwo0.ltrans0.ltrans.o
                                                  obj/main/CC3D/io/serial_cli.o (symbol from plugin)
                                                  obj/main/CC3D/io/beeper.o (symbol from plugin)
                                                  obj/main/CC3D/telemetry/smartport.o (symbol from plugin)
                                                  obj/main/CC3D/telemetry/frsky.o (symbol from plugin)
batteryConfig                                     /tmp/ccZkfwo0.ltrans7.ltrans.o
                                                  obj/main/CC3D/sensors/battery.o (symbol from plugin)
                                                  obj/main/CC3D/sensors/acceleration.o (symbol from plugin)
                                                  obj/main/CC3D/rx/jetiexbus.o (symbol from plugin)
                                                  obj/main/CC3D/io/serial_msp.o (symbol from plugin)
                                                  obj/main/CC3D/io/serial_cli.o (symbol from plugin)
                                                  obj/main/CC3D/io/rc_controls.o (symbol from plugin)
                                                  obj/main/CC3D/io/beeper.o (symbol from plugin)
                                                  obj/main/CC3D/flight/mixer.o (symbol from plugin)
                                                  obj/main/CC3D/mw.o (symbol from plugin)
                                                  obj/main/CC3D/main.o (symbol from plugin)
                                                  obj/main/CC3D/config/config.o (symbol from plugin)
                                                  obj/main/CC3D/blackbox/blackbox_io.o (symbol from plugin)
                                                  obj/main/CC3D/blackbox/blackbox.o (symbol from plugin)
                                                  obj/main/CC3D/sensors/sonar.o (symbol from plugin)
                                                  obj/main/CC3D/telemetry/ltm.o (symbol from plugin)
                                                  obj/main/CC3D/telemetry/smartport.o (symbol from plugin)
                                                  obj/main/CC3D/telemetry/hott.o (symbol from plugin)
                                                  obj/main/CC3D/telemetry/frsky.o (symbol from plugin)
                                                  obj/main/CC3D/io/ledstrip.o (symbol from plugin)
                                                  /tmp/ccZkfwo0.ltrans22.ltrans.o
                                                  /tmp/ccZkfwo0.ltrans4.ltrans.o
                                                  /tmp/ccZkfwo0.ltrans2.ltrans.o
                                                  /tmp/ccZkfwo0.ltrans0.ltrans.o
batteryCriticalVoltage                            /tmp/ccZkfwo0.ltrans22.ltrans.o
                                                  obj/main/CC3D/sensors/battery.o (symbol from plugin)
                                                  /tmp/ccZkfwo0.ltrans0.ltrans.o
batteryInit                                       obj/main/CC3D/sensors/battery.o (symbol from plugin)
                                                  obj/main/CC3D/main.o (symbol from plugin)
batteryState.lto_priv.292                         /tmp/ccZkfwo0.ltrans16.ltrans.o
                                                  /tmp/ccZkfwo0.ltrans22.ltrans.o
                                                  /tmp/ccZkfwo0.ltrans9.ltrans.o
                                                  /tmp/ccZkfwo0.ltrans4.ltrans.o
                                                  /tmp/ccZkfwo0.ltrans0.ltrans.o
batteryStateStrings                               obj/main/CC3D/sensors/battery.o (symbol from plugin)
batteryWarningVoltage                             /tmp/ccZkfwo0.ltrans22.ltrans.o
                                                  obj/main/CC3D/sensors/battery.o (symbol from plugin)
                                                  /tmp/ccZkfwo0.ltrans0.ltrans.o
baudRates                                         /tmp/ccZkfwo0.ltrans24.ltrans.o
                                                  obj/main/CC3D/io/serial.o (symbol from plugin)
                                                  /tmp/ccZkfwo0.ltrans21.ltrans.o
                                                  /tmp/ccZkfwo0.ltrans12.ltrans.o
                                                  /tmp/ccZkfwo0.ltrans10.ltrans.o
                                                  obj/main/CC3D/io/serial_msp.o (symbol from plugin)
                                                  obj/main/CC3D/io/serial_cli.o (symbol from plugin)
                                                  obj/main/CC3D/blackbox/blackbox_io.o (symbol from plugin)
                                                  obj/main/CC3D/telemetry/ltm.o (symbol from plugin)
beepInverted.lto_priv.491                         /tmp/ccZkfwo0.ltrans19.ltrans.o
beepNormal.lto_priv.492                           /tmp/ccZkfwo0.ltrans19.ltrans.o
                                                  /tmp/ccZkfwo0.ltrans0.ltrans.o
beep_2longerBeeps.lto_priv.254                    /tmp/ccZkfwo0.ltrans25.ltrans.o
beep_2shortBeeps.lto_priv.253                     /tmp/ccZkfwo0.ltrans25.ltrans.o
beep_armedBeep.lto_priv.257                       /tmp/ccZkfwo0.ltrans25.ltrans.o
beep_armedGpsFix.lto_priv.248                     /tmp/ccZkfwo0.ltrans25.ltrans.o
beep_armingBeep.lto_priv.247                      /tmp/ccZkfwo0.ltrans25.ltrans.o
beep_critBatteryBeep.lto_priv.249                 /tmp/ccZkfwo0.ltrans25.ltrans.o
beep_disarmBeep.lto_priv.246                      /tmp/ccZkfwo0.ltrans25.ltrans.o
beep_disarmRepeatBeep.lto_priv.256                /tmp/ccZkfwo0.ltrans25.ltrans.o
beep_gyroCalibrated.lto_priv.243                  /tmp/ccZkfwo0.ltrans25.ltrans.o
beep_lowBatteryBeep.lto_priv.250                  /tmp/ccZkfwo0.ltrans25.ltrans.o
beep_multiBeeps.lto_priv.251                      /tmp/ccZkfwo0.ltrans25.ltrans.o
                                                  /tmp/ccZkfwo0.ltrans8.ltrans.o
beep_readyBeep.lto_priv.255                       /tmp/ccZkfwo0.ltrans25.ltrans.o
beep_shortBeep.lto_priv.252                       /tmp/ccZkfwo0.ltrans25.ltrans.o
beep_sos.lto_priv.245                             /tmp/ccZkfwo0.ltrans25.ltrans.o
beep_txLostBeep.lto_priv.244                      /tmp/ccZkfwo0.ltrans25.ltrans.o
beeper                                            /tmp/ccZkfwo0.ltrans19.ltrans.o
                                                  obj/main/CC3D/io/beeper.o (symbol from plugin)
                                                  /tmp/ccZkfwo0.ltrans25.ltrans.o
                                                  /tmp/ccZkfwo0.ltrans23.ltrans.o
                                                  /tmp/ccZkfwo0.ltrans22.ltrans.o
                                                  /tmp/ccZkfwo0.ltrans21.ltrans.o
                                                  /tmp/ccZkfwo0.ltrans8.ltrans.o
                                                  /tmp/ccZkfwo0.ltrans3.ltrans.o
                                                  /tmp/ccZkfwo0.ltrans2.ltrans.o
                                                  obj/main/CC3D/sensors/gyro.o (symbol from plugin)
                                                  obj/main/CC3D/sensors/battery.o (symbol from plugin)
                                                  obj/main/CC3D/sensors/acceleration.o (symbol from plugin)
                                                  obj/main/CC3D/io/serial_cli.o (symbol from plugin)
                                                  obj/main/CC3D/io/rc_controls.o (symbol from plugin)
                                                  obj/main/CC3D/flight/failsafe.o (symbol from plugin)
                                                  obj/main/CC3D/mw.o (symbol from plugin)
beeperConfirmationBeeps                           /tmp/ccZkfwo0.ltrans8.ltrans.o
                                                  obj/main/CC3D/io/beeper.o (symbol from plugin)
                                                  /tmp/ccZkfwo0.ltrans21.ltrans.o
                                                  /tmp/ccZkfwo0.ltrans18.ltrans.o
                                                  /tmp/ccZkfwo0.ltrans3.ltrans.o
                                                  obj/main/CC3D/io/rc_controls.o (symbol from plugin)
                                                  obj/main/CC3D/mw.o (symbol from plugin)
                                                  obj/main/CC3D/config/runtime_config.o (symbol from plugin)
                                                  obj/main/CC3D/config/config.o (symbol from plugin)
beeperInit                                        obj/main/CC3D/drivers/sound_beeper.o (symbol from plugin)
                                                  obj/main/CC3D/main.o (symbol from plugin)
beeperIsOn.lto_priv.355                           /tmp/ccZkfwo0.ltrans8.ltrans.o
                                                  /tmp/ccZkfwo0.ltrans22.ltrans.o
beeperModeForTableIndex                           obj/main/CC3D/io/beeper.o (symbol from plugin)
                                                  obj/main/CC3D/io/serial_cli.o (symbol from plugin)
beeperNameForTableIndex                           obj/main/CC3D/io/beeper.o (symbol from plugin)
                                                  obj/main/CC3D/io/serial_cli.o (symbol from plugin)
beeperNextToggleTime.lto_priv.285                 /tmp/ccZkfwo0.ltrans8.ltrans.o
                                                  /tmp/ccZkfwo0.ltrans22.ltrans.o
                                                  /tmp/ccZkfwo0.ltrans19.ltrans.o
beeperOffClear                                    obj/main/CC3D/config/config.o (symbol from plugin)
                                                  obj/main/CC3D/io/serial_cli.o (symbol from plugin)
beeperOffClearAll                                 obj/main/CC3D/config/config.o (symbol from plugin)
                                                  obj/main/CC3D/io/serial_cli.o (symbol from plugin)
beeperOffSet                                      obj/main/CC3D/config/config.o (symbol from plugin)
                                                  obj/main/CC3D/io/serial_cli.o (symbol from plugin)
beeperOffSetAll                                   obj/main/CC3D/config/config.o (symbol from plugin)
                                                  obj/main/CC3D/io/serial_cli.o (symbol from plugin)
beeperPin.lto_priv.490                            /tmp/ccZkfwo0.ltrans19.ltrans.o
                                                  /tmp/ccZkfwo0.ltrans0.ltrans.o
beeperPos.lto_priv.284                            /tmp/ccZkfwo0.ltrans8.ltrans.o
                                                  /tmp/ccZkfwo0.ltrans22.ltrans.o
                                                  /tmp/ccZkfwo0.ltrans19.ltrans.o
beeperSilence                                     /tmp/ccZkfwo0.ltrans8.ltrans.o
                                                  obj/main/CC3D/io/beeper.o (symbol from plugin)
                                                  /tmp/ccZkfwo0.ltrans25.ltrans.o
                                                  /tmp/ccZkfwo0.ltrans22.ltrans.o
                                                  /tmp/ccZkfwo0.ltrans19.ltrans.o
                                                  /tmp/ccZkfwo0.ltrans3.ltrans.o
                                                  /tmp/ccZkfwo0.ltrans1.ltrans.o
                                                  obj/main/CC3D/io/serial_cli.o (symbol from plugin)
                                                  obj/main/CC3D/io/serial_4way.o (symbol from plugin)
                                                  obj/main/CC3D/mw.o (symbol from plugin)
beeperTable                                       /tmp/ccZkfwo0.ltrans25.ltrans.o
                                                  obj/main/CC3D/io/beeper.o (symbol from plugin)
                                                  /tmp/ccZkfwo0.ltrans19.ltrans.o
                                                  /tmp/ccZkfwo0.ltrans11.ltrans.o
beeperTableEntryCount                             obj/main/CC3D/io/beeper.o (symbol from plugin)
                                                  obj/main/CC3D/io/serial_cli.o (symbol from plugin)
beeperUpdate                                      obj/main/CC3D/io/beeper.o (symbol from plugin)
                                                  obj/main/CC3D/mw.o (symbol from plugin)
blackboxAdvanceIterationTimers.lto_priv.420       /tmp/ccZkfwo0.ltrans5.ltrans.o
                                                  /tmp/ccZkfwo0.ltrans2.ltrans.o
blackboxConditionCache.lto_priv.432               /tmp/ccZkfwo0.ltrans2.ltrans.o
                                                  /tmp/ccZkfwo0.ltrans21.ltrans.o
                                                  /tmp/ccZkfwo0.ltrans5.ltrans.o
blackboxDeviceBeginLog                            obj/main/CC3D/blackbox/blackbox_io.o (symbol from plugin)
                                                  obj/main/CC3D/blackbox/blackbox.o (symbol from plugin)
blackboxDeviceClose                               obj/main/CC3D/blackbox/blackbox_io.o (symbol from plugin)
                                                  obj/main/CC3D/blackbox/blackbox.o (symbol from plugin)
blackboxDeviceEndLog                              obj/main/CC3D/blackbox/blackbox_io.o (symbol from plugin)
                                                  obj/main/CC3D/blackbox/blackbox.o (symbol from plugin)
blackboxDeviceFlush                               obj/main/CC3D/blackbox/blackbox_io.o (symbol from plugin)
                                                  obj/main/CC3D/blackbox/blackbox.o (symbol from plugin)
blackboxDeviceFlushForce                          /tmp/ccZkfwo0.ltrans14.ltrans.o
                                                  obj/main/CC3D/blackbox/blackbox_io.o (symbol from plugin)
                                                  /tmp/ccZkfwo0.ltrans2.ltrans.o
                                                  obj/main/CC3D/blackbox/blackbox.o (symbol from plugin)
blackboxDeviceOpen                                obj/main/CC3D/blackbox/blackbox_io.o (symbol from plugin)
                                                  obj/main/CC3D/blackbox/blackbox.o (symbol from plugin)
blackboxDeviceReserveBufferSpace                  /tmp/ccZkfwo0.ltrans14.ltrans.o
                                                  obj/main/CC3D/blackbox/blackbox_io.o (symbol from plugin)
                                                  /tmp/ccZkfwo0.ltrans5.ltrans.o
                                                  /tmp/ccZkfwo0.ltrans2.ltrans.o
                                                  obj/main/CC3D/blackbox/blackbox.o (symbol from plugin)
blackboxHeaderBudget                              /tmp/ccZkfwo0.ltrans2.ltrans.o
                                                  obj/main/CC3D/blackbox/blackbox_io.o (symbol from plugin)
                                                  /tmp/ccZkfwo0.ltrans14.ltrans.o
                                                  /tmp/ccZkfwo0.ltrans5.ltrans.o
                                                  obj/main/CC3D/blackbox/blackbox.o (symbol from plugin)
blackboxHistory.lto_priv.556                      /tmp/ccZkfwo0.ltrans21.ltrans.o
                                                  /tmp/ccZkfwo0.ltrans5.ltrans.o
blackboxHistoryRing.lto_priv.557                  /tmp/ccZkfwo0.ltrans21.ltrans.o
                                                  /tmp/ccZkfwo0.ltrans5.ltrans.o
blackboxIFrameIndex.lto_priv.560                  /tmp/ccZkfwo0.ltrans21.ltrans.o
                                                  /tmp/ccZkfwo0.ltrans5.ltrans.o
blackboxIteration.lto_priv.430                    /tmp/ccZkfwo0.ltrans2.ltrans.o
                                                  /tmp/ccZkfwo0.ltrans21.ltrans.o
                                                  /tmp/ccZkfwo0.ltrans5.ltrans.o
blackboxLastArmingBeep.lto_priv.559               /tmp/ccZkfwo0.ltrans21.ltrans.o
                                                  /tmp/ccZkfwo0.ltrans5.ltrans.o
blackboxLastFlightModeFlags.lto_priv.558          /tmp/ccZkfwo0.ltrans21.ltrans.o
                                                  /tmp/ccZkfwo0.ltrans5.ltrans.o
blackboxLogEvent                                  obj/main/CC3D/blackbox/blackbox.o (symbol from plugin)
                                                  obj/main/CC3D/io/rc_controls.o (symbol from plugin)
blackboxLogInflightAdjustmentEvent                /tmp/ccZkfwo0.ltrans8.ltrans.o
                                                  obj/main/CC3D/io/rc_controls.o (symbol from plugin)
                                                  /tmp/ccZkfwo0.ltrans3.ltrans.o
blackboxLogInflightAdjustmentEventFloat           obj/main/CC3D/io/rc_controls.o (symbol from plugin)
blackboxLogIteration.lto_priv.421                 /tmp/ccZkfwo0.ltrans5.ltrans.o
                                                  /tmp/ccZkfwo0.ltrans2.ltrans.o
blackboxLoggedAnyFrames.lto_priv.434              /tmp/ccZkfwo0.ltrans2.ltrans.o
                                                  /tmp/ccZkfwo0.ltrans21.ltrans.o
                                                  /tmp/ccZkfwo0.ltrans5.ltrans.o
blackboxMaxHeaderBytesPerIteration.lto_priv.437   /tmp/ccZkfwo0.ltrans2.ltrans.o
                                                  /tmp/ccZkfwo0.ltrans21.ltrans.o
blackboxMayEditConfig                             obj/main/CC3D/blackbox/blackbox.o (symbol from plugin)
                                                  obj/main/CC3D/io/serial_msp.o (symbol from plugin)
blackboxModeActivationConditionPresent.lto_priv.429 /tmp/ccZkfwo0.ltrans2.ltrans.o
                                                  /tmp/ccZkfwo0.ltrans21.ltrans.o
blackboxPFrameIndex.lto_priv.431                  /tmp/ccZkfwo0.ltrans2.ltrans.o
                                                  /tmp/ccZkfwo0.ltrans21.ltrans.o
                                                  /tmp/ccZkfwo0.ltrans5.ltrans.o
blackboxPort.lto_priv.439                         /tmp/ccZkfwo0.ltrans2.ltrans.o
                                                  /tmp/ccZkfwo0.ltrans21.ltrans.o
                                                  /tmp/ccZkfwo0.ltrans14.ltrans.o
                                                  /tmp/ccZkfwo0.ltrans5.ltrans.o
blackboxPortSharing.lto_priv.438                  /tmp/ccZkfwo0.ltrans2.ltrans.o
                                                  /tmp/ccZkfwo0.ltrans21.ltrans.o
blackboxPrint                                     /tmp/ccZkfwo0.ltrans14.ltrans.o
                                                  obj/main/CC3D/blackbox/blackbox_io.o (symbol from plugin)
                                                  /tmp/ccZkfwo0.ltrans21.ltrans.o
                                                  /tmp/ccZkfwo0.ltrans5.ltrans.o
                                                  obj/main/CC3D/blackbox/blackbox.o (symbol from plugin)
blackboxPrintf                                    /tmp/ccZkfwo0.ltrans14.ltrans.o
                                                  obj/main/CC3D/blackbox/blackbox_io.o (symbol from plugin)
                                                  /tmp/ccZkfwo0.ltrans5.ltrans.o
                                                  obj/main/CC3D/blackbox/blackbox.o (symbol from plugin)
blackboxPrintfHeaderLine                          /tmp/ccZkfwo0.ltrans14.ltrans.o
                                                  obj/main/CC3D/blackbox/blackbox_io.o (symbol from plugin)
                                                  /tmp/ccZkfwo0.ltrans2.ltrans.o
                                                  obj/main/CC3D/blackbox/blackbox.o (symbol from plugin)
blackboxReplenishHeaderBudget                     obj/main/CC3D/blackbox/blackbox_io.o (symbol from plugin)
                                                  obj/main/CC3D/blackbox/blackbox.o (symbol from plugin)
blackboxSlowFrameIterationTimer.lto_priv.436      /tmp/ccZkfwo0.ltrans2.ltrans.o
                                                  /tmp/ccZkfwo0.ltrans5.ltrans.o
blackboxState.lto_priv.365                        /tmp/ccZkfwo0.ltrans8.ltrans.o
                                                  /tmp/ccZkfwo0.ltrans21.ltrans.o
                                                  /tmp/ccZkfwo0.ltrans5.ltrans.o
                                                  /tmp/ccZkfwo0.ltrans2.ltrans.o
                                                  /tmp/ccZkfwo0.ltrans1.ltrans.o
                                                  /tmp/ccZkfwo0.ltrans0.ltrans.o
blackboxWrite                                     /tmp/ccZkfwo0.ltrans5.ltrans.o
                                                  obj/main/CC3D/blackbox/blackbox_io.o (symbol from plugin)
                                                  /tmp/ccZkfwo0.ltrans21.ltrans.o
                                                  /tmp/ccZkfwo0.ltrans14.ltrans.o
                                                  /tmp/ccZkfwo0.ltrans8.ltrans.o
                                                  /tmp/ccZkfwo0.ltrans2.ltrans.o
                                                  obj/main/CC3D/blackbox/blackbox.o (symbol from plugin)
blackboxWriteFloat                                obj/main/CC3D/blackbox/blackbox_io.o (symbol from plugin)
                                                  obj/main/CC3D/blackbox/blackbox.o (symbol from plugin)
blackboxWriteS16                                  obj/main/CC3D/blackbox/blackbox_io.o (symbol from plugin)
                                                  obj/main/CC3D/blackbox/blackbox.o (symbol from plugin)
blackboxWriteSigned16VBArray                      /tmp/ccZkfwo0.ltrans14.ltrans.o
                                                  obj/main/CC3D/blackbox/blackbox_io.o (symbol from plugin)
                                                  /tmp/ccZkfwo0.ltrans5.ltrans.o
                                                  obj/main/CC3D/blackbox/blackbox.o (symbol from plugin)
blackboxWriteSignedVB                             /tmp/ccZkfwo0.ltrans14.ltrans.o
                                                  obj/main/CC3D/blackbox/blackbox_io.o (symbol from plugin)
                                                  /tmp/ccZkfwo0.ltrans24.ltrans.o
                                                  /tmp/ccZkfwo0.ltrans8.ltrans.o
                                                  /tmp/ccZkfwo0.ltrans5.ltrans.o
                                                  obj/main/CC3D/blackbox/blackbox.o (symbol from plugin)
blackboxWriteSignedVBArray                        obj/main/CC3D/blackbox/blackbox_io.o (symbol from plugin)
                                                  obj/main/CC3D/blackbox/blackbox.o (symbol from plugin)
blackboxWriteSignedVBArray.constprop.99           /tmp/ccZkfwo0.ltrans24.ltrans.o
                                                  /tmp/ccZkfwo0.ltrans5.ltrans.o
blackboxWriteTag2_3S32                            /tmp/ccZkfwo0.ltrans14.ltrans.o
                                                  obj/main/CC3D/blackbox/blackbox_io.o (symbol from plugin)
                                                  /tmp/ccZkfwo0.ltrans5.ltrans.o
                                                  obj/main/CC3D/blackbox/blackbox.o (symbol from plugin)
blackboxWriteTag8_4S16                            obj/main/CC3D/blackbox/blackbox_io.o (symbol from plugin)
                                                  obj/main/CC3D/blackbox/blackbox.o (symbol from plugin)
blackboxWriteTag8_8SVB                            obj/main/CC3D/blackbox/blackbox_io.o (symbol from plugin)
                                                  obj/main/CC3D/blackbox/blackbox.o (symbol from plugin)
blackboxWriteU32                                  obj/main/CC3D/blackbox/blackbox_io.o (symbol from plugin)
blackboxWriteUnsignedVB                           /tmp/ccZkfwo0.ltrans14.ltrans.o
                                                  obj/main/CC3D/blackbox/blackbox_io.o (symbol from plugin)
                                                  /tmp/ccZkfwo0.ltrans5.ltrans.o
                                                  /tmp/ccZkfwo0.ltrans2.ltrans.o
                                                  obj/main/CC3D/blackbox/blackbox.o (symbol from plugin)
boardRotation.lto_priv.489                        /tmp/ccZkfwo0.ltrans7.ltrans.o
                                                  /tmp/ccZkfwo0.ltrans0.ltrans.o
bufWriterAppend                                   /tmp/ccZkfwo0.ltrans19.ltrans.o
                                                  obj/main/CC3D/drivers/buf_writer.o (symbol from plugin)
                                                  /tmp/ccZkfwo0.ltrans25.ltrans.o
                                                  /tmp/ccZkfwo0.ltrans16.ltrans.o
                                                  /tmp/ccZkfwo0.ltrans8.ltrans.o
                                                  /tmp/ccZkfwo0.ltrans1.ltrans.o
                                                  obj/main/CC3D/io/serial_msp.o (symbol from plugin)
                                                  obj/main/CC3D/io/serial_cli.o (symbol from plugin)
                                                  obj/main/CC3D/io/serial_4way.o (symbol from plugin)
bufWriterFlush                                    /tmp/ccZkfwo0.ltrans19.ltrans.o
                                                  obj/main/CC3D/drivers/buf_writer.o (symbol from plugin)
                                                  /tmp/ccZkfwo0.ltrans25.ltrans.o
                                                  /tmp/ccZkfwo0.ltrans11.ltrans.o
                                                  /tmp/ccZkfwo0.ltrans10.ltrans.o
                                                  /tmp/ccZkfwo0.ltrans1.ltrans.o
                                                  obj/main/CC3D/io/serial_msp.o (symbol from plugin)
                                                  obj/main/CC3D/io/serial_cli.o (symbol from plugin)
                                                  obj/main/CC3D/io/serial_4way.o (symbol from plugin)
bufWriterInit                                     obj/main/CC3D/drivers/buf_writer.o (symbol from plugin)
                                                  obj/main/CC3D/io/serial_msp.o (symbol from plugin)
                                                  obj/main/CC3D/io/serial_cli.o (symbol from plugin)
bufferHead.lto_priv.554                           /tmp/ccZkfwo0.ltrans14.ltrans.o
                                                  /tmp/ccZkfwo0.ltrans12.ltrans.o
                                                  /tmp/ccZkfwo0.ltrans5.ltrans.o
bufferIndex.lto_priv.377                          /tmp/ccZkfwo0.ltrans11.ltrans.o
                                                  /tmp/ccZkfwo0.ltrans1.ltrans.o
bufferTail.lto_priv.575                           /tmp/ccZkfwo0.ltrans14.ltrans.o
                                                  /tmp/ccZkfwo0.ltrans12.ltrans.o
buildDate                                         /tmp/ccZkfwo0.ltrans16.ltrans.o
                                                  obj/main/CC3D/version.o (symbol from plugin)
                                                  obj/main/CC3D/io/serial_msp.o (symbol from plugin)
                                                  obj/main/CC3D/io/serial_cli.o (symbol from plugin)
                                                  obj/main/CC3D/blackbox/blackbox.o (symbol from plugin)
buildRotationMatrix                               obj/main/CC3D/common/maths.o (symbol from plugin)
                                                  obj/main/CC3D/sensors/boardalignment.o (symbol from plugin)
buildTime                                         /tmp/ccZkfwo0.ltrans16.ltrans.o
                                                  obj/main/CC3D/version.o (symbol from plugin)
                                                  obj/main/CC3D/io/serial_msp.o (symbol from plugin)
                                                  obj/main/CC3D/io/serial_cli.o (symbol from plugin)
                                                  obj/main/CC3D/blackbox/blackbox.o (symbol from plugin)
busy.lto_priv.590                                 /tmp/ccZkfwo0.ltrans15.ltrans.o
                                                  /tmp/ccZkfwo0.ltrans20.ltrans.o
bytes.lto_priv.589                                /tmp/ccZkfwo0.ltrans15.ltrans.o
                                                  /tmp/ccZkfwo0.ltrans20.ltrans.o
cachedRccCsrValue                                 obj/main/CC3D/drivers/system.o (symbol from plugin)
                                                  obj/main/CC3D/drivers/system_stm32f10x.o (symbol from plugin)
calcCRC16                                         /tmp/ccZkfwo0.ltrans7.ltrans.o
                                                  obj/main/CC3D/rx/jetiexbus.o (symbol from plugin)
                                                  /tmp/ccZkfwo0.ltrans24.ltrans.o
                                                  /tmp/ccZkfwo0.ltrans22.ltrans.o
                                                  /tmp/ccZkfwo0.ltrans4.ltrans.o
calcCRC8                                          obj/main/CC3D/rx/jetiexbus.o (symbol from plugin)
calcCRC8.constprop.113                            /tmp/ccZkfwo0.ltrans24.ltrans.o
                                                  /tmp/ccZkfwo0.ltrans4.ltrans.o
calculateAccZLowPassFilterRCTimeConstant          obj/main/CC3D/flight/imu.o (symbol from plugin)
calculateBatteryCapacityRemainingPercentage       obj/main/CC3D/sensors/battery.o (symbol from plugin)
                                                  obj/main/CC3D/telemetry/frsky.o (symbol from plugin)
calculateBatteryPercentage                        obj/main/CC3D/sensors/battery.o (symbol from plugin)
calculateCalibratingCycles                        obj/main/CC3D/sensors/gyro.o (symbol from plugin)
                                                  obj/main/CC3D/io/rc_controls.o (symbol from plugin)
                                                  obj/main/CC3D/mw.o (symbol from plugin)
                                                  obj/main/CC3D/main.o (symbol from plugin)
calculateChannelRemapping                         obj/main/CC3D/rx/rx.o (symbol from plugin)
calculateExpoPlus                                 /tmp/ccZkfwo0.ltrans27.ltrans.o
                                                  obj/main/CC3D/flight/pid.o (symbol from plugin)
                                                  /tmp/ccZkfwo0.ltrans19.ltrans.o
calculateRollPitchCenterStatus                    obj/main/CC3D/io/rc_controls.o (symbol from plugin)
                                                  obj/main/CC3D/mw.o (symbol from plugin)
calculateRxChannelsAndUpdateFailsafe              obj/main/CC3D/rx/rx.o (symbol from plugin)
                                                  obj/main/CC3D/mw.o (symbol from plugin)
calculateThrottleAngleCorrection                  obj/main/CC3D/flight/imu.o (symbol from plugin)
                                                  obj/main/CC3D/mw.o (symbol from plugin)
calculateThrottleAngleScale                       obj/main/CC3D/flight/imu.o (symbol from plugin)
calculateThrottleStatus                           /tmp/ccZkfwo0.ltrans8.ltrans.o
                                                  obj/main/CC3D/io/rc_controls.o (symbol from plugin)
                                                  /tmp/ccZkfwo0.ltrans22.ltrans.o
                                                  /tmp/ccZkfwo0.ltrans4.ltrans.o
                                                  /tmp/ccZkfwo0.ltrans3.ltrans.o
                                                  obj/main/CC3D/sensors/battery.o (symbol from plugin)
                                                  obj/main/CC3D/flight/failsafe.o (symbol from plugin)
                                                  obj/main/CC3D/mw.o (symbol from plugin)
                                                  obj/main/CC3D/telemetry/frsky.o (symbol from plugin)
calculateVbatPidCompensation                      obj/main/CC3D/sensors/battery.o (symbol from plugin)
                                                  obj/main/CC3D/flight/mixer.o (symbol from plugin)
calibratingA                                      /tmp/ccZkfwo0.ltrans3.ltrans.o
                                                  obj/main/CC3D/sensors/acceleration.o (symbol from plugin)
                                                  /tmp/ccZkfwo0.ltrans23.ltrans.o
                                                  /tmp/ccZkfwo0.ltrans1.ltrans.o
                                                  /tmp/ccZkfwo0.ltrans0.ltrans.o
calibratingB                                      obj/main/CC3D/sensors/barometer.o (symbol from plugin)
calibratingG                                      /tmp/ccZkfwo0.ltrans3.ltrans.o
                                                  obj/main/CC3D/sensors/gyro.o (symbol from plugin)
                                                  /tmp/ccZkfwo0.ltrans21.ltrans.o
                                                  /tmp/ccZkfwo0.ltrans2.ltrans.o
                                                  /tmp/ccZkfwo0.ltrans0.ltrans.o
canSendSmartPortTelemetry                         obj/main/CC3D/telemetry/smartport.o (symbol from plugin)
captures.lto_priv.330                             /tmp/ccZkfwo0.ltrans16.ltrans.o
                                                  /tmp/ccZkfwo0.ltrans22.ltrans.o
                                                  /tmp/ccZkfwo0.ltrans6.ltrans.o
castFloatBytesToInt                               obj/main/CC3D/common/encoding.o (symbol from plugin)
                                                  obj/main/CC3D/blackbox/blackbox_io.o (symbol from plugin)
                                                  obj/main/CC3D/blackbox/blackbox.o (symbol from plugin)
cfTasks                                           /tmp/ccZkfwo0.ltrans16.ltrans.o
                                                  obj/main/CC3D/scheduler_tasks.o (symbol from plugin)
                                                  /tmp/ccZkfwo0.ltrans18.ltrans.o
                                                  /tmp/ccZkfwo0.ltrans0.ltrans.o
                                                  obj/main/CC3D/scheduler.o (symbol from plugin)
changeControlRateProfile                          /tmp/ccZkfwo0.ltrans18.ltrans.o
                                                  obj/main/CC3D/config/config.o (symbol from plugin)
                                                  /tmp/ccZkfwo0.ltrans25.ltrans.o
                                                  /tmp/ccZkfwo0.ltrans11.ltrans.o
                                                  /tmp/ccZkfwo0.ltrans3.ltrans.o
                                                  obj/main/CC3D/io/serial_cli.o (symbol from plugin)
                                                  obj/main/CC3D/io/rc_controls.o (symbol from plugin)
changeProfile                                     /tmp/ccZkfwo0.ltrans18.ltrans.o
                                                  obj/main/CC3D/config/config.o (symbol from plugin)
                                                  /tmp/ccZkfwo0.ltrans11.ltrans.o
                                                  /tmp/ccZkfwo0.ltrans3.ltrans.o
                                                  obj/main/CC3D/io/serial_cli.o (symbol from plugin)
                                                  obj/main/CC3D/io/rc_controls.o (symbol from plugin)
checkFrSkyTelemetryState                          obj/main/CC3D/telemetry/frsky.o (symbol from plugin)
                                                  obj/main/CC3D/telemetry/telemetry.o (symbol from plugin)
checkHoTTTelemetryState                           obj/main/CC3D/telemetry/hott.o (symbol from plugin)
                                                  obj/main/CC3D/telemetry/telemetry.o (symbol from plugin)
checkJetiExBusTelemetryState                      obj/main/CC3D/rx/jetiexbus.o (symbol from plugin)
                                                  obj/main/CC3D/telemetry/telemetry.o (symbol from plugin)
checkLtmTelemetryState                            obj/main/CC3D/telemetry/ltm.o (symbol from plugin)
                                                  obj/main/CC3D/telemetry/telemetry.o (symbol from plugin)
checkMPUDataReady                                 /tmp/ccZkfwo0.ltrans20.ltrans.o
                                                  obj/main/CC3D/drivers/accgyro_mpu.o (symbol from plugin)
                                                  /tmp/ccZkfwo0.ltrans0.ltrans.o
                                                  obj/main/CC3D/drivers/accgyro_spi_mpu6000.o (symbol from plugin)
checkSmartPortTelemetryState                      obj/main/CC3D/telemetry/smartport.o (symbol from plugin)
                                                  obj/main/CC3D/telemetry/telemetry.o (symbol from plugin)
cleanup_glue                                      /usr/bin/../lib/gcc/arm-none-eabi/4.9.3/../../../../arm-none-eabi/lib/armv7-m/libc_nano.a(lib_a-reent.o)
cliAdjustmentRange.lto_priv.203                   /tmp/ccZkfwo0.ltrans10.ltrans.o
                                                  /tmp/ccZkfwo0.ltrans25.ltrans.o
                                                  /tmp/ccZkfwo0.ltrans11.ltrans.o
cliAux.lto_priv.204                               /tmp/ccZkfwo0.ltrans10.ltrans.o
                                                  /tmp/ccZkfwo0.ltrans25.ltrans.o
                                                  /tmp/ccZkfwo0.ltrans11.ltrans.o
cliBeeper.lto_priv.386                            /tmp/ccZkfwo0.ltrans25.ltrans.o
cliBuffer.lto_priv.378                            /tmp/ccZkfwo0.ltrans11.ltrans.o
                                                  /tmp/ccZkfwo0.ltrans1.ltrans.o
cliColor.lto_priv.205                             /tmp/ccZkfwo0.ltrans11.ltrans.o
                                                  /tmp/ccZkfwo0.ltrans25.ltrans.o
cliDefaults.lto_priv.379                          /tmp/ccZkfwo0.ltrans25.ltrans.o
cliDump.lto_priv.206                              /tmp/ccZkfwo0.ltrans11.ltrans.o
                                                  /tmp/ccZkfwo0.ltrans25.ltrans.o
cliDumpProfile                                    obj/main/CC3D/io/serial_cli.o (symbol from plugin)
cliDumpRateProfile                                obj/main/CC3D/io/serial_cli.o (symbol from plugin)
cliEnter                                          obj/main/CC3D/io/serial_cli.o (symbol from plugin)
                                                  obj/main/CC3D/io/serial.o (symbol from plugin)
cliExit.lto_priv.207                              /tmp/ccZkfwo0.ltrans11.ltrans.o
                                                  /tmp/ccZkfwo0.ltrans25.ltrans.o
                                                  /tmp/ccZkfwo0.ltrans1.ltrans.o
cliFeature.lto_priv.208                           /tmp/ccZkfwo0.ltrans11.ltrans.o
                                                  /tmp/ccZkfwo0.ltrans25.ltrans.o
cliFlashErase.lto_priv.209                        /tmp/ccZkfwo0.ltrans11.ltrans.o
                                                  /tmp/ccZkfwo0.ltrans25.ltrans.o
cliFlashInfo.lto_priv.210                         /tmp/ccZkfwo0.ltrans11.ltrans.o
                                                  /tmp/ccZkfwo0.ltrans25.ltrans.o
cliGet.lto_priv.211                               /tmp/ccZkfwo0.ltrans16.ltrans.o
                                                  /tmp/ccZkfwo0.ltrans25.ltrans.o
cliHelp.lto_priv.380                              /tmp/ccZkfwo0.ltrans25.ltrans.o
cliInit                                           obj/main/CC3D/io/serial_cli.o (symbol from plugin)
                                                  obj/main/CC3D/main.o (symbol from plugin)
cliLed.lto_priv.212                               /tmp/ccZkfwo0.ltrans11.ltrans.o
                                                  /tmp/ccZkfwo0.ltrans25.ltrans.o
cliMap.lto_priv.381                               /tmp/ccZkfwo0.ltrans25.ltrans.o
cliMixer.lto_priv.382                             /tmp/ccZkfwo0.ltrans25.ltrans.o
cliMode                                           /tmp/ccZkfwo0.ltrans11.ltrans.o
                                                  obj/main/CC3D/io/serial_cli.o (symbol from plugin)
                                                  /tmp/ccZkfwo0.ltrans4.ltrans.o
                                                  /tmp/ccZkfwo0.ltrans3.ltrans.o
                                                  /tmp/ccZkfwo0.ltrans2.ltrans.o
                                                  /tmp/ccZkfwo0.ltrans1.ltrans.o
                                                  obj/main/CC3D/io/serial.o (symbol from plugin)
                                                  obj/main/CC3D/mw.o (symbol from plugin)
cliMotor.lto_priv.383                             /tmp/ccZkfwo0.ltrans25.ltrans.o
cliMotorMix.lto_priv.213                          /tmp/ccZkfwo0.ltrans10.ltrans.o
                                                  /tmp/ccZkfwo0.ltrans25.ltrans.o
cliPlaySound.lto_priv.384                         /tmp/ccZkfwo0.ltrans25.ltrans.o
cliPort.lto_priv.262                              /tmp/ccZkfwo0.ltrans25.ltrans.o
                                                  /tmp/ccZkfwo0.ltrans10.ltrans.o
                                                  /tmp/ccZkfwo0.ltrans1.ltrans.o
cliPrint.lto_priv.198                             /tmp/ccZkfwo0.ltrans25.ltrans.o
                                                  /tmp/ccZkfwo0.ltrans16.ltrans.o
                                                  /tmp/ccZkfwo0.ltrans11.ltrans.o
                                                  /tmp/ccZkfwo0.ltrans10.ltrans.o
                                                  /tmp/ccZkfwo0.ltrans1.ltrans.o
cliPrintVar.lto_priv.200                          /tmp/ccZkfwo0.ltrans25.ltrans.o
                                                  /tmp/ccZkfwo0.ltrans16.ltrans.o
                                                  /tmp/ccZkfwo0.ltrans11.ltrans.o
cliPrintVarRange.lto_priv.199                     /tmp/ccZkfwo0.ltrans25.ltrans.o
                                                  /tmp/ccZkfwo0.ltrans16.ltrans.o
cliPrintf.lto_priv.197                            /tmp/ccZkfwo0.ltrans25.ltrans.o
                                                  /tmp/ccZkfwo0.ltrans16.ltrans.o
                                                  /tmp/ccZkfwo0.ltrans11.ltrans.o
                                                  /tmp/ccZkfwo0.ltrans10.ltrans.o
cliProcess                                        obj/main/CC3D/io/serial_cli.o (symbol from plugin)
                                                  obj/main/CC3D/io/serial.o (symbol from plugin)
cliProfile.lto_priv.260                           /tmp/ccZkfwo0.ltrans25.ltrans.o
                                                  /tmp/ccZkfwo0.ltrans11.ltrans.o
cliPrompt.lto_priv.408                            /tmp/ccZkfwo0.ltrans10.ltrans.o
                                                  /tmp/ccZkfwo0.ltrans1.ltrans.o
cliRateProfile.lto_priv.259                       /tmp/ccZkfwo0.ltrans25.ltrans.o
                                                  /tmp/ccZkfwo0.ltrans11.ltrans.o
cliReboot.lto_priv.258                            /tmp/ccZkfwo0.ltrans25.ltrans.o
                                                  /tmp/ccZkfwo0.ltrans11.ltrans.o
cliRxFail.lto_priv.215                            /tmp/ccZkfwo0.ltrans10.ltrans.o
                                                  /tmp/ccZkfwo0.ltrans25.ltrans.o
                                                  /tmp/ccZkfwo0.ltrans11.ltrans.o
cliRxRange.lto_priv.214                           /tmp/ccZkfwo0.ltrans10.ltrans.o
                                                  /tmp/ccZkfwo0.ltrans25.ltrans.o
                                                  /tmp/ccZkfwo0.ltrans11.ltrans.o
cliSave.lto_priv.385                              /tmp/ccZkfwo0.ltrans25.ltrans.o
cliSerial.lto_priv.216                            /tmp/ccZkfwo0.ltrans10.ltrans.o
                                                  /tmp/ccZkfwo0.ltrans25.ltrans.o
                                                  /tmp/ccZkfwo0.ltrans11.ltrans.o
cliSerialPassthrough.lto_priv.217                 /tmp/ccZkfwo0.ltrans10.ltrans.o
                                                  /tmp/ccZkfwo0.ltrans25.ltrans.o
cliServo.lto_priv.218                             /tmp/ccZkfwo0.ltrans11.ltrans.o
                                                  /tmp/ccZkfwo0.ltrans25.ltrans.o
cliServoMix.lto_priv.220                          /tmp/ccZkfwo0.ltrans11.ltrans.o
                                                  /tmp/ccZkfwo0.ltrans25.ltrans.o
cliSet.lto_priv.219                               /tmp/ccZkfwo0.ltrans16.ltrans.o
                                                  /tmp/ccZkfwo0.ltrans25.ltrans.o
cliShowArgumentRangeError.lto_priv.239            /tmp/ccZkfwo0.ltrans10.ltrans.o
                                                  /tmp/ccZkfwo0.ltrans25.ltrans.o
                                                  /tmp/ccZkfwo0.ltrans11.ltrans.o
cliShowParseError.lto_priv.240                    /tmp/ccZkfwo0.ltrans10.ltrans.o
                                                  /tmp/ccZkfwo0.ltrans25.ltrans.o
                                                  /tmp/ccZkfwo0.ltrans11.ltrans.o
cliStatus.lto_priv.221                            /tmp/ccZkfwo0.ltrans16.ltrans.o
                                                  /tmp/ccZkfwo0.ltrans25.ltrans.o
cliTasks.lto_priv.222                             /tmp/ccZkfwo0.ltrans16.ltrans.o
                                                  /tmp/ccZkfwo0.ltrans25.ltrans.o
cliVersion.lto_priv.223                           /tmp/ccZkfwo0.ltrans16.ltrans.o
                                                  /tmp/ccZkfwo0.ltrans25.ltrans.o
                                                  /tmp/ccZkfwo0.ltrans11.ltrans.o
cliWrite.lto_priv.261                             /tmp/ccZkfwo0.ltrans25.ltrans.o
                                                  /tmp/ccZkfwo0.ltrans11.ltrans.o
                                                  /tmp/ccZkfwo0.ltrans1.ltrans.o
cliWriter.lto_priv.241                            /tmp/ccZkfwo0.ltrans25.ltrans.o
                                                  /tmp/ccZkfwo0.ltrans11.ltrans.o
                                                  /tmp/ccZkfwo0.ltrans10.ltrans.o
                                                  /tmp/ccZkfwo0.ltrans1.ltrans.o
closeSerialPort                                   /tmp/ccZkfwo0.ltrans8.ltrans.o
                                                  obj/main/CC3D/io/serial.o (symbol from plugin)
                                                  /tmp/ccZkfwo0.ltrans16.ltrans.o
                                                  /tmp/ccZkfwo0.ltrans12.ltrans.o
                                                  /tmp/ccZkfwo0.ltrans2.ltrans.o
                                                  obj/main/CC3D/io/serial_msp.o (symbol from plugin)
                                                  obj/main/CC3D/blackbox/blackbox_io.o (symbol from plugin)
                                                  obj/main/CC3D/telemetry/ltm.o (symbol from plugin)
                                                  obj/main/CC3D/telemetry/smartport.o (symbol from plugin)
                                                  obj/main/CC3D/telemetry/hott.o (symbol from plugin)
                                                  obj/main/CC3D/telemetry/frsky.o (symbol from plugin)
cmdTable                                          /tmp/ccZkfwo0.ltrans25.ltrans.o
                                                  obj/main/CC3D/io/serial_cli.o (symbol from plugin)
                                                  /tmp/ccZkfwo0.ltrans1.ltrans.o
colors                                            /tmp/ccZkfwo0.ltrans11.ltrans.o
                                                  obj/main/CC3D/io/ledstrip.o (symbol from plugin)
                                                  /tmp/ccZkfwo0.ltrans12.ltrans.o
                                                  /tmp/ccZkfwo0.ltrans9.ltrans.o
                                                  /tmp/ccZkfwo0.ltrans0.ltrans.o
compassInit                                       obj/main/CC3D/sensors/compass.o (symbol from plugin)
                                                  obj/main/CC3D/main.o (symbol from plugin)
configTimeBase                                    /tmp/ccZkfwo0.ltrans13.ltrans.o
                                                  obj/main/CC3D/drivers/timer.o (symbol from plugin)
                                                  /tmp/ccZkfwo0.ltrans12.ltrans.o
                                                  /tmp/ccZkfwo0.ltrans6.ltrans.o
                                                  obj/main/CC3D/drivers/pwm_output.o (symbol from plugin)
configureAdjustment                               obj/main/CC3D/io/rc_controls.o (symbol from plugin)
configureAltitudeHold                             obj/main/CC3D/flight/altitudehold.o (symbol from plugin)
                                                  obj/main/CC3D/config/config.o (symbol from plugin)
configureFrSkyTelemetryPort                       obj/main/CC3D/telemetry/frsky.o (symbol from plugin)
configureHoTTTelemetryPort                        obj/main/CC3D/telemetry/hott.o (symbol from plugin)
configureLtmTelemetryPort                         obj/main/CC3D/telemetry/ltm.o (symbol from plugin)
configureMPUDataReadyInterruptHandling            obj/main/CC3D/drivers/accgyro_mpu.o (symbol from plugin)
configureSmartPortTelemetryPort                   obj/main/CC3D/telemetry/smartport.o (symbol from plugin)
constrain                                         obj/main/CC3D/common/maths.o (symbol from plugin)
                                                  obj/main/CC3D/sensors/battery.o (symbol from plugin)
                                                  obj/main/CC3D/rx/rx.o (symbol from plugin)
                                                  obj/main/CC3D/io/serial_msp.o (symbol from plugin)
                                                  obj/main/CC3D/io/serial_cli.o (symbol from plugin)
                                                  obj/main/CC3D/io/rc_controls.o (symbol from plugin)
                                                  obj/main/CC3D/flight/mixer.o (symbol from plugin)
                                                  obj/main/CC3D/flight/pid.o (symbol from plugin)
                                                  obj/main/CC3D/mw.o (symbol from plugin)
                                                  obj/main/CC3D/config/config.o (symbol from plugin)
                                                  obj/main/CC3D/blackbox/blackbox_io.o (symbol from plugin)
                                                  obj/main/CC3D/telemetry/frsky.o (symbol from plugin)
constrainf                                        obj/main/CC3D/common/maths.o (symbol from plugin)
                                                  obj/main/CC3D/flight/pid.o (symbol from plugin)
copysignf                                         /usr/bin/../lib/gcc/arm-none-eabi/4.9.3/../../../../arm-none-eabi/lib/armv7-m/libm.a(lib_a-sf_copysign.o)
                                                  /usr/bin/../lib/gcc/arm-none-eabi/4.9.3/../../../../arm-none-eabi/lib/armv7-m/libm.a(lib_a-sf_scalbn.o)
cos_approx                                        obj/main/CC3D/common/maths.o (symbol from plugin)
                                                  obj/main/CC3D/flight/imu.o (symbol from plugin)
                                                  obj/main/CC3D/mw.o (symbol from plugin)
cosf                                              /usr/bin/../lib/gcc/arm-none-eabi/4.9.3/../../../../arm-none-eabi/lib/armv7-m/libm.a(lib_a-sf_cos.o)
                                                  /tmp/ccZkfwo0.ltrans18.ltrans.o
couldBeBusy.lto_priv.576                          /tmp/ccZkfwo0.ltrans0.ltrans.o
                                                  /tmp/ccZkfwo0.ltrans12.ltrans.o
                                                  /tmp/ccZkfwo0.ltrans6.ltrans.o
crc.lto_priv.342                                  /tmp/ccZkfwo0.ltrans16.ltrans.o
                                                  /tmp/ccZkfwo0.ltrans22.ltrans.o
createExBusMessage                                obj/main/CC3D/rx/jetiexbus.o (symbol from plugin)
createExBusMessage.constprop.114                  /tmp/ccZkfwo0.ltrans24.ltrans.o
                                                  /tmp/ccZkfwo0.ltrans4.ltrans.o
createExTelemetrieTextMessage                     obj/main/CC3D/rx/jetiexbus.o (symbol from plugin)
createExTelemetrieValueMessage                    obj/main/CC3D/rx/jetiexbus.o (symbol from plugin)
currentBeeperEntry.lto_priv.283                   /tmp/ccZkfwo0.ltrans8.ltrans.o
                                                  /tmp/ccZkfwo0.ltrans22.ltrans.o
                                                  /tmp/ccZkfwo0.ltrans19.ltrans.o
currentControlRateProfile                         /tmp/ccZkfwo0.ltrans3.ltrans.o
                                                  obj/main/CC3D/config/config.o (symbol from plugin)
                                                  /tmp/ccZkfwo0.ltrans18.ltrans.o
                                                  /tmp/ccZkfwo0.ltrans14.ltrans.o
                                                  /tmp/ccZkfwo0.ltrans2.ltrans.o
                                                  /tmp/ccZkfwo0.ltrans1.ltrans.o
                                                  obj/main/CC3D/io/serial_msp.o (symbol from plugin)
                                                  obj/main/CC3D/mw.o (symbol from plugin)
currentControlRateProfileIndex.lto_priv.202       /tmp/ccZkfwo0.ltrans16.ltrans.o
                                                  /tmp/ccZkfwo0.ltrans25.ltrans.o
                                                  /tmp/ccZkfwo0.ltrans18.ltrans.o
                                                  /tmp/ccZkfwo0.ltrans14.ltrans.o
                                                  /tmp/ccZkfwo0.ltrans3.ltrans.o
currentMixer.lto_priv.493                         /tmp/ccZkfwo0.ltrans2.ltrans.o
                                                  /tmp/ccZkfwo0.ltrans0.ltrans.o
currentMixerMode.lto_priv.424                     /tmp/ccZkfwo0.ltrans2.ltrans.o
                                                  /tmp/ccZkfwo0.ltrans21.ltrans.o
                                                  /tmp/ccZkfwo0.ltrans0.ltrans.o
currentPort.lto_priv.357                          /tmp/ccZkfwo0.ltrans16.ltrans.o
                                                  /tmp/ccZkfwo0.ltrans1.ltrans.o
currentProfile                                    /tmp/ccZkfwo0.ltrans16.ltrans.o
                                                  obj/main/CC3D/config/config.o (symbol from plugin)
                                                  /tmp/ccZkfwo0.ltrans21.ltrans.o
                                                  /tmp/ccZkfwo0.ltrans14.ltrans.o
                                                  /tmp/ccZkfwo0.ltrans11.ltrans.o
                                                  /tmp/ccZkfwo0.ltrans2.ltrans.o
                                                  /tmp/ccZkfwo0.ltrans1.ltrans.o
                                                  obj/main/CC3D/io/serial_msp.o (symbol from plugin)
                                                  obj/main/CC3D/io/serial_cli.o (symbol from plugin)
                                                  obj/main/CC3D/mw.o (symbol from plugin)
                                                  obj/main/CC3D/blackbox/blackbox.o (symbol from plugin)
currentSensorToCentiamps                          obj/main/CC3D/sensors/battery.o (symbol from plugin)
currentServoMixer.lto_priv.417                    /tmp/ccZkfwo0.ltrans19.ltrans.o
                                                  /tmp/ccZkfwo0.ltrans2.ltrans.o
                                                  /tmp/ccZkfwo0.ltrans0.ltrans.o
currentTask.lto_priv.441                          /tmp/ccZkfwo0.ltrans2.ltrans.o
                                                  /tmp/ccZkfwo0.ltrans18.ltrans.o
                                                  /tmp/ccZkfwo0.ltrans0.ltrans.o
currentTime                                       /tmp/ccZkfwo0.ltrans28.ltrans.o
                                                  obj/main/CC3D/scheduler.o (symbol from plugin)
                                                  /tmp/ccZkfwo0.ltrans22.ltrans.o
                                                  /tmp/ccZkfwo0.ltrans5.ltrans.o
                                                  /tmp/ccZkfwo0.ltrans3.ltrans.o
                                                  /tmp/ccZkfwo0.ltrans2.ltrans.o
                                                  /tmp/ccZkfwo0.ltrans0.ltrans.o
                                                  obj/main/CC3D/sensors/compass.o (symbol from plugin)
                                                  obj/main/CC3D/mw.o (symbol from plugin)
                                                  obj/main/CC3D/blackbox/blackbox.o (symbol from plugin)
customServoMixers.lto_priv.505                    /tmp/ccZkfwo0.ltrans19.ltrans.o
                                                  /tmp/ccZkfwo0.ltrans0.ltrans.o
cycleTime                                         /tmp/ccZkfwo0.ltrans16.ltrans.o
                                                  obj/main/CC3D/mw.o (symbol from plugin)
                                                  /tmp/ccZkfwo0.ltrans2.ltrans.o
                                                  /tmp/ccZkfwo0.ltrans1.ltrans.o
                                                  obj/main/CC3D/io/serial_msp.o (symbol from plugin)
                                                  obj/main/CC3D/io/serial_cli.o (symbol from plugin)
deadband3dThrottle.lto_priv.482                   /tmp/ccZkfwo0.ltrans3.ltrans.o
                                                  /tmp/ccZkfwo0.ltrans0.ltrans.o
debug                                             /tmp/ccZkfwo0.ltrans7.ltrans.o
                                                  obj/main/CC3D/debug.o (symbol from plugin)
                                                  /tmp/ccZkfwo0.ltrans23.ltrans.o
                                                  /tmp/ccZkfwo0.ltrans21.ltrans.o
                                                  /tmp/ccZkfwo0.ltrans20.ltrans.o
                                                  /tmp/ccZkfwo0.ltrans5.ltrans.o
                                                  /tmp/ccZkfwo0.ltrans2.ltrans.o
                                                  /tmp/ccZkfwo0.ltrans1.ltrans.o
                                                  obj/main/CC3D/sensors/gyro.o (symbol from plugin)
                                                  obj/main/CC3D/sensors/battery.o (symbol from plugin)
                                                  obj/main/CC3D/sensors/acceleration.o (symbol from plugin)
                                                  obj/main/CC3D/io/serial_msp.o (symbol from plugin)
                                                  obj/main/CC3D/flight/mixer.o (symbol from plugin)
                                                  obj/main/CC3D/mw.o (symbol from plugin)
                                                  obj/main/CC3D/blackbox/blackbox.o (symbol from plugin)
                                                  obj/main/CC3D/drivers/accgyro_mpu.o (symbol from plugin)
debugMode                                         /tmp/ccZkfwo0.ltrans7.ltrans.o
                                                  obj/main/CC3D/debug.o (symbol from plugin)
                                                  /tmp/ccZkfwo0.ltrans23.ltrans.o
                                                  /tmp/ccZkfwo0.ltrans21.ltrans.o
                                                  /tmp/ccZkfwo0.ltrans2.ltrans.o
                                                  /tmp/ccZkfwo0.ltrans0.ltrans.o
                                                  obj/main/CC3D/sensors/gyro.o (symbol from plugin)
                                                  obj/main/CC3D/sensors/battery.o (symbol from plugin)
                                                  obj/main/CC3D/sensors/acceleration.o (symbol from plugin)
                                                  obj/main/CC3D/flight/mixer.o (symbol from plugin)
                                                  obj/main/CC3D/mw.o (symbol from plugin)
                                                  obj/main/CC3D/main.o (symbol from plugin)
defaultColors                                     obj/main/CC3D/io/ledstrip.o (symbol from plugin)
defaultLedStripConfig                             obj/main/CC3D/io/ledstrip.o (symbol from plugin)
degreesToRadians                                  obj/main/CC3D/common/maths.o (symbol from plugin)
                                                  obj/main/CC3D/sensors/boardalignment.o (symbol from plugin)
                                                  obj/main/CC3D/flight/imu.o (symbol from plugin)
                                                  obj/main/CC3D/mw.o (symbol from plugin)
delay                                             /tmp/ccZkfwo0.ltrans19.ltrans.o
                                                  obj/main/CC3D/drivers/system.o (symbol from plugin)
                                                  /tmp/ccZkfwo0.ltrans22.ltrans.o
                                                  /tmp/ccZkfwo0.ltrans20.ltrans.o
                                                  /tmp/ccZkfwo0.ltrans18.ltrans.o
                                                  /tmp/ccZkfwo0.ltrans15.ltrans.o
                                                  /tmp/ccZkfwo0.ltrans11.ltrans.o
                                                  /tmp/ccZkfwo0.ltrans8.ltrans.o
                                                  /tmp/ccZkfwo0.ltrans6.ltrans.o
                                                  /tmp/ccZkfwo0.ltrans0.ltrans.o
                                                  obj/main/CC3D/vcp/hw_config.o (symbol from plugin)
                                                  obj/main/CC3D/sensors/battery.o (symbol from plugin)
                                                  obj/main/CC3D/rx/spektrum.o (symbol from plugin)
                                                  obj/main/CC3D/io/serial_cli.o (symbol from plugin)
                                                  obj/main/CC3D/io/serial.o (symbol from plugin)
                                                  obj/main/CC3D/flight/mixer.o (symbol from plugin)
                                                  obj/main/CC3D/main.o (symbol from plugin)
                                                  obj/main/CC3D/config/config.o (symbol from plugin)
                                                  obj/main/CC3D/drivers/serial_softserial.o (symbol from plugin)
                                                  obj/main/CC3D/drivers/flash_m25p16.o (symbol from plugin)
                                                  obj/main/CC3D/drivers/compass_hmc5883l.o (symbol from plugin)
                                                  obj/main/CC3D/drivers/barometer_ms5611.o (symbol from plugin)
                                                  obj/main/CC3D/drivers/accgyro_spi_mpu6000.o (symbol from plugin)
                                                  obj/main/CC3D/drivers/accgyro_mpu.o (symbol from plugin)
delayMicroseconds                                 /tmp/ccZkfwo0.ltrans19.ltrans.o
                                                  obj/main/CC3D/drivers/system.o (symbol from plugin)
                                                  /tmp/ccZkfwo0.ltrans20.ltrans.o
                                                  /tmp/ccZkfwo0.ltrans15.ltrans.o
                                                  /tmp/ccZkfwo0.ltrans8.ltrans.o
                                                  /tmp/ccZkfwo0.ltrans0.ltrans.o
                                                  obj/main/CC3D/rx/spektrum.o (symbol from plugin)
                                                  obj/main/CC3D/io/serial_4way_stk500v2.o (symbol from plugin)
                                                  obj/main/CC3D/drivers/bus_i2c_stm32f10x.o (symbol from plugin)
                                                  obj/main/CC3D/drivers/barometer_ms5611.o (symbol from plugin)
                                                  obj/main/CC3D/drivers/accgyro_spi_mpu6000.o (symbol from plugin)
deltaFilterState.lto_priv.289                     /tmp/ccZkfwo0.ltrans19.ltrans.o
                                                  /tmp/ccZkfwo0.ltrans27.ltrans.o
detectGyro                                        obj/main/CC3D/sensors/initialisation.o (symbol from plugin)
detectMpu                                         obj/main/CC3D/drivers/accgyro_mpu.o (symbol from plugin)
                                                  obj/main/CC3D/sensors/initialisation.o (symbol from plugin)
detectedSensors                                   /tmp/ccZkfwo0.ltrans16.ltrans.o
                                                  obj/main/CC3D/sensors/initialisation.o (symbol from plugin)
                                                  /tmp/ccZkfwo0.ltrans0.ltrans.o
                                                  obj/main/CC3D/io/serial_cli.o (symbol from plugin)
determineLedStripDimensions                       obj/main/CC3D/io/ledstrip.o (symbol from plugin)
determineOrientationLimits                        obj/main/CC3D/io/ledstrip.o (symbol from plugin)
determinePortSharing                              /tmp/ccZkfwo0.ltrans8.ltrans.o
                                                  obj/main/CC3D/io/serial.o (symbol from plugin)
                                                  /tmp/ccZkfwo0.ltrans21.ltrans.o
                                                  /tmp/ccZkfwo0.ltrans0.ltrans.o
                                                  obj/main/CC3D/blackbox/blackbox_io.o (symbol from plugin)
                                                  obj/main/CC3D/telemetry/ltm.o (symbol from plugin)
                                                  obj/main/CC3D/telemetry/smartport.o (symbol from plugin)
                                                  obj/main/CC3D/telemetry/hott.o (symbol from plugin)
                                                  obj/main/CC3D/telemetry/frsky.o (symbol from plugin)
determineServoMiddleOrForwardFromChannel          /tmp/ccZkfwo0.ltrans19.ltrans.o
                                                  obj/main/CC3D/flight/mixer.o (symbol from plugin)
                                                  /tmp/ccZkfwo0.ltrans2.ltrans.o
devClear                                          obj/main/CC3D/common/maths.o (symbol from plugin)
                                                  obj/main/CC3D/sensors/gyro.o (symbol from plugin)
devPush                                           obj/main/CC3D/common/maths.o (symbol from plugin)
                                                  obj/main/CC3D/sensors/gyro.o (symbol from plugin)
devStandardDeviation                              obj/main/CC3D/common/maths.o (symbol from plugin)
                                                  obj/main/CC3D/sensors/gyro.o (symbol from plugin)
devVariance                                       obj/main/CC3D/common/maths.o (symbol from plugin)
disableFlightMode                                 /tmp/ccZkfwo0.ltrans18.ltrans.o
                                                  obj/main/CC3D/config/runtime_config.o (symbol from plugin)
                                                  /tmp/ccZkfwo0.ltrans3.ltrans.o
                                                  obj/main/CC3D/flight/failsafe.o (symbol from plugin)
                                                  obj/main/CC3D/mw.o (symbol from plugin)
disarmAt.lto_priv.427                             /tmp/ccZkfwo0.ltrans3.ltrans.o
                                                  /tmp/ccZkfwo0.ltrans21.ltrans.o
dmaHandlers.lto_priv.456                          /tmp/ccZkfwo0.ltrans19.ltrans.o
                                                  /tmp/ccZkfwo0.ltrans0.ltrans.o
dmaInit                                           obj/main/CC3D/drivers/dma.o (symbol from plugin)
                                                  obj/main/CC3D/main.o (symbol from plugin)
dmaNoOpHandler                                    /tmp/ccZkfwo0.ltrans19.ltrans.o
                                                  obj/main/CC3D/drivers/dma.o (symbol from plugin)
                                                  /tmp/ccZkfwo0.ltrans0.ltrans.o
dmaSetHandler                                     obj/main/CC3D/drivers/dma.o (symbol from plugin)
                                                  obj/main/CC3D/drivers/light_ws2811strip.o (symbol from plugin)
doesConfigurationUsePort                          obj/main/CC3D/io/serial.o (symbol from plugin)
                                                  obj/main/CC3D/main.o (symbol from plugin)
enableFlightMode                                  /tmp/ccZkfwo0.ltrans18.ltrans.o
                                                  obj/main/CC3D/config/runtime_config.o (symbol from plugin)
                                                  /tmp/ccZkfwo0.ltrans27.ltrans.o
                                                  /tmp/ccZkfwo0.ltrans3.ltrans.o
                                                  obj/main/CC3D/flight/failsafe.o (symbol from plugin)
                                                  obj/main/CC3D/mw.o (symbol from plugin)
enableGPIOPowerUsageAndNoiseReductions            obj/main/CC3D/drivers/system_stm32f10x.o (symbol from plugin)
                                                  obj/main/CC3D/drivers/system.o (symbol from plugin)
enabledSensors.lto_priv.296                       /tmp/ccZkfwo0.ltrans16.ltrans.o
                                                  /tmp/ccZkfwo0.ltrans28.ltrans.o
                                                  /tmp/ccZkfwo0.ltrans23.ltrans.o
                                                  /tmp/ccZkfwo0.ltrans21.ltrans.o
                                                  /tmp/ccZkfwo0.ltrans4.ltrans.o
                                                  /tmp/ccZkfwo0.ltrans3.ltrans.o
                                                  /tmp/ccZkfwo0.ltrans2.ltrans.o
                                                  /tmp/ccZkfwo0.ltrans1.ltrans.o
                                                  /tmp/ccZkfwo0.ltrans0.ltrans.o
end                                               /usr/bin/../lib/gcc/arm-none-eabi/4.9.3/../../../../arm-none-eabi/lib/armv7-m/libnosys.a(sbrk.o)
ensureEEPROMContainsValidData                     obj/main/CC3D/config/config.o (symbol from plugin)
                                                  obj/main/CC3D/main.o (symbol from plugin)
errno                                             /usr/bin/../lib/gcc/arm-none-eabi/4.9.3/../../../../arm-none-eabi/lib/armv7-m/libc_nano.a(lib_a-reent.o)
                                                  /usr/bin/../lib/gcc/arm-none-eabi/4.9.3/../../../../arm-none-eabi/lib/armv7-m/libc_nano.a(lib_a-sbrkr.o)
error.lto_priv.591                                /tmp/ccZkfwo0.ltrans15.ltrans.o
                                                  /tmp/ccZkfwo0.ltrans20.ltrans.o
errorGyroI.lto_priv.314                           /tmp/ccZkfwo0.ltrans19.ltrans.o
                                                  /tmp/ccZkfwo0.ltrans3.ltrans.o
errorGyroIf.lto_priv.315                          /tmp/ccZkfwo0.ltrans27.ltrans.o
                                                  /tmp/ccZkfwo0.ltrans3.ltrans.o
errorVelocityI                                    obj/main/CC3D/flight/altitudehold.o (symbol from plugin)
escAndServoConfig.lto_priv.366                    /tmp/ccZkfwo0.ltrans3.ltrans.o
                                                  /tmp/ccZkfwo0.ltrans14.ltrans.o
                                                  /tmp/ccZkfwo0.ltrans1.ltrans.o
escAndServoConfig.lto_priv.416                    /tmp/ccZkfwo0.ltrans19.ltrans.o
                                                  /tmp/ccZkfwo0.ltrans14.ltrans.o
                                                  /tmp/ccZkfwo0.ltrans2.ltrans.o
escHardware                                       /tmp/ccZkfwo0.ltrans8.ltrans.o
                                                  obj/main/CC3D/io/serial_4way.o (symbol from plugin)
                                                  /tmp/ccZkfwo0.ltrans1.ltrans.o
esof_counter                                      obj/main/CC3D/vcp/usb_istr.o (symbol from plugin)
evaluateOtherData                                 obj/main/CC3D/io/serial.o (symbol from plugin)
                                                  obj/main/CC3D/io/serial_msp.o (symbol from plugin)
exDataTypeLen                                     obj/main/CC3D/rx/jetiexbus.o (symbol from plugin)
extiHandlerConfigs.lto_priv.507                   /tmp/ccZkfwo0.ltrans19.ltrans.o
                                                  /tmp/ccZkfwo0.ltrans20.ltrans.o
                                                  /tmp/ccZkfwo0.ltrans0.ltrans.o
extractAndStoreRxByte                             obj/main/CC3D/drivers/serial_softserial.o (symbol from plugin)
fSuspendEnabled                                   obj/main/CC3D/vcp/usb_pwr.o (symbol from plugin)
fabsf                                             /usr/bin/../lib/gcc/arm-none-eabi/4.9.3/../../../../arm-none-eabi/lib/armv7-m/libm.a(lib_a-sf_fabs.o)
                                                  /usr/bin/../lib/gcc/arm-none-eabi/4.9.3/../../../../arm-none-eabi/lib/armv7-m/libm.a(lib_a-sf_atan.o)
                                                  /usr/bin/../lib/gcc/arm-none-eabi/4.9.3/../../../../arm-none-eabi/lib/armv7-m/libm.a(lib_a-ef_rem_pio2.o)
                                                  /usr/bin/../lib/gcc/arm-none-eabi/4.9.3/../../../../arm-none-eabi/lib/armv7-m/libm.a(lib_a-ef_atan2.o)
                                                  /usr/bin/../lib/gcc/arm-none-eabi/4.9.3/../../../../arm-none-eabi/lib/armv7-m/libm.a(lib_a-wf_acos.o)
failsafeActivate.lto_priv.323                     /tmp/ccZkfwo0.ltrans27.ltrans.o
                                                  /tmp/ccZkfwo0.ltrans3.ltrans.o
failsafeConfig.lto_priv.318                       /tmp/ccZkfwo0.ltrans27.ltrans.o
                                                  /tmp/ccZkfwo0.ltrans14.ltrans.o
                                                  /tmp/ccZkfwo0.ltrans3.ltrans.o
failsafeInit                                      obj/main/CC3D/flight/failsafe.o (symbol from plugin)
                                                  obj/main/CC3D/main.o (symbol from plugin)
failsafeIsActive                                  obj/main/CC3D/flight/failsafe.o (symbol from plugin)
                                                  obj/main/CC3D/io/rc_controls.o (symbol from plugin)
                                                  obj/main/CC3D/flight/mixer.o (symbol from plugin)
                                                  obj/main/CC3D/mw.o (symbol from plugin)
                                                  obj/main/CC3D/telemetry/ltm.o (symbol from plugin)
                                                  obj/main/CC3D/io/ledstrip.o (symbol from plugin)
failsafeIsMonitoring                              obj/main/CC3D/flight/failsafe.o (symbol from plugin)
                                                  obj/main/CC3D/mw.o (symbol from plugin)
failsafeIsReceivingRxData                         obj/main/CC3D/flight/failsafe.o (symbol from plugin)
failsafeOnRxResume                                obj/main/CC3D/flight/failsafe.o (symbol from plugin)
                                                  obj/main/CC3D/rx/rx.o (symbol from plugin)
failsafeOnRxSuspend                               obj/main/CC3D/flight/failsafe.o (symbol from plugin)
                                                  obj/main/CC3D/rx/rx.o (symbol from plugin)
failsafeOnValidDataFailed                         obj/main/CC3D/flight/failsafe.o (symbol from plugin)
                                                  obj/main/CC3D/rx/rx.o (symbol from plugin)
failsafeOnValidDataReceived                       obj/main/CC3D/flight/failsafe.o (symbol from plugin)
                                                  obj/main/CC3D/rx/rx.o (symbol from plugin)
failsafePhase                                     obj/main/CC3D/flight/failsafe.o (symbol from plugin)
                                                  obj/main/CC3D/blackbox/blackbox.o (symbol from plugin)
failsafeStartMonitoring                           obj/main/CC3D/flight/failsafe.o (symbol from plugin)
                                                  obj/main/CC3D/mw.o (symbol from plugin)
failsafeState.lto_priv.291                        /tmp/ccZkfwo0.ltrans16.ltrans.o
                                                  /tmp/ccZkfwo0.ltrans27.ltrans.o
                                                  /tmp/ccZkfwo0.ltrans14.ltrans.o
                                                  /tmp/ccZkfwo0.ltrans9.ltrans.o
                                                  /tmp/ccZkfwo0.ltrans5.ltrans.o
                                                  /tmp/ccZkfwo0.ltrans4.ltrans.o
                                                  /tmp/ccZkfwo0.ltrans3.ltrans.o
                                                  /tmp/ccZkfwo0.ltrans2.ltrans.o
                                                  /tmp/ccZkfwo0.ltrans0.ltrans.o
failsafeUpdateState                               obj/main/CC3D/flight/failsafe.o (symbol from plugin)
                                                  obj/main/CC3D/mw.o (symbol from plugin)
failureMode                                       /tmp/ccZkfwo0.ltrans19.ltrans.o
                                                  obj/main/CC3D/drivers/system.o (symbol from plugin)
                                                  /tmp/ccZkfwo0.ltrans20.ltrans.o
                                                  /tmp/ccZkfwo0.ltrans18.ltrans.o
                                                  /tmp/ccZkfwo0.ltrans14.ltrans.o
                                                  /tmp/ccZkfwo0.ltrans0.ltrans.o
                                                  obj/main/CC3D/main.o (symbol from plugin)
                                                  obj/main/CC3D/config/config.o (symbol from plugin)
                                                  obj/main/CC3D/drivers/accgyro_spi_mpu6000.o (symbol from plugin)
                                                  obj/main/CC3D/drivers/accgyro_mpu.o (symbol from plugin)
fastA2F                                           /tmp/ccZkfwo0.ltrans18.ltrans.o
                                                  obj/main/CC3D/common/typeconversion.o (symbol from plugin)
                                                  /tmp/ccZkfwo0.ltrans16.ltrans.o
                                                  /tmp/ccZkfwo0.ltrans10.ltrans.o
                                                  obj/main/CC3D/io/serial_cli.o (symbol from plugin)
fc_acc                                            /tmp/ccZkfwo0.ltrans23.ltrans.o
                                                  obj/main/CC3D/flight/imu.o (symbol from plugin)
                                                  /tmp/ccZkfwo0.ltrans14.ltrans.o
feature                                           obj/main/CC3D/config/config.o (symbol from plugin)
                                                  obj/main/CC3D/sensors/battery.o (symbol from plugin)
                                                  obj/main/CC3D/sensors/acceleration.o (symbol from plugin)
                                                  obj/main/CC3D/rx/pwm.o (symbol from plugin)
                                                  obj/main/CC3D/rx/rx.o (symbol from plugin)
                                                  obj/main/CC3D/io/serial_msp.o (symbol from plugin)
                                                  obj/main/CC3D/io/rc_curves.o (symbol from plugin)
                                                  obj/main/CC3D/io/rc_controls.o (symbol from plugin)
                                                  obj/main/CC3D/io/beeper.o (symbol from plugin)
                                                  obj/main/CC3D/flight/mixer.o (symbol from plugin)
                                                  obj/main/CC3D/mw.o (symbol from plugin)
                                                  obj/main/CC3D/main.o (symbol from plugin)
                                                  obj/main/CC3D/blackbox/blackbox.o (symbol from plugin)
                                                  obj/main/CC3D/telemetry/smartport.o (symbol from plugin)
                                                  obj/main/CC3D/telemetry/frsky.o (symbol from plugin)
                                                  obj/main/CC3D/io/ledstrip.o (symbol from plugin)
featureClear                                      /tmp/ccZkfwo0.ltrans18.ltrans.o
                                                  obj/main/CC3D/config/config.o (symbol from plugin)
                                                  /tmp/ccZkfwo0.ltrans14.ltrans.o
                                                  /tmp/ccZkfwo0.ltrans11.ltrans.o
                                                  /tmp/ccZkfwo0.ltrans0.ltrans.o
                                                  obj/main/CC3D/rx/rx.o (symbol from plugin)
                                                  obj/main/CC3D/io/serial_cli.o (symbol from plugin)
featureClearAll                                   obj/main/CC3D/config/config.o (symbol from plugin)
                                                  obj/main/CC3D/io/serial_msp.o (symbol from plugin)
featureConfigured                                 obj/main/CC3D/config/config.o (symbol from plugin)
featureMask                                       obj/main/CC3D/config/config.o (symbol from plugin)
                                                  obj/main/CC3D/io/serial_msp.o (symbol from plugin)
                                                  obj/main/CC3D/io/serial_cli.o (symbol from plugin)
featureSet                                        obj/main/CC3D/config/config.o (symbol from plugin)
                                                  obj/main/CC3D/io/serial_msp.o (symbol from plugin)
                                                  obj/main/CC3D/io/serial_cli.o (symbol from plugin)
filterApplyAverage                                obj/main/CC3D/common/filter.o (symbol from plugin)
filterApplyAveragef                               obj/main/CC3D/common/filter.o (symbol from plugin)
filterApplyPt1                                    /tmp/ccZkfwo0.ltrans18.ltrans.o
                                                  obj/main/CC3D/common/filter.o (symbol from plugin)
                                                  /tmp/ccZkfwo0.ltrans27.ltrans.o
                                                  /tmp/ccZkfwo0.ltrans19.ltrans.o
                                                  obj/main/CC3D/flight/pid.o (symbol from plugin)
filterRc                                          obj/main/CC3D/mw.o (symbol from plugin)
filterServos                                      obj/main/CC3D/flight/mixer.o (symbol from plugin)
                                                  obj/main/CC3D/mw.o (symbol from plugin)
filteredCycleTime                                 obj/main/CC3D/mw.o (symbol from plugin)
findNextSerialPortConfig                          /tmp/ccZkfwo0.ltrans8.ltrans.o
                                                  obj/main/CC3D/io/serial.o (symbol from plugin)
                                                  /tmp/ccZkfwo0.ltrans24.ltrans.o
                                                  obj/main/CC3D/io/serial_msp.o (symbol from plugin)
findNextSharedSerialPort                          obj/main/CC3D/io/serial.o (symbol from plugin)
                                                  obj/main/CC3D/mw.o (symbol from plugin)
findNextSharedSerialPort.constprop.43             /tmp/ccZkfwo0.ltrans24.ltrans.o
                                                  /tmp/ccZkfwo0.ltrans21.ltrans.o
                                                  /tmp/ccZkfwo0.ltrans3.ltrans.o
findSerialPortConfig                              /tmp/ccZkfwo0.ltrans8.ltrans.o
                                                  obj/main/CC3D/io/serial.o (symbol from plugin)
                                                  /tmp/ccZkfwo0.ltrans24.ltrans.o
                                                  /tmp/ccZkfwo0.ltrans21.ltrans.o
                                                  /tmp/ccZkfwo0.ltrans0.ltrans.o
                                                  obj/main/CC3D/rx/jetiexbus.o (symbol from plugin)
                                                  obj/main/CC3D/rx/ibus.o (symbol from plugin)
                                                  obj/main/CC3D/rx/xbus.o (symbol from plugin)
                                                  obj/main/CC3D/rx/spektrum.o (symbol from plugin)
                                                  obj/main/CC3D/rx/sumh.o (symbol from plugin)
                                                  obj/main/CC3D/rx/sumd.o (symbol from plugin)
                                                  obj/main/CC3D/rx/sbus.o (symbol from plugin)
                                                  obj/main/CC3D/io/serial_msp.o (symbol from plugin)
                                                  obj/main/CC3D/blackbox/blackbox_io.o (symbol from plugin)
                                                  obj/main/CC3D/telemetry/ltm.o (symbol from plugin)
                                                  obj/main/CC3D/telemetry/smartport.o (symbol from plugin)
                                                  obj/main/CC3D/telemetry/hott.o (symbol from plugin)
                                                  obj/main/CC3D/telemetry/frsky.o (symbol from plugin)
findSerialPortUsageByIdentifier                   obj/main/CC3D/io/serial.o (symbol from plugin)
                                                  obj/main/CC3D/io/serial_cli.o (symbol from plugin)
findSerialPortUsageByPort                         obj/main/CC3D/io/serial.o (symbol from plugin)
findSharedSerialPort                              obj/main/CC3D/io/serial.o (symbol from plugin)
                                                  obj/main/CC3D/mw.o (symbol from plugin)
findSharedSerialPortState.lto_priv.312            /tmp/ccZkfwo0.ltrans24.ltrans.o
                                                  /tmp/ccZkfwo0.ltrans21.ltrans.o
                                                  /tmp/ccZkfwo0.ltrans3.ltrans.o
finishBlackbox                                    obj/main/CC3D/blackbox/blackbox.o (symbol from plugin)
                                                  obj/main/CC3D/mw.o (symbol from plugin)
flashWriteBuffer.lto_priv.555                     /tmp/ccZkfwo0.ltrans14.ltrans.o
                                                  /tmp/ccZkfwo0.ltrans12.ltrans.o
                                                  /tmp/ccZkfwo0.ltrans5.ltrans.o
flashfsAdvanceTailInBuffer.lto_priv.553           /tmp/ccZkfwo0.ltrans12.ltrans.o
                                                  /tmp/ccZkfwo0.ltrans14.ltrans.o
flashfsEraseCompletely                            /tmp/ccZkfwo0.ltrans12.ltrans.o
                                                  obj/main/CC3D/io/flashfs.o (symbol from plugin)
                                                  /tmp/ccZkfwo0.ltrans11.ltrans.o
                                                  /tmp/ccZkfwo0.ltrans1.ltrans.o
                                                  obj/main/CC3D/io/serial_msp.o (symbol from plugin)
                                                  obj/main/CC3D/io/serial_cli.o (symbol from plugin)
flashfsEraseRange                                 obj/main/CC3D/io/flashfs.o (symbol from plugin)
flashfsFlushAsync                                 /tmp/ccZkfwo0.ltrans12.ltrans.o
                                                  obj/main/CC3D/io/flashfs.o (symbol from plugin)
                                                  /tmp/ccZkfwo0.ltrans14.ltrans.o
                                                  /tmp/ccZkfwo0.ltrans5.ltrans.o
                                                  obj/main/CC3D/blackbox/blackbox_io.o (symbol from plugin)
flashfsFlushSync                                  /tmp/ccZkfwo0.ltrans12.ltrans.o
                                                  obj/main/CC3D/io/flashfs.o (symbol from plugin)
                                                  /tmp/ccZkfwo0.ltrans1.ltrans.o
                                                  /tmp/ccZkfwo0.ltrans0.ltrans.o
flashfsGetDirtyDataBuffers.lto_priv.551           /tmp/ccZkfwo0.ltrans12.ltrans.o
                                                  /tmp/ccZkfwo0.ltrans14.ltrans.o
flashfsGetGeometry                                obj/main/CC3D/io/flashfs.o (symbol from plugin)
                                                  obj/main/CC3D/io/serial_msp.o (symbol from plugin)
                                                  obj/main/CC3D/io/serial_cli.o (symbol from plugin)
flashfsGetOffset                                  /tmp/ccZkfwo0.ltrans12.ltrans.o
                                                  obj/main/CC3D/io/flashfs.o (symbol from plugin)
                                                  /tmp/ccZkfwo0.ltrans11.ltrans.o
                                                  /tmp/ccZkfwo0.ltrans1.ltrans.o
                                                  obj/main/CC3D/io/serial_msp.o (symbol from plugin)
                                                  obj/main/CC3D/io/serial_cli.o (symbol from plugin)
flashfsGetSize                                    obj/main/CC3D/io/flashfs.o (symbol from plugin)
                                                  obj/main/CC3D/blackbox/blackbox_io.o (symbol from plugin)
flashfsGetWriteBufferFreeSpace                    obj/main/CC3D/io/flashfs.o (symbol from plugin)
                                                  obj/main/CC3D/blackbox/blackbox_io.o (symbol from plugin)
flashfsGetWriteBufferSize                         obj/main/CC3D/io/flashfs.o (symbol from plugin)
                                                  obj/main/CC3D/blackbox/blackbox_io.o (symbol from plugin)
flashfsIdentifyStartOfFreeSpace                   obj/main/CC3D/io/flashfs.o (symbol from plugin)
flashfsInit                                       obj/main/CC3D/io/flashfs.o (symbol from plugin)
                                                  obj/main/CC3D/main.o (symbol from plugin)
flashfsIsEOF                                      obj/main/CC3D/io/flashfs.o (symbol from plugin)
                                                  obj/main/CC3D/blackbox/blackbox_io.o (symbol from plugin)
flashfsIsReady                                    obj/main/CC3D/io/flashfs.o (symbol from plugin)
                                                  obj/main/CC3D/io/serial_msp.o (symbol from plugin)
                                                  obj/main/CC3D/io/serial_cli.o (symbol from plugin)
flashfsReadAbs                                    obj/main/CC3D/io/flashfs.o (symbol from plugin)
                                                  obj/main/CC3D/io/serial_msp.o (symbol from plugin)
flashfsSeekAbs                                    obj/main/CC3D/io/flashfs.o (symbol from plugin)
flashfsSeekRel                                    obj/main/CC3D/io/flashfs.o (symbol from plugin)
flashfsTransmitBufferUsed.lto_priv.423            /tmp/ccZkfwo0.ltrans12.ltrans.o
                                                  /tmp/ccZkfwo0.ltrans14.ltrans.o
                                                  /tmp/ccZkfwo0.ltrans5.ltrans.o
                                                  /tmp/ccZkfwo0.ltrans2.ltrans.o
flashfsWrite                                      obj/main/CC3D/io/flashfs.o (symbol from plugin)
                                                  obj/main/CC3D/blackbox/blackbox_io.o (symbol from plugin)
flashfsWriteBuffers.lto_priv.552                  /tmp/ccZkfwo0.ltrans12.ltrans.o
                                                  /tmp/ccZkfwo0.ltrans14.ltrans.o
flashfsWriteByte                                  obj/main/CC3D/io/flashfs.o (symbol from plugin)
                                                  obj/main/CC3D/blackbox/blackbox_io.o (symbol from plugin)
flight3DConfig.lto_priv.415                       /tmp/ccZkfwo0.ltrans19.ltrans.o
                                                  /tmp/ccZkfwo0.ltrans14.ltrans.o
                                                  /tmp/ccZkfwo0.ltrans2.ltrans.o
flightControllerIdentifier                        obj/main/CC3D/io/serial_msp.o (symbol from plugin)
flightModeFlags                                   /tmp/ccZkfwo0.ltrans16.ltrans.o
                                                  obj/main/CC3D/config/runtime_config.o (symbol from plugin)
                                                  /tmp/ccZkfwo0.ltrans27.ltrans.o
                                                  /tmp/ccZkfwo0.ltrans19.ltrans.o
                                                  /tmp/ccZkfwo0.ltrans18.ltrans.o
                                                  /tmp/ccZkfwo0.ltrans9.ltrans.o
                                                  /tmp/ccZkfwo0.ltrans4.ltrans.o
                                                  /tmp/ccZkfwo0.ltrans3.ltrans.o
                                                  /tmp/ccZkfwo0.ltrans2.ltrans.o
                                                  obj/main/CC3D/io/serial_msp.o (symbol from plugin)
                                                  obj/main/CC3D/flight/mixer.o (symbol from plugin)
                                                  obj/main/CC3D/flight/pid.o (symbol from plugin)
                                                  obj/main/CC3D/mw.o (symbol from plugin)
                                                  obj/main/CC3D/telemetry/ltm.o (symbol from plugin)
                                                  obj/main/CC3D/telemetry/smartport.o (symbol from plugin)
                                                  obj/main/CC3D/io/ledstrip.o (symbol from plugin)
floorf                                            /usr/bin/../lib/gcc/arm-none-eabi/4.9.3/../../../../arm-none-eabi/lib/armv7-m/libm.a(lib_a-sf_floor.o)
                                                  /usr/bin/../lib/gcc/arm-none-eabi/4.9.3/../../../../arm-none-eabi/lib/armv7-m/libm.a(lib_a-kf_rem_pio2.o)
flushHottRxBuffer.lto_priv.305                    /tmp/ccZkfwo0.ltrans12.ltrans.o
                                                  /tmp/ccZkfwo0.ltrans4.ltrans.o
frSkyDataIdTable                                  obj/main/CC3D/telemetry/smartport.o (symbol from plugin)
free                                              /usr/bin/../lib/gcc/arm-none-eabi/4.9.3/../../../../arm-none-eabi/lib/armv7-m/libc_nano.a(lib_a-malloc.o)
freeFrSkyTelemetryPort                            obj/main/CC3D/telemetry/frsky.o (symbol from plugin)
freeHoTTTelemetryPort                             obj/main/CC3D/telemetry/hott.o (symbol from plugin)
freeLtmTelemetryPort                              obj/main/CC3D/telemetry/ltm.o (symbol from plugin)
freeSmartPortTelemetryPort                        obj/main/CC3D/telemetry/smartport.o (symbol from plugin)
frskyPortSharing.lto_priv.573                     /tmp/ccZkfwo0.ltrans0.ltrans.o
                                                  /tmp/ccZkfwo0.ltrans12.ltrans.o
frskyTelemetryEnabled.lto_priv.574                /tmp/ccZkfwo0.ltrans4.ltrans.o
                                                  /tmp/ccZkfwo0.ltrans12.ltrans.o
ftoa                                              /tmp/ccZkfwo0.ltrans18.ltrans.o
                                                  obj/main/CC3D/common/typeconversion.o (symbol from plugin)
                                                  /tmp/ccZkfwo0.ltrans25.ltrans.o
                                                  /tmp/ccZkfwo0.ltrans11.ltrans.o
                                                  /tmp/ccZkfwo0.ltrans10.ltrans.o
                                                  obj/main/CC3D/io/serial_cli.o (symbol from plugin)
g_pfnVectors                                      obj/main/CC3D/startup_stm32f10x_md_gcc.o
generateLedConfig                                 obj/main/CC3D/io/ledstrip.o (symbol from plugin)
                                                  obj/main/CC3D/io/serial_cli.o (symbol from plugin)
generatePitchRollCurve                            /tmp/ccZkfwo0.ltrans8.ltrans.o
                                                  obj/main/CC3D/io/rc_curves.o (symbol from plugin)
                                                  /tmp/ccZkfwo0.ltrans14.ltrans.o
                                                  /tmp/ccZkfwo0.ltrans3.ltrans.o
                                                  obj/main/CC3D/io/rc_controls.o (symbol from plugin)
                                                  obj/main/CC3D/config/config.o (symbol from plugin)
generateThrottleCurve                             /tmp/ccZkfwo0.ltrans8.ltrans.o
                                                  obj/main/CC3D/io/rc_curves.o (symbol from plugin)
                                                  /tmp/ccZkfwo0.ltrans14.ltrans.o
                                                  /tmp/ccZkfwo0.ltrans3.ltrans.o
                                                  obj/main/CC3D/io/rc_controls.o (symbol from plugin)
                                                  obj/main/CC3D/config/config.o (symbol from plugin)
generateYawCurve                                  obj/main/CC3D/io/rc_curves.o (symbol from plugin)
                                                  obj/main/CC3D/config/config.o (symbol from plugin)
geometry.lto_priv.375                             /tmp/ccZkfwo0.ltrans11.ltrans.o
                                                  /tmp/ccZkfwo0.ltrans21.ltrans.o
                                                  /tmp/ccZkfwo0.ltrans14.ltrans.o
                                                  /tmp/ccZkfwo0.ltrans12.ltrans.o
                                                  /tmp/ccZkfwo0.ltrans1.ltrans.o
                                                  /tmp/ccZkfwo0.ltrans0.ltrans.o
getArmingBeepTimeMicros                           obj/main/CC3D/io/beeper.o (symbol from plugin)
                                                  obj/main/CC3D/blackbox/blackbox.o (symbol from plugin)
getBatteryState                                   obj/main/CC3D/sensors/battery.o (symbol from plugin)
                                                  obj/main/CC3D/telemetry/hott.o (symbol from plugin)
                                                  obj/main/CC3D/io/ledstrip.o (symbol from plugin)
getBatteryStateString                             obj/main/CC3D/sensors/battery.o (symbol from plugin)
                                                  obj/main/CC3D/io/serial_cli.o (symbol from plugin)
getBeeperOffMask                                  obj/main/CC3D/config/config.o (symbol from plugin)
                                                  obj/main/CC3D/io/serial_cli.o (symbol from plugin)
                                                  obj/main/CC3D/io/beeper.o (symbol from plugin)
getControlRateConfig                              obj/main/CC3D/config/config.o (symbol from plugin)
getCosTiltAngle                                   obj/main/CC3D/flight/imu.o (symbol from plugin)
getCurrentControlRateProfile                      obj/main/CC3D/config/config.o (symbol from plugin)
                                                  obj/main/CC3D/io/serial_cli.o (symbol from plugin)
                                                  obj/main/CC3D/io/rc_controls.o (symbol from plugin)
getCurrentMinthrottle                             obj/main/CC3D/config/config.o (symbol from plugin)
getCurrentProfile                                 obj/main/CC3D/config/config.o (symbol from plugin)
                                                  obj/main/CC3D/io/serial_cli.o (symbol from plugin)
getLedHsv                                         obj/main/CC3D/drivers/light_ws2811strip.o (symbol from plugin)
                                                  obj/main/CC3D/io/ledstrip.o (symbol from plugin)
getMpuDataStatus                                  obj/main/CC3D/drivers/gyro_sync.o (symbol from plugin)
getPreferedBeeperOffMask                          obj/main/CC3D/config/config.o (symbol from plugin)
                                                  obj/main/CC3D/io/serial_cli.o (symbol from plugin)
                                                  obj/main/CC3D/main.o (symbol from plugin)
getRcStickDeflection                              /tmp/ccZkfwo0.ltrans8.ltrans.o
                                                  obj/main/CC3D/io/rc_controls.o (symbol from plugin)
                                                  /tmp/ccZkfwo0.ltrans27.ltrans.o
                                                  /tmp/ccZkfwo0.ltrans19.ltrans.o
                                                  obj/main/CC3D/flight/pid.o (symbol from plugin)
getRxChannelCount.lto_priv.324                    /tmp/ccZkfwo0.ltrans16.ltrans.o
                                                  /tmp/ccZkfwo0.ltrans3.ltrans.o
getRxfailValue.lto_priv.325                       /tmp/ccZkfwo0.ltrans16.ltrans.o
                                                  /tmp/ccZkfwo0.ltrans3.ltrans.o
getTaskDeltaTime                                  obj/main/CC3D/scheduler.o (symbol from plugin)
                                                  obj/main/CC3D/mw.o (symbol from plugin)
getTaskInfo                                       obj/main/CC3D/scheduler.o (symbol from plugin)
                                                  obj/main/CC3D/io/serial_cli.o (symbol from plugin)
getdT                                             /tmp/ccZkfwo0.ltrans27.ltrans.o
                                                  obj/main/CC3D/flight/pid.o (symbol from plugin)
                                                  /tmp/ccZkfwo0.ltrans19.ltrans.o
gimbalConfig.lto_priv.544                         /tmp/ccZkfwo0.ltrans2.ltrans.o
                                                  /tmp/ccZkfwo0.ltrans14.ltrans.o
gpioExtiLineConfig                                obj/main/CC3D/drivers/gpio_stm32f10x.o (symbol from plugin)
                                                  obj/main/CC3D/drivers/accgyro_mpu.o (symbol from plugin)
gpioInit                                          /tmp/ccZkfwo0.ltrans6.ltrans.o
                                                  obj/main/CC3D/drivers/gpio_stm32f10x.o (symbol from plugin)
                                                  /tmp/ccZkfwo0.ltrans20.ltrans.o
                                                  /tmp/ccZkfwo0.ltrans15.ltrans.o
                                                  /tmp/ccZkfwo0.ltrans13.ltrans.o
                                                  /tmp/ccZkfwo0.ltrans8.ltrans.o
                                                  /tmp/ccZkfwo0.ltrans1.ltrans.o
                                                  /tmp/ccZkfwo0.ltrans0.ltrans.o
                                                  obj/main/CC3D/rx/spektrum.o (symbol from plugin)
                                                  obj/main/CC3D/io/serial_4way.o (symbol from plugin)
                                                  obj/main/CC3D/drivers/system.o (symbol from plugin)
                                                  obj/main/CC3D/drivers/timer.o (symbol from plugin)
                                                  obj/main/CC3D/drivers/system_stm32f10x.o (symbol from plugin)
                                                  obj/main/CC3D/drivers/sound_beeper_stm32f10x.o (symbol from plugin)
                                                  obj/main/CC3D/drivers/serial_uart_stm32f10x.o (symbol from plugin)
                                                  obj/main/CC3D/drivers/serial_softserial.o (symbol from plugin)
                                                  obj/main/CC3D/drivers/pwm_rx.o (symbol from plugin)
                                                  obj/main/CC3D/drivers/pwm_output.o (symbol from plugin)
                                                  obj/main/CC3D/drivers/light_led_stm32f10x.o (symbol from plugin)
                                                  obj/main/CC3D/drivers/inverter.o (symbol from plugin)
                                                  obj/main/CC3D/drivers/compass_hmc5883l.o (symbol from plugin)
                                                  obj/main/CC3D/drivers/bus_i2c_stm32f10x.o (symbol from plugin)
                                                  obj/main/CC3D/drivers/bus_spi.o (symbol from plugin)
                                                  obj/main/CC3D/drivers/accgyro_mpu.o (symbol from plugin)
gpioPinRemapConfig                                obj/main/CC3D/drivers/gpio_stm32f10x.o (symbol from plugin)
gyro                                              /tmp/ccZkfwo0.ltrans3.ltrans.o
                                                  obj/main/CC3D/sensors/gyro.o (symbol from plugin)
                                                  /tmp/ccZkfwo0.ltrans2.ltrans.o
                                                  /tmp/ccZkfwo0.ltrans0.ltrans.o
                                                  obj/main/CC3D/sensors/initialisation.o (symbol from plugin)
                                                  obj/main/CC3D/drivers/gyro_sync.o (symbol from plugin)
                                                  obj/main/CC3D/flight/imu.o (symbol from plugin)
                                                  obj/main/CC3D/mw.o (symbol from plugin)
                                                  obj/main/CC3D/blackbox/blackbox.o (symbol from plugin)
gyroADC                                           /tmp/ccZkfwo0.ltrans19.ltrans.o
                                                  obj/main/CC3D/sensors/gyro.o (symbol from plugin)
                                                  /tmp/ccZkfwo0.ltrans27.ltrans.o
                                                  /tmp/ccZkfwo0.ltrans23.ltrans.o
                                                  /tmp/ccZkfwo0.ltrans5.ltrans.o
                                                  /tmp/ccZkfwo0.ltrans2.ltrans.o
                                                  /tmp/ccZkfwo0.ltrans1.ltrans.o
                                                  obj/main/CC3D/io/serial_msp.o (symbol from plugin)
                                                  obj/main/CC3D/flight/imu.o (symbol from plugin)
                                                  obj/main/CC3D/flight/pid.o (symbol from plugin)
                                                  obj/main/CC3D/blackbox/blackbox.o (symbol from plugin)
gyroAlign                                         /tmp/ccZkfwo0.ltrans2.ltrans.o
                                                  obj/main/CC3D/sensors/gyro.o (symbol from plugin)
                                                  /tmp/ccZkfwo0.ltrans0.ltrans.o
                                                  obj/main/CC3D/sensors/initialisation.o (symbol from plugin)
gyroConfig.lto_priv.548                           /tmp/ccZkfwo0.ltrans2.ltrans.o
                                                  /tmp/ccZkfwo0.ltrans14.ltrans.o
gyroLpfCutFreq.lto_priv.549                       /tmp/ccZkfwo0.ltrans2.ltrans.o
                                                  /tmp/ccZkfwo0.ltrans14.ltrans.o
gyroMPU6xxxGetDividerDrops                        obj/main/CC3D/drivers/gyro_sync.o (symbol from plugin)
                                                  obj/main/CC3D/drivers/accgyro_spi_mpu6000.o (symbol from plugin)
gyroScale.lto_priv.484                            /tmp/ccZkfwo0.ltrans23.ltrans.o
                                                  /tmp/ccZkfwo0.ltrans0.ltrans.o
gyroSetCalibrationCycles                          obj/main/CC3D/sensors/gyro.o (symbol from plugin)
                                                  obj/main/CC3D/io/rc_controls.o (symbol from plugin)
                                                  obj/main/CC3D/mw.o (symbol from plugin)
                                                  obj/main/CC3D/main.o (symbol from plugin)
gyroSyncCheckUpdate                               obj/main/CC3D/drivers/gyro_sync.o (symbol from plugin)
                                                  obj/main/CC3D/mw.o (symbol from plugin)
gyroUpdate                                        obj/main/CC3D/sensors/gyro.o (symbol from plugin)
                                                  obj/main/CC3D/flight/imu.o (symbol from plugin)
gyroUpdateSampleRate                              obj/main/CC3D/drivers/gyro_sync.o (symbol from plugin)
                                                  obj/main/CC3D/sensors/initialisation.o (symbol from plugin)
gyroZero                                          obj/main/CC3D/sensors/gyro.o (symbol from plugin)
handleBlackbox                                    obj/main/CC3D/blackbox/blackbox.o (symbol from plugin)
                                                  obj/main/CC3D/mw.o (symbol from plugin)
handleFrSkyTelemetry                              obj/main/CC3D/telemetry/frsky.o (symbol from plugin)
                                                  obj/main/CC3D/telemetry/telemetry.o (symbol from plugin)
handleHoTTTelemetry                               obj/main/CC3D/telemetry/hott.o (symbol from plugin)
                                                  obj/main/CC3D/telemetry/telemetry.o (symbol from plugin)
handleInflightCalibrationStickPosition            obj/main/CC3D/mw.o (symbol from plugin)
                                                  obj/main/CC3D/io/rc_controls.o (symbol from plugin)
handleJetiExBusTelemetry                          obj/main/CC3D/rx/jetiexbus.o (symbol from plugin)
                                                  obj/main/CC3D/telemetry/telemetry.o (symbol from plugin)
handleLtmTelemetry                                obj/main/CC3D/telemetry/ltm.o (symbol from plugin)
                                                  obj/main/CC3D/telemetry/telemetry.o (symbol from plugin)
handleOneshotFeatureChangeOnRestart               /tmp/ccZkfwo0.ltrans18.ltrans.o
                                                  obj/main/CC3D/config/config.o (symbol from plugin)
                                                  /tmp/ccZkfwo0.ltrans25.ltrans.o
                                                  /tmp/ccZkfwo0.ltrans1.ltrans.o
                                                  obj/main/CC3D/io/serial_msp.o (symbol from plugin)
                                                  obj/main/CC3D/io/serial_cli.o (symbol from plugin)
handleSerial                                      obj/main/CC3D/io/serial.o (symbol from plugin)
                                                  obj/main/CC3D/mw.o (symbol from plugin)
handleSmartPortTelemetry                          obj/main/CC3D/telemetry/smartport.o (symbol from plugin)
                                                  obj/main/CC3D/telemetry/telemetry.o (symbol from plugin)
hasEnoughTimeLapsedSinceLastTelemetryTransmission obj/main/CC3D/telemetry/frsky.o (symbol from plugin)
headFreeModeHold                                  /tmp/ccZkfwo0.ltrans3.ltrans.o
                                                  obj/main/CC3D/mw.o (symbol from plugin)
                                                  /tmp/ccZkfwo0.ltrans21.ltrans.o
headSerialError.constprop.28                      /tmp/ccZkfwo0.ltrans24.ltrans.o
                                                  /tmp/ccZkfwo0.ltrans1.ltrans.o
headSerialReply.lto_priv.388                      /tmp/ccZkfwo0.ltrans16.ltrans.o
                                                  /tmp/ccZkfwo0.ltrans1.ltrans.o
headSerialResponse.lto_priv.183                   /tmp/ccZkfwo0.ltrans16.ltrans.o
                                                  /tmp/ccZkfwo0.ltrans24.ltrans.o
highestXValueForWest                              /tmp/ccZkfwo0.ltrans9.ltrans.o
                                                  obj/main/CC3D/io/ledstrip.o (symbol from plugin)
                                                  /tmp/ccZkfwo0.ltrans12.ltrans.o
highestYValueForNorth                             /tmp/ccZkfwo0.ltrans9.ltrans.o
                                                  obj/main/CC3D/io/ledstrip.o (symbol from plugin)
                                                  /tmp/ccZkfwo0.ltrans12.ltrans.o
hmc5883Config.lto_priv.581                        /tmp/ccZkfwo0.ltrans0.ltrans.o
                                                  /tmp/ccZkfwo0.ltrans15.ltrans.o
hmc5883lDetect                                    obj/main/CC3D/drivers/compass_hmc5883l.o (symbol from plugin)
                                                  obj/main/CC3D/sensors/initialisation.o (symbol from plugin)
hmc5883lInit                                      /tmp/ccZkfwo0.ltrans15.ltrans.o
                                                  obj/main/CC3D/drivers/compass_hmc5883l.o (symbol from plugin)
                                                  /tmp/ccZkfwo0.ltrans0.ltrans.o
hmc5883lRead                                      /tmp/ccZkfwo0.ltrans15.ltrans.o
                                                  obj/main/CC3D/drivers/compass_hmc5883l.o (symbol from plugin)
                                                  /tmp/ccZkfwo0.ltrans0.ltrans.o
hottEAMMessage.lto_priv.453                       /tmp/ccZkfwo0.ltrans4.ltrans.o
                                                  /tmp/ccZkfwo0.ltrans0.ltrans.o
hottPort.lto_priv.565                             /tmp/ccZkfwo0.ltrans4.ltrans.o
                                                  /tmp/ccZkfwo0.ltrans12.ltrans.o
hottPortSharing.lto_priv.571                      /tmp/ccZkfwo0.ltrans0.ltrans.o
                                                  /tmp/ccZkfwo0.ltrans12.ltrans.o
hottPrepareEAMResponse                            obj/main/CC3D/telemetry/hott.o (symbol from plugin)
hottTelemetryEnabled.lto_priv.572                 /tmp/ccZkfwo0.ltrans4.ltrans.o
                                                  /tmp/ccZkfwo0.ltrans12.ltrans.o
hse_value                                         /tmp/ccZkfwo0.ltrans7.ltrans.o
                                                  obj/main/CC3D/system_stm32f10x.o (symbol from plugin)
                                                  /tmp/ccZkfwo0.ltrans0.ltrans.o
                                                  obj/main/CC3D/stm32f10x_rcc.o (symbol from plugin)
hsvToRgb24                                        obj/main/CC3D/common/colorconversion.o (symbol from plugin)
                                                  obj/main/CC3D/drivers/light_ws2811strip.o (symbol from plugin)
hsv_black                                         /tmp/ccZkfwo0.ltrans9.ltrans.o
                                                  obj/main/CC3D/io/ledstrip.o (symbol from plugin)
                                                  /tmp/ccZkfwo0.ltrans14.ltrans.o
hsv_blue                                          /tmp/ccZkfwo0.ltrans9.ltrans.o
                                                  obj/main/CC3D/io/ledstrip.o (symbol from plugin)
                                                  /tmp/ccZkfwo0.ltrans14.ltrans.o
hsv_cyan                                          obj/main/CC3D/io/ledstrip.o (symbol from plugin)
hsv_darkViolet                                    obj/main/CC3D/io/ledstrip.o (symbol from plugin)
hsv_deepPink                                      obj/main/CC3D/io/ledstrip.o (symbol from plugin)
hsv_green                                         /tmp/ccZkfwo0.ltrans9.ltrans.o
                                                  obj/main/CC3D/io/ledstrip.o (symbol from plugin)
                                                  /tmp/ccZkfwo0.ltrans14.ltrans.o
hsv_lightBlue                                     obj/main/CC3D/io/ledstrip.o (symbol from plugin)
hsv_limeGreen                                     obj/main/CC3D/io/ledstrip.o (symbol from plugin)
hsv_magenta                                       obj/main/CC3D/io/ledstrip.o (symbol from plugin)
hsv_mintGreen                                     obj/main/CC3D/io/ledstrip.o (symbol from plugin)
hsv_orange                                        /tmp/ccZkfwo0.ltrans9.ltrans.o
                                                  obj/main/CC3D/io/ledstrip.o (symbol from plugin)
                                                  /tmp/ccZkfwo0.ltrans14.ltrans.o
hsv_red                                           /tmp/ccZkfwo0.ltrans9.ltrans.o
                                                  obj/main/CC3D/io/ledstrip.o (symbol from plugin)
                                                  /tmp/ccZkfwo0.ltrans14.ltrans.o
hsv_white                                         /tmp/ccZkfwo0.ltrans0.ltrans.o
                                                  obj/main/CC3D/io/ledstrip.o (symbol from plugin)
                                                  /tmp/ccZkfwo0.ltrans14.ltrans.o
                                                  obj/main/CC3D/drivers/light_ws2811strip_stm32f10x.o (symbol from plugin)
hsv_yellow                                        /tmp/ccZkfwo0.ltrans9.ltrans.o
                                                  obj/main/CC3D/io/ledstrip.o (symbol from plugin)
                                                  /tmp/ccZkfwo0.ltrans14.ltrans.o
i2a                                               obj/main/CC3D/common/typeconversion.o (symbol from plugin)
                                                  obj/main/CC3D/common/printf.o (symbol from plugin)
i2cErrorCount.lto_priv.376                        /tmp/ccZkfwo0.ltrans16.ltrans.o
                                                  /tmp/ccZkfwo0.ltrans20.ltrans.o
                                                  /tmp/ccZkfwo0.ltrans1.ltrans.o
i2cGetErrorCounter                                obj/main/CC3D/drivers/bus_i2c_stm32f10x.o (symbol from plugin)
                                                  obj/main/CC3D/io/serial_msp.o (symbol from plugin)
                                                  obj/main/CC3D/io/serial_cli.o (symbol from plugin)
i2cHandleHardwareFailure.lto_priv.582             /tmp/ccZkfwo0.ltrans20.ltrans.o
                                                  /tmp/ccZkfwo0.ltrans15.ltrans.o
i2cInit                                           /tmp/ccZkfwo0.ltrans15.ltrans.o
                                                  obj/main/CC3D/drivers/bus_i2c_stm32f10x.o (symbol from plugin)
                                                  /tmp/ccZkfwo0.ltrans20.ltrans.o
                                                  /tmp/ccZkfwo0.ltrans0.ltrans.o
                                                  obj/main/CC3D/main.o (symbol from plugin)
i2cRead                                           /tmp/ccZkfwo0.ltrans15.ltrans.o
                                                  obj/main/CC3D/drivers/bus_i2c_stm32f10x.o (symbol from plugin)
                                                  /tmp/ccZkfwo0.ltrans20.ltrans.o
                                                  /tmp/ccZkfwo0.ltrans0.ltrans.o
                                                  obj/main/CC3D/drivers/compass_hmc5883l.o (symbol from plugin)
                                                  obj/main/CC3D/drivers/barometer_ms5611.o (symbol from plugin)
                                                  obj/main/CC3D/drivers/accgyro_mpu.o (symbol from plugin)
i2cWrite                                          /tmp/ccZkfwo0.ltrans20.ltrans.o
                                                  obj/main/CC3D/drivers/bus_i2c_stm32f10x.o (symbol from plugin)
                                                  /tmp/ccZkfwo0.ltrans15.ltrans.o
                                                  obj/main/CC3D/drivers/display_ug2864hsweg01.o (symbol from plugin)
                                                  obj/main/CC3D/drivers/compass_hmc5883l.o (symbol from plugin)
                                                  obj/main/CC3D/drivers/barometer_ms5611.o (symbol from plugin)
                                                  obj/main/CC3D/drivers/accgyro_mpu.o (symbol from plugin)
i2cWriteBuffer                                    obj/main/CC3D/drivers/bus_i2c_stm32f10x.o (symbol from plugin)
i2c_OLED_clear_display                            obj/main/CC3D/drivers/display_ug2864hsweg01.o (symbol from plugin)
i2c_OLED_clear_display_quick                      obj/main/CC3D/drivers/display_ug2864hsweg01.o (symbol from plugin)
i2c_OLED_send_char                                obj/main/CC3D/drivers/display_ug2864hsweg01.o (symbol from plugin)
i2c_OLED_send_string                              obj/main/CC3D/drivers/display_ug2864hsweg01.o (symbol from plugin)
i2c_OLED_set_line                                 obj/main/CC3D/drivers/display_ug2864hsweg01.o (symbol from plugin)
i2c_OLED_set_xy                                   obj/main/CC3D/drivers/display_ug2864hsweg01.o (symbol from plugin)
i2c_er_handler.lto_priv.597                       /tmp/ccZkfwo0.ltrans15.ltrans.o
                                                  /tmp/ccZkfwo0.ltrans20.ltrans.o
i2c_ev_handler.lto_priv.596                       /tmp/ccZkfwo0.ltrans15.ltrans.o
                                                  /tmp/ccZkfwo0.ltrans20.ltrans.o
ibus.lto_priv.335                                 /tmp/ccZkfwo0.ltrans7.ltrans.o
                                                  /tmp/ccZkfwo0.ltrans22.ltrans.o
ibusChannelData.lto_priv.336                      /tmp/ccZkfwo0.ltrans7.ltrans.o
                                                  /tmp/ccZkfwo0.ltrans22.ltrans.o
ibusDataReceive.lto_priv.473                      /tmp/ccZkfwo0.ltrans7.ltrans.o
                                                  /tmp/ccZkfwo0.ltrans0.ltrans.o
ibusFrameDone.lto_priv.334                        /tmp/ccZkfwo0.ltrans7.ltrans.o
                                                  /tmp/ccZkfwo0.ltrans22.ltrans.o
ibusFrameStatus                                   obj/main/CC3D/rx/ibus.o (symbol from plugin)
                                                  obj/main/CC3D/rx/rx.o (symbol from plugin)
ibusInit                                          obj/main/CC3D/rx/ibus.o (symbol from plugin)
                                                  obj/main/CC3D/rx/rx.o (symbol from plugin)
ibusReadRawRC.lto_priv.472                        /tmp/ccZkfwo0.ltrans7.ltrans.o
                                                  /tmp/ccZkfwo0.ltrans0.ltrans.o
imuCalculateAcceleration                          obj/main/CC3D/flight/imu.o (symbol from plugin)
imuComputeRotationMatrix.lto_priv.414             /tmp/ccZkfwo0.ltrans19.ltrans.o
                                                  /tmp/ccZkfwo0.ltrans23.ltrans.o
                                                  /tmp/ccZkfwo0.ltrans0.ltrans.o
imuConfigure                                      obj/main/CC3D/flight/imu.o (symbol from plugin)
                                                  obj/main/CC3D/config/config.o (symbol from plugin)
imuInit                                           obj/main/CC3D/flight/imu.o (symbol from plugin)
                                                  obj/main/CC3D/main.o (symbol from plugin)
imuResetAccelerationSum                           obj/main/CC3D/flight/imu.o (symbol from plugin)
imuRuntimeConfig.lto_priv.483                     /tmp/ccZkfwo0.ltrans23.ltrans.o
                                                  /tmp/ccZkfwo0.ltrans14.ltrans.o
                                                  /tmp/ccZkfwo0.ltrans0.ltrans.o
imuTransformVectorBodyToEarth                     obj/main/CC3D/flight/imu.o (symbol from plugin)
imuUpdateAccelerometer                            obj/main/CC3D/flight/imu.o (symbol from plugin)
                                                  obj/main/CC3D/mw.o (symbol from plugin)
imuUpdateAttitude                                 obj/main/CC3D/flight/imu.o (symbol from plugin)
                                                  obj/main/CC3D/mw.o (symbol from plugin)
imuUpdateGyro                                     obj/main/CC3D/flight/imu.o (symbol from plugin)
                                                  obj/main/CC3D/mw.o (symbol from plugin)
init                                              obj/main/CC3D/main.o (symbol from plugin)
initBeeperHardware                                obj/main/CC3D/drivers/sound_beeper_stm32f10x.o (symbol from plugin)
                                                  obj/main/CC3D/drivers/sound_beeper.o (symbol from plugin)
initBlackbox                                      obj/main/CC3D/blackbox/blackbox.o (symbol from plugin)
                                                  obj/main/CC3D/main.o (symbol from plugin)
initBoardAlignment                                obj/main/CC3D/sensors/boardalignment.o (symbol from plugin)
                                                  obj/main/CC3D/main.o (symbol from plugin)
initEEPROM                                        obj/main/CC3D/config/config.o (symbol from plugin)
                                                  obj/main/CC3D/main.o (symbol from plugin)
initFrSkyTelemetry                                obj/main/CC3D/telemetry/frsky.o (symbol from plugin)
                                                  obj/main/CC3D/telemetry/telemetry.o (symbol from plugin)
initGyroFilterCoefficients                        obj/main/CC3D/sensors/gyro.o (symbol from plugin)
initHoTTTelemetry                                 obj/main/CC3D/telemetry/hott.o (symbol from plugin)
                                                  obj/main/CC3D/telemetry/telemetry.o (symbol from plugin)
initInverter                                      obj/main/CC3D/drivers/inverter.o (symbol from plugin)
                                                  obj/main/CC3D/main.o (symbol from plugin)
initJetiExBusTelemetry                            obj/main/CC3D/rx/jetiexbus.o (symbol from plugin)
                                                  obj/main/CC3D/telemetry/telemetry.o (symbol from plugin)
initLtmTelemetry                                  obj/main/CC3D/telemetry/ltm.o (symbol from plugin)
                                                  obj/main/CC3D/telemetry/telemetry.o (symbol from plugin)
initRxRefreshRate                                 obj/main/CC3D/rx/rx.o (symbol from plugin)
                                                  obj/main/CC3D/mw.o (symbol from plugin)
initSmartPortTelemetry                            obj/main/CC3D/telemetry/smartport.o (symbol from plugin)
                                                  obj/main/CC3D/telemetry/telemetry.o (symbol from plugin)
initSpi1                                          obj/main/CC3D/drivers/bus_spi.o (symbol from plugin)
initSpi2                                          obj/main/CC3D/drivers/bus_spi.o (symbol from plugin)
init_printf                                       obj/main/CC3D/common/printf.o (symbol from plugin)
inputFilteringMode.lto_priv.578                   /tmp/ccZkfwo0.ltrans0.ltrans.o
                                                  /tmp/ccZkfwo0.ltrans6.ltrans.o
inputSource_e                                     obj/main/CC3D/io/serial_msp.o (symbol from plugin)
                                                  obj/main/CC3D/io/serial_cli.o (symbol from plugin)
                                                  obj/main/CC3D/io/serial_4way.o (symbol from plugin)
                                                  obj/main/CC3D/flight/mixer.o (symbol from plugin)
                                                  obj/main/CC3D/flight/imu.o (symbol from plugin)
                                                  obj/main/CC3D/flight/altitudehold.o (symbol from plugin)
                                                  obj/main/CC3D/mw.o (symbol from plugin)
                                                  obj/main/CC3D/main.o (symbol from plugin)
                                                  obj/main/CC3D/config/config.o (symbol from plugin)
                                                  obj/main/CC3D/build_config.o (symbol from plugin)
                                                  obj/main/CC3D/blackbox/blackbox_io.o (symbol from plugin)
                                                  obj/main/CC3D/blackbox/blackbox.o (symbol from plugin)
                                                  obj/main/CC3D/telemetry/ltm.o (symbol from plugin)
                                                  obj/main/CC3D/telemetry/smartport.o (symbol from plugin)
                                                  obj/main/CC3D/telemetry/frsky.o (symbol from plugin)
isAccelerationCalibrationComplete                 obj/main/CC3D/sensors/acceleration.o (symbol from plugin)
                                                  obj/main/CC3D/mw.o (symbol from plugin)
isBlackboxDeviceFull                              /tmp/ccZkfwo0.ltrans14.ltrans.o
                                                  obj/main/CC3D/blackbox/blackbox_io.o (symbol from plugin)
                                                  /tmp/ccZkfwo0.ltrans21.ltrans.o
                                                  /tmp/ccZkfwo0.ltrans2.ltrans.o
                                                  obj/main/CC3D/blackbox/blackbox.o (symbol from plugin)
isCalibrating                                     obj/main/CC3D/mw.o (symbol from plugin)
isEEPROMContentValid.lto_priv.535                 /tmp/ccZkfwo0.ltrans14.ltrans.o
                                                  /tmp/ccZkfwo0.ltrans18.ltrans.o
                                                  /tmp/ccZkfwo0.ltrans0.ltrans.o
isEscHi                                           obj/main/CC3D/io/serial_4way.o (symbol from plugin)
                                                  obj/main/CC3D/io/serial_4way_stk500v2.o (symbol from plugin)
                                                  obj/main/CC3D/io/serial_4way_avrootloader.o (symbol from plugin)
isEscLo                                           obj/main/CC3D/io/serial_4way.o (symbol from plugin)
                                                  obj/main/CC3D/io/serial_4way_stk500v2.o (symbol from plugin)
isGyroCalibrationComplete                         obj/main/CC3D/sensors/gyro.o (symbol from plugin)
                                                  obj/main/CC3D/mw.o (symbol from plugin)
isMPUSoftReset                                    obj/main/CC3D/drivers/system_stm32f10x.o (symbol from plugin)
                                                  obj/main/CC3D/rx/spektrum.o (symbol from plugin)
isMcuConnected                                    obj/main/CC3D/io/serial_4way.o (symbol from plugin)
                                                  obj/main/CC3D/io/serial_4way_avrootloader.o (symbol from plugin)
isMixerUsingServos                                obj/main/CC3D/flight/mixer.o (symbol from plugin)
                                                  obj/main/CC3D/main.o (symbol from plugin)
isModeActivationConditionPresent                  obj/main/CC3D/io/rc_controls.o (symbol from plugin)
                                                  obj/main/CC3D/blackbox/blackbox.o (symbol from plugin)
isModeActivationConditionPresent.constprop.97     /tmp/ccZkfwo0.ltrans24.ltrans.o
                                                  /tmp/ccZkfwo0.ltrans21.ltrans.o
                                                  /tmp/ccZkfwo0.ltrans14.ltrans.o
                                                  /tmp/ccZkfwo0.ltrans1.ltrans.o
isMotorBrushed                                    obj/main/CC3D/drivers/pwm_output.o (symbol from plugin)
                                                  obj/main/CC3D/drivers/pwm_mapping.o (symbol from plugin)
isOnFinalAccelerationCalibrationCycle             obj/main/CC3D/sensors/acceleration.o (symbol from plugin)
isOnFinalGyroCalibrationCycle                     obj/main/CC3D/sensors/gyro.o (symbol from plugin)
isOnFirstAccelerationCalibrationCycle             obj/main/CC3D/sensors/acceleration.o (symbol from plugin)
isOnFirstGyroCalibrationCycle                     obj/main/CC3D/sensors/gyro.o (symbol from plugin)
isPPMDataBeingReceived                            obj/main/CC3D/drivers/pwm_rx.o (symbol from plugin)
                                                  obj/main/CC3D/rx/rx.o (symbol from plugin)
isPWMDataBeingReceived                            obj/main/CC3D/drivers/pwm_rx.o (symbol from plugin)
                                                  obj/main/CC3D/rx/rx.o (symbol from plugin)
isRXDataNew.lto_priv.419                          /tmp/ccZkfwo0.ltrans3.ltrans.o
                                                  /tmp/ccZkfwo0.ltrans2.ltrans.o
isRangeActive                                     obj/main/CC3D/io/rc_controls.o (symbol from plugin)
isRangeActive.part.2.lto_priv.322                 /tmp/ccZkfwo0.ltrans8.ltrans.o
                                                  /tmp/ccZkfwo0.ltrans3.ltrans.o
isSerialConfigValid                               obj/main/CC3D/io/serial.o (symbol from plugin)
                                                  obj/main/CC3D/config/config.o (symbol from plugin)
isSerialPortShared                                obj/main/CC3D/io/serial.o (symbol from plugin)
isSerialTransmitBufferEmpty                       /tmp/ccZkfwo0.ltrans19.ltrans.o
                                                  obj/main/CC3D/drivers/serial.o (symbol from plugin)
                                                  /tmp/ccZkfwo0.ltrans18.ltrans.o
                                                  /tmp/ccZkfwo0.ltrans14.ltrans.o
                                                  /tmp/ccZkfwo0.ltrans8.ltrans.o
                                                  /tmp/ccZkfwo0.ltrans4.ltrans.o
                                                  obj/main/CC3D/rx/jetiexbus.o (symbol from plugin)
                                                  obj/main/CC3D/io/serial.o (symbol from plugin)
                                                  obj/main/CC3D/common/printf.o (symbol from plugin)
                                                  obj/main/CC3D/blackbox/blackbox_io.o (symbol from plugin)
isSmartPortTimedOut                               obj/main/CC3D/telemetry/smartport.o (symbol from plugin)
isSoftSerialTransmitBufferEmpty                   /tmp/ccZkfwo0.ltrans13.ltrans.o
                                                  obj/main/CC3D/drivers/serial_softserial.o (symbol from plugin)
                                                  /tmp/ccZkfwo0.ltrans6.ltrans.o
isUartTransmitBufferEmpty                         obj/main/CC3D/drivers/serial_uart.o (symbol from plugin)
isUsbVcpTransmitBufferEmpty.lto_priv.278          /tmp/ccZkfwo0.ltrans24.ltrans.o
                                                  /tmp/ccZkfwo0.ltrans8.ltrans.o
isUsingSticksForArming                            obj/main/CC3D/io/rc_controls.o (symbol from plugin)
                                                  obj/main/CC3D/flight/failsafe.o (symbol from plugin)
                                                  obj/main/CC3D/mw.o (symbol from plugin)
isUsingSticksToArm.lto_priv.368                   /tmp/ccZkfwo0.ltrans3.ltrans.o
                                                  /tmp/ccZkfwo0.ltrans14.ltrans.o
                                                  /tmp/ccZkfwo0.ltrans2.ltrans.o
                                                  /tmp/ccZkfwo0.ltrans1.ltrans.o
isWS2811LedStripReady                             obj/main/CC3D/drivers/light_ws2811strip.o (symbol from plugin)
                                                  obj/main/CC3D/io/ledstrip.o (symbol from plugin)
isr_vector_table_base                             /tmp/ccZkfwo0.ltrans0.ltrans.o
                                                  obj/main/CC3D/drivers/system.o (symbol from plugin)
itoa                                              obj/main/CC3D/common/typeconversion.o (symbol from plugin)
                                                  obj/main/CC3D/io/serial_cli.o (symbol from plugin)
itoa.constprop.75                                 /tmp/ccZkfwo0.ltrans24.ltrans.o
                                                  /tmp/ccZkfwo0.ltrans18.ltrans.o
                                                  /tmp/ccZkfwo0.ltrans10.ltrans.o
jetiExBusChannelData.lto_priv.333                 /tmp/ccZkfwo0.ltrans7.ltrans.o
                                                  /tmp/ccZkfwo0.ltrans22.ltrans.o
jetiExBusChannelFrame.lto_priv.332                /tmp/ccZkfwo0.ltrans7.ltrans.o
                                                  /tmp/ccZkfwo0.ltrans22.ltrans.o
jetiExBusDataReceive.lto_priv.475                 /tmp/ccZkfwo0.ltrans7.ltrans.o
                                                  /tmp/ccZkfwo0.ltrans0.ltrans.o
jetiExBusDecodeChannelFrame                       obj/main/CC3D/rx/jetiexbus.o (symbol from plugin)
jetiExBusFrameLength.lto_priv.478                 /tmp/ccZkfwo0.ltrans7.ltrans.o
                                                  /tmp/ccZkfwo0.ltrans0.ltrans.o
jetiExBusFramePosition.lto_priv.477               /tmp/ccZkfwo0.ltrans7.ltrans.o
                                                  /tmp/ccZkfwo0.ltrans0.ltrans.o
jetiExBusFrameState.lto_priv.331                  /tmp/ccZkfwo0.ltrans7.ltrans.o
                                                  /tmp/ccZkfwo0.ltrans22.ltrans.o
jetiExBusFrameStatus                              obj/main/CC3D/rx/jetiexbus.o (symbol from plugin)
                                                  obj/main/CC3D/rx/rx.o (symbol from plugin)
jetiExBusInit                                     obj/main/CC3D/rx/jetiexbus.o (symbol from plugin)
                                                  obj/main/CC3D/rx/rx.o (symbol from plugin)
jetiExBusPort.lto_priv.476                        /tmp/ccZkfwo0.ltrans4.ltrans.o
                                                  /tmp/ccZkfwo0.ltrans0.ltrans.o
jetiExBusReadRawRC.lto_priv.474                   /tmp/ccZkfwo0.ltrans7.ltrans.o
                                                  /tmp/ccZkfwo0.ltrans0.ltrans.o
jetiExBusRequestFrame.lto_priv.299                /tmp/ccZkfwo0.ltrans7.ltrans.o
                                                  /tmp/ccZkfwo0.ltrans4.ltrans.o
jetiExBusRequestState.lto_priv.297                /tmp/ccZkfwo0.ltrans7.ltrans.o
                                                  /tmp/ccZkfwo0.ltrans4.ltrans.o
jetiExBusTelemetryFrame.lto_priv.300              /tmp/ccZkfwo0.ltrans24.ltrans.o
                                                  /tmp/ccZkfwo0.ltrans4.ltrans.o
                                                  /tmp/ccZkfwo0.ltrans0.ltrans.o
jetiExSensors                                     obj/main/CC3D/rx/jetiexbus.o (symbol from plugin)
jetiTimeStampRequest.lto_priv.298                 /tmp/ccZkfwo0.ltrans7.ltrans.o
                                                  /tmp/ccZkfwo0.ltrans4.ltrans.o
latchActiveFeatures                               obj/main/CC3D/config/config.o (symbol from plugin)
                                                  obj/main/CC3D/main.o (symbol from plugin)
ledColorBuffer.lto_priv.455                       /tmp/ccZkfwo0.ltrans9.ltrans.o
                                                  /tmp/ccZkfwo0.ltrans12.ltrans.o
                                                  /tmp/ccZkfwo0.ltrans6.ltrans.o
                                                  /tmp/ccZkfwo0.ltrans0.ltrans.o
ledConfigs                                        /tmp/ccZkfwo0.ltrans11.ltrans.o
                                                  obj/main/CC3D/io/ledstrip.o (symbol from plugin)
                                                  /tmp/ccZkfwo0.ltrans12.ltrans.o
                                                  /tmp/ccZkfwo0.ltrans9.ltrans.o
                                                  /tmp/ccZkfwo0.ltrans0.ltrans.o
ledCount                                          /tmp/ccZkfwo0.ltrans9.ltrans.o
                                                  obj/main/CC3D/io/ledstrip.o (symbol from plugin)
                                                  /tmp/ccZkfwo0.ltrans12.ltrans.o
ledGridHeight                                     obj/main/CC3D/io/ledstrip.o (symbol from plugin)
ledGridWidth                                      obj/main/CC3D/io/ledstrip.o (symbol from plugin)
ledInit                                           obj/main/CC3D/drivers/light_led_stm32f10x.o (symbol from plugin)
                                                  obj/main/CC3D/main.o (symbol from plugin)
ledStripDMABuffer                                 /tmp/ccZkfwo0.ltrans0.ltrans.o
                                                  obj/main/CC3D/drivers/light_ws2811strip.o (symbol from plugin)
                                                  /tmp/ccZkfwo0.ltrans6.ltrans.o
                                                  obj/main/CC3D/drivers/light_ws2811strip_stm32f10x.o (symbol from plugin)
ledStripEnable                                    obj/main/CC3D/io/ledstrip.o (symbol from plugin)
                                                  obj/main/CC3D/main.o (symbol from plugin)
ledStripInit                                      obj/main/CC3D/io/ledstrip.o (symbol from plugin)
                                                  obj/main/CC3D/main.o (symbol from plugin)
ledStripInitialised.lto_priv.454                  /tmp/ccZkfwo0.ltrans9.ltrans.o
                                                  /tmp/ccZkfwo0.ltrans0.ltrans.o
led_config                                        /tmp/ccZkfwo0.ltrans16.ltrans.o
                                                  obj/main/CC3D/sensors/compass.o (symbol from plugin)
                                                  obj/main/CC3D/rx/spektrum.o (symbol from plugin)
                                                  obj/main/CC3D/io/statusindicator.o (symbol from plugin)
                                                  obj/main/CC3D/io/serial_4way.o (symbol from plugin)
                                                  obj/main/CC3D/io/serial.o (symbol from plugin)
                                                  obj/main/CC3D/drivers/system.o (symbol from plugin)
                                                  obj/main/CC3D/mw.o (symbol from plugin)
                                                  obj/main/CC3D/main.o (symbol from plugin)
                                                  obj/main/CC3D/blackbox/blackbox_io.o (symbol from plugin)
                                                  obj/main/CC3D/blackbox/blackbox.o (symbol from plugin)
                                                  obj/main/CC3D/telemetry/smartport.o (symbol from plugin)
                                                  obj/main/CC3D/io/gps.o (symbol from plugin)
                                                  obj/main/CC3D/flight/navigation.o (symbol from plugin)
                                                  obj/main/CC3D/drivers/light_led_stm32f10x.o (symbol from plugin)
                                                  obj/main/CC3D/drivers/compass_hmc5883l.o (symbol from plugin)
                                                  /tmp/ccZkfwo0.ltrans28.ltrans.o
                                                  /tmp/ccZkfwo0.ltrans19.ltrans.o
                                                  /tmp/ccZkfwo0.ltrans10.ltrans.o
                                                  /tmp/ccZkfwo0.ltrans3.ltrans.o
                                                  /tmp/ccZkfwo0.ltrans1.ltrans.o
                                                  /tmp/ccZkfwo0.ltrans0.ltrans.o
ledsInRingCount                                   obj/main/CC3D/io/ledstrip.o (symbol from plugin)
li2a                                              obj/main/CC3D/common/typeconversion.o (symbol from plugin)
                                                  obj/main/CC3D/common/printf.o (symbol from plugin)
linecoding                                        obj/main/CC3D/vcp/usb_prop.o (symbol from plugin)
loadCustomServoMixer                              /tmp/ccZkfwo0.ltrans19.ltrans.o
                                                  obj/main/CC3D/flight/mixer.o (symbol from plugin)
                                                  /tmp/ccZkfwo0.ltrans1.ltrans.o
                                                  /tmp/ccZkfwo0.ltrans0.ltrans.o
                                                  obj/main/CC3D/io/serial_msp.o (symbol from plugin)
lookupBaudRateIndex                               obj/main/CC3D/io/serial.o (symbol from plugin)
                                                  obj/main/CC3D/io/serial_cli.o (symbol from plugin)
lookupPitchRollRC                                 /tmp/ccZkfwo0.ltrans8.ltrans.o
                                                  obj/main/CC3D/io/rc_curves.o (symbol from plugin)
                                                  /tmp/ccZkfwo0.ltrans3.ltrans.o
                                                  obj/main/CC3D/mw.o (symbol from plugin)
lookupTableAccHardware.lto_priv.233               /tmp/ccZkfwo0.ltrans16.ltrans.o
lookupTableAlignment.lto_priv.226                 /tmp/ccZkfwo0.ltrans16.ltrans.o
lookupTableBaroHardware.lto_priv.234              /tmp/ccZkfwo0.ltrans16.ltrans.o
lookupTableBlackboxDevice.lto_priv.227            /tmp/ccZkfwo0.ltrans16.ltrans.o
lookupTableCurrentSensor.lto_priv.228             /tmp/ccZkfwo0.ltrans16.ltrans.o
lookupTableDebug.lto_priv.236                     /tmp/ccZkfwo0.ltrans16.ltrans.o
lookupTableGimbalMode.lto_priv.229                /tmp/ccZkfwo0.ltrans16.ltrans.o
lookupTableGyroLpf.lto_priv.232                   /tmp/ccZkfwo0.ltrans16.ltrans.o
lookupTableMagHardware.lto_priv.235               /tmp/ccZkfwo0.ltrans16.ltrans.o
lookupTableOffOn.lto_priv.224                     /tmp/ccZkfwo0.ltrans16.ltrans.o
lookupTablePidController.lto_priv.230             /tmp/ccZkfwo0.ltrans16.ltrans.o
lookupTableSerialRX.lto_priv.231                  /tmp/ccZkfwo0.ltrans16.ltrans.o
lookupTableSuperExpoYaw.lto_priv.237              /tmp/ccZkfwo0.ltrans16.ltrans.o
lookupTableUnit.lto_priv.225                      /tmp/ccZkfwo0.ltrans16.ltrans.o
lookupTables.lto_priv.201                         /tmp/ccZkfwo0.ltrans16.ltrans.o
                                                  /tmp/ccZkfwo0.ltrans25.ltrans.o
lookupThrottleRC                                  /tmp/ccZkfwo0.ltrans8.ltrans.o
                                                  obj/main/CC3D/io/rc_curves.o (symbol from plugin)
                                                  /tmp/ccZkfwo0.ltrans3.ltrans.o
                                                  obj/main/CC3D/mw.o (symbol from plugin)
lookupTimerIndex.lto_priv.287                     /tmp/ccZkfwo0.ltrans13.ltrans.o
                                                  /tmp/ccZkfwo0.ltrans19.ltrans.o
                                                  /tmp/ccZkfwo0.ltrans12.ltrans.o
lookupYawRC                                       /tmp/ccZkfwo0.ltrans3.ltrans.o
                                                  obj/main/CC3D/io/rc_curves.o (symbol from plugin)
                                                  /tmp/ccZkfwo0.ltrans14.ltrans.o
                                                  obj/main/CC3D/mw.o (symbol from plugin)
lowThrottlePidReduction.lto_priv.290              /tmp/ccZkfwo0.ltrans19.ltrans.o
                                                  /tmp/ccZkfwo0.ltrans27.ltrans.o
                                                  /tmp/ccZkfwo0.ltrans3.ltrans.o
lowestXValueForEast                               /tmp/ccZkfwo0.ltrans9.ltrans.o
                                                  obj/main/CC3D/io/ledstrip.o (symbol from plugin)
                                                  /tmp/ccZkfwo0.ltrans12.ltrans.o
lowestYValueForSouth                              /tmp/ccZkfwo0.ltrans9.ltrans.o
                                                  obj/main/CC3D/io/ledstrip.o (symbol from plugin)
                                                  /tmp/ccZkfwo0.ltrans12.ltrans.o
lrintf                                            /usr/bin/../lib/gcc/arm-none-eabi/4.9.3/../../../../arm-none-eabi/lib/armv7-m/libm.a(lib_a-sf_lrint.o)
                                                  /tmp/ccZkfwo0.ltrans27.ltrans.o
                                                  /tmp/ccZkfwo0.ltrans23.ltrans.o
                                                  /tmp/ccZkfwo0.ltrans21.ltrans.o
                                                  /tmp/ccZkfwo0.ltrans7.ltrans.o
                                                  /tmp/ccZkfwo0.ltrans2.ltrans.o
ltmEnabled.lto_priv.567                           /tmp/ccZkfwo0.ltrans4.ltrans.o
                                                  /tmp/ccZkfwo0.ltrans12.ltrans.o
ltmPort.lto_priv.562                              /tmp/ccZkfwo0.ltrans4.ltrans.o
                                                  /tmp/ccZkfwo0.ltrans12.ltrans.o
                                                  /tmp/ccZkfwo0.ltrans5.ltrans.o
ltmPortSharing.lto_priv.566                       /tmp/ccZkfwo0.ltrans0.ltrans.o
                                                  /tmp/ccZkfwo0.ltrans12.ltrans.o
ltm_finalise.lto_priv.308                         /tmp/ccZkfwo0.ltrans5.ltrans.o
                                                  /tmp/ccZkfwo0.ltrans4.ltrans.o
ltm_initialise_packet.lto_priv.309                /tmp/ccZkfwo0.ltrans5.ltrans.o
                                                  /tmp/ccZkfwo0.ltrans4.ltrans.o
ltm_serialise_16.lto_priv.310                     /tmp/ccZkfwo0.ltrans5.ltrans.o
                                                  /tmp/ccZkfwo0.ltrans4.ltrans.o
ltm_serialise_32.constprop.110                    /tmp/ccZkfwo0.ltrans24.ltrans.o
                                                  /tmp/ccZkfwo0.ltrans4.ltrans.o
ltm_serialise_8.lto_priv.181                      /tmp/ccZkfwo0.ltrans5.ltrans.o
                                                  /tmp/ccZkfwo0.ltrans24.ltrans.o
                                                  /tmp/ccZkfwo0.ltrans4.ltrans.o
m25p16_eraseCompletely                            obj/main/CC3D/drivers/flash_m25p16.o (symbol from plugin)
                                                  obj/main/CC3D/io/flashfs.o (symbol from plugin)
m25p16_eraseSector                                obj/main/CC3D/drivers/flash_m25p16.o (symbol from plugin)
                                                  obj/main/CC3D/io/flashfs.o (symbol from plugin)
m25p16_getGeometry                                obj/main/CC3D/drivers/flash_m25p16.o (symbol from plugin)
                                                  obj/main/CC3D/io/flashfs.o (symbol from plugin)
m25p16_init                                       obj/main/CC3D/drivers/flash_m25p16.o (symbol from plugin)
                                                  obj/main/CC3D/main.o (symbol from plugin)
m25p16_isReady                                    /tmp/ccZkfwo0.ltrans6.ltrans.o
                                                  obj/main/CC3D/drivers/flash_m25p16.o (symbol from plugin)
                                                  /tmp/ccZkfwo0.ltrans12.ltrans.o
                                                  /tmp/ccZkfwo0.ltrans11.ltrans.o
                                                  /tmp/ccZkfwo0.ltrans1.ltrans.o
                                                  obj/main/CC3D/io/flashfs.o (symbol from plugin)
m25p16_pageProgram                                obj/main/CC3D/drivers/flash_m25p16.o (symbol from plugin)
m25p16_pageProgramBegin                           obj/main/CC3D/drivers/flash_m25p16.o (symbol from plugin)
                                                  obj/main/CC3D/io/flashfs.o (symbol from plugin)
m25p16_pageProgramContinue                        obj/main/CC3D/drivers/flash_m25p16.o (symbol from plugin)
                                                  obj/main/CC3D/io/flashfs.o (symbol from plugin)
m25p16_pageProgramFinish                          obj/main/CC3D/drivers/flash_m25p16.o (symbol from plugin)
                                                  obj/main/CC3D/io/flashfs.o (symbol from plugin)
m25p16_readBytes                                  /tmp/ccZkfwo0.ltrans6.ltrans.o
                                                  obj/main/CC3D/drivers/flash_m25p16.o (symbol from plugin)
                                                  /tmp/ccZkfwo0.ltrans1.ltrans.o
                                                  /tmp/ccZkfwo0.ltrans0.ltrans.o
                                                  obj/main/CC3D/io/flashfs.o (symbol from plugin)
m25p16_waitForReady                               /tmp/ccZkfwo0.ltrans6.ltrans.o
                                                  obj/main/CC3D/drivers/flash_m25p16.o (symbol from plugin)
                                                  /tmp/ccZkfwo0.ltrans12.ltrans.o
mAhDrawn                                          /tmp/ccZkfwo0.ltrans4.ltrans.o
                                                  obj/main/CC3D/sensors/battery.o (symbol from plugin)
                                                  /tmp/ccZkfwo0.ltrans22.ltrans.o
                                                  /tmp/ccZkfwo0.ltrans1.ltrans.o
                                                  obj/main/CC3D/rx/jetiexbus.o (symbol from plugin)
                                                  obj/main/CC3D/io/serial_msp.o (symbol from plugin)
                                                  obj/main/CC3D/telemetry/smartport.o (symbol from plugin)
                                                  obj/main/CC3D/telemetry/hott.o (symbol from plugin)
                                                  obj/main/CC3D/telemetry/frsky.o (symbol from plugin)
mag                                               /tmp/ccZkfwo0.ltrans28.ltrans.o
                                                  obj/main/CC3D/sensors/compass.o (symbol from plugin)
                                                  /tmp/ccZkfwo0.ltrans0.ltrans.o
                                                  obj/main/CC3D/sensors/initialisation.o (symbol from plugin)
magADC                                            /tmp/ccZkfwo0.ltrans28.ltrans.o
                                                  obj/main/CC3D/sensors/compass.o (symbol from plugin)
                                                  /tmp/ccZkfwo0.ltrans23.ltrans.o
                                                  /tmp/ccZkfwo0.ltrans5.ltrans.o
                                                  /tmp/ccZkfwo0.ltrans1.ltrans.o
                                                  obj/main/CC3D/io/serial_msp.o (symbol from plugin)
                                                  obj/main/CC3D/flight/imu.o (symbol from plugin)
                                                  obj/main/CC3D/blackbox/blackbox.o (symbol from plugin)
magAlign                                          /tmp/ccZkfwo0.ltrans28.ltrans.o
                                                  obj/main/CC3D/sensors/compass.o (symbol from plugin)
                                                  /tmp/ccZkfwo0.ltrans0.ltrans.o
                                                  obj/main/CC3D/sensors/initialisation.o (symbol from plugin)
magHold                                           /tmp/ccZkfwo0.ltrans3.ltrans.o
                                                  obj/main/CC3D/mw.o (symbol from plugin)
                                                  /tmp/ccZkfwo0.ltrans2.ltrans.o
                                                  /tmp/ccZkfwo0.ltrans1.ltrans.o
                                                  obj/main/CC3D/io/serial_msp.o (symbol from plugin)
magInit.lto_priv.485                              /tmp/ccZkfwo0.ltrans28.ltrans.o
                                                  /tmp/ccZkfwo0.ltrans0.ltrans.o
magneticDeclination                               /tmp/ccZkfwo0.ltrans23.ltrans.o
                                                  obj/main/CC3D/flight/imu.o (symbol from plugin)
                                                  /tmp/ccZkfwo0.ltrans0.ltrans.o
                                                  obj/main/CC3D/sensors/initialisation.o (symbol from plugin)
main                                              /tmp/ccZkfwo0.ltrans0.ltrans.o
                                                  obj/main/CC3D/main.o (symbol from plugin)
                                                  obj/main/CC3D/startup_stm32f10x_md_gcc.o
malloc                                            /usr/bin/../lib/gcc/arm-none-eabi/4.9.3/../../../../arm-none-eabi/lib/armv7-m/libc_nano.a(lib_a-malloc.o)
                                                  /usr/bin/../lib/gcc/arm-none-eabi/4.9.3/../../../../arm-none-eabi/lib/armv7-m/libc_nano.a(lib_a-strtok.o)
masterConfig                                      /tmp/ccZkfwo0.ltrans24.ltrans.o
                                                  obj/main/CC3D/config/config.o (symbol from plugin)
                                                  /tmp/ccZkfwo0.ltrans28.ltrans.o
                                                  /tmp/ccZkfwo0.ltrans25.ltrans.o
                                                  /tmp/ccZkfwo0.ltrans23.ltrans.o
                                                  /tmp/ccZkfwo0.ltrans22.ltrans.o
                                                  /tmp/ccZkfwo0.ltrans21.ltrans.o
                                                  /tmp/ccZkfwo0.ltrans19.ltrans.o
                                                  /tmp/ccZkfwo0.ltrans18.ltrans.o
                                                  /tmp/ccZkfwo0.ltrans16.ltrans.o
                                                  /tmp/ccZkfwo0.ltrans14.ltrans.o
                                                  /tmp/ccZkfwo0.ltrans11.ltrans.o
                                                  /tmp/ccZkfwo0.ltrans10.ltrans.o
                                                  /tmp/ccZkfwo0.ltrans5.ltrans.o
                                                  /tmp/ccZkfwo0.ltrans4.ltrans.o
                                                  /tmp/ccZkfwo0.ltrans3.ltrans.o
                                                  /tmp/ccZkfwo0.ltrans2.ltrans.o
                                                  /tmp/ccZkfwo0.ltrans1.ltrans.o
                                                  /tmp/ccZkfwo0.ltrans0.ltrans.o
                                                  obj/main/CC3D/io/serial_msp.o (symbol from plugin)
                                                  obj/main/CC3D/io/serial_cli.o (symbol from plugin)
                                                  obj/main/CC3D/mw.o (symbol from plugin)
                                                  obj/main/CC3D/main.o (symbol from plugin)
                                                  obj/main/CC3D/blackbox/blackbox_io.o (symbol from plugin)
                                                  obj/main/CC3D/blackbox/blackbox.o (symbol from plugin)
matherr                                           /usr/bin/../lib/gcc/arm-none-eabi/4.9.3/../../../../arm-none-eabi/lib/armv7-m/libm.a(lib_a-s_matherr.o)
                                                  /usr/bin/../lib/gcc/arm-none-eabi/4.9.3/../../../../arm-none-eabi/lib/armv7-m/libm.a(lib_a-wf_sqrt.o)
                                                  /usr/bin/../lib/gcc/arm-none-eabi/4.9.3/../../../../arm-none-eabi/lib/armv7-m/libm.a(lib_a-wf_acos.o)
memcmp                                            /usr/bin/../lib/gcc/arm-none-eabi/4.9.3/../../../../arm-none-eabi/lib/armv7-m/libg_nano.a(lib_a-memcmp.o)
                                                  /tmp/ccZkfwo0.ltrans5.ltrans.o
memcpy                                            /usr/bin/../lib/gcc/arm-none-eabi/4.9.3/../../../../arm-none-eabi/lib/armv7-m/libg_nano.a(lib_a-memcpy.o)
                                                  /tmp/ccZkfwo0.ltrans14.ltrans.o
                                                  /tmp/ccZkfwo0.ltrans4.ltrans.o
memmove                                           /usr/bin/../lib/gcc/arm-none-eabi/4.9.3/../../../../arm-none-eabi/lib/armv7-m/libg_nano.a(lib_a-memmove.o)
                                                  /tmp/ccZkfwo0.ltrans18.ltrans.o
memset                                            /usr/bin/../lib/gcc/arm-none-eabi/4.9.3/../../../../arm-none-eabi/lib/armv7-m/libg_nano.a(lib_a-memset.o)
                                                  /tmp/ccZkfwo0.ltrans24.ltrans.o
                                                  /tmp/ccZkfwo0.ltrans21.ltrans.o
                                                  /tmp/ccZkfwo0.ltrans19.ltrans.o
                                                  /tmp/ccZkfwo0.ltrans18.ltrans.o
                                                  /tmp/ccZkfwo0.ltrans16.ltrans.o
                                                  /tmp/ccZkfwo0.ltrans14.ltrans.o
                                                  /tmp/ccZkfwo0.ltrans11.ltrans.o
                                                  /tmp/ccZkfwo0.ltrans10.ltrans.o
                                                  /tmp/ccZkfwo0.ltrans1.ltrans.o
                                                  /tmp/ccZkfwo0.ltrans0.ltrans.o
micros                                            /tmp/ccZkfwo0.ltrans19.ltrans.o
                                                  obj/main/CC3D/drivers/system.o (symbol from plugin)
                                                  /tmp/ccZkfwo0.ltrans23.ltrans.o
                                                  /tmp/ccZkfwo0.ltrans22.ltrans.o
                                                  /tmp/ccZkfwo0.ltrans21.ltrans.o
                                                  /tmp/ccZkfwo0.ltrans20.ltrans.o
                                                  /tmp/ccZkfwo0.ltrans16.ltrans.o
                                                  /tmp/ccZkfwo0.ltrans9.ltrans.o
                                                  /tmp/ccZkfwo0.ltrans8.ltrans.o
                                                  /tmp/ccZkfwo0.ltrans7.ltrans.o
                                                  /tmp/ccZkfwo0.ltrans4.ltrans.o
                                                  /tmp/ccZkfwo0.ltrans3.ltrans.o
                                                  /tmp/ccZkfwo0.ltrans2.ltrans.o
                                                  /tmp/ccZkfwo0.ltrans0.ltrans.o
                                                  obj/main/CC3D/rx/jetiexbus.o (symbol from plugin)
                                                  obj/main/CC3D/rx/ibus.o (symbol from plugin)
                                                  obj/main/CC3D/rx/xbus.o (symbol from plugin)
                                                  obj/main/CC3D/rx/spektrum.o (symbol from plugin)
                                                  obj/main/CC3D/rx/sumh.o (symbol from plugin)
                                                  obj/main/CC3D/rx/sumd.o (symbol from plugin)
                                                  obj/main/CC3D/rx/sbus.o (symbol from plugin)
                                                  obj/main/CC3D/rx/rx.o (symbol from plugin)
                                                  obj/main/CC3D/io/statusindicator.o (symbol from plugin)
                                                  obj/main/CC3D/io/serial_4way_stk500v2.o (symbol from plugin)
                                                  obj/main/CC3D/io/serial_4way_avrootloader.o (symbol from plugin)
                                                  obj/main/CC3D/io/beeper.o (symbol from plugin)
                                                  obj/main/CC3D/flight/imu.o (symbol from plugin)
                                                  obj/main/CC3D/mw.o (symbol from plugin)
                                                  obj/main/CC3D/scheduler.o (symbol from plugin)
                                                  obj/main/CC3D/telemetry/hott.o (symbol from plugin)
                                                  obj/main/CC3D/io/ledstrip.o (symbol from plugin)
                                                  obj/main/CC3D/drivers/accgyro_mpu.o (symbol from plugin)
millis                                            obj/main/CC3D/drivers/system.o (symbol from plugin)
                                                  obj/main/CC3D/drivers/serial_usb_vcp.o (symbol from plugin)
                                                  obj/main/CC3D/rx/rx.o (symbol from plugin)
                                                  obj/main/CC3D/io/statusindicator.o (symbol from plugin)
                                                  obj/main/CC3D/io/serial_cli.o (symbol from plugin)
                                                  obj/main/CC3D/io/serial_4way_avrootloader.o (symbol from plugin)
                                                  obj/main/CC3D/io/rc_controls.o (symbol from plugin)
                                                  obj/main/CC3D/io/beeper.o (symbol from plugin)
                                                  obj/main/CC3D/flight/imu.o (symbol from plugin)
                                                  obj/main/CC3D/flight/failsafe.o (symbol from plugin)
                                                  obj/main/CC3D/mw.o (symbol from plugin)
                                                  obj/main/CC3D/blackbox/blackbox.o (symbol from plugin)
                                                  obj/main/CC3D/telemetry/ltm.o (symbol from plugin)
                                                  obj/main/CC3D/telemetry/smartport.o (symbol from plugin)
                                                  obj/main/CC3D/telemetry/hott.o (symbol from plugin)
                                                  obj/main/CC3D/telemetry/frsky.o (symbol from plugin)
                                                  obj/main/CC3D/drivers/flash_m25p16.o (symbol from plugin)
mixTable                                          obj/main/CC3D/flight/mixer.o (symbol from plugin)
                                                  obj/main/CC3D/mw.o (symbol from plugin)
mixerAtail4.lto_priv.525                          /tmp/ccZkfwo0.ltrans10.ltrans.o
mixerBicopter.lto_priv.513                        /tmp/ccZkfwo0.ltrans10.ltrans.o
mixerConfig.lto_priv.425                          /tmp/ccZkfwo0.ltrans2.ltrans.o
                                                  /tmp/ccZkfwo0.ltrans21.ltrans.o
                                                  /tmp/ccZkfwo0.ltrans14.ltrans.o
mixerDualcopter.lto_priv.524                      /tmp/ccZkfwo0.ltrans10.ltrans.o
mixerHex6H.lto_priv.523                           /tmp/ccZkfwo0.ltrans10.ltrans.o
mixerHex6P.lto_priv.515                           /tmp/ccZkfwo0.ltrans10.ltrans.o
mixerHex6X.lto_priv.518                           /tmp/ccZkfwo0.ltrans10.ltrans.o
mixerInit                                         obj/main/CC3D/flight/mixer.o (symbol from plugin)
                                                  obj/main/CC3D/main.o (symbol from plugin)
mixerLoadMix                                      obj/main/CC3D/flight/mixer.o (symbol from plugin)
                                                  obj/main/CC3D/io/serial_cli.o (symbol from plugin)
mixerNames.lto_priv.242                           /tmp/ccZkfwo0.ltrans25.ltrans.o
                                                  /tmp/ccZkfwo0.ltrans11.ltrans.o
                                                  /tmp/ccZkfwo0.ltrans10.ltrans.o
mixerOctoFlatP.lto_priv.520                       /tmp/ccZkfwo0.ltrans10.ltrans.o
mixerOctoFlatX.lto_priv.521                       /tmp/ccZkfwo0.ltrans10.ltrans.o
mixerOctoX8.lto_priv.519                          /tmp/ccZkfwo0.ltrans10.ltrans.o
mixerQuadP.lto_priv.511                           /tmp/ccZkfwo0.ltrans10.ltrans.o
mixerQuadX.lto_priv.512                           /tmp/ccZkfwo0.ltrans10.ltrans.o
mixerQuadX1234.lto_priv.526                       /tmp/ccZkfwo0.ltrans10.ltrans.o
mixerResetDisarmedMotors                          /tmp/ccZkfwo0.ltrans19.ltrans.o
                                                  obj/main/CC3D/flight/mixer.o (symbol from plugin)
                                                  /tmp/ccZkfwo0.ltrans11.ltrans.o
                                                  /tmp/ccZkfwo0.ltrans0.ltrans.o
                                                  obj/main/CC3D/io/serial_cli.o (symbol from plugin)
mixerSingleProp.lto_priv.516                      /tmp/ccZkfwo0.ltrans10.ltrans.o
mixerTricopter.lto_priv.510                       /tmp/ccZkfwo0.ltrans10.ltrans.o
mixerUseConfigs                                   obj/main/CC3D/flight/mixer.o (symbol from plugin)
                                                  obj/main/CC3D/config/config.o (symbol from plugin)
mixerUsePWMOutputConfiguration                    obj/main/CC3D/flight/mixer.o (symbol from plugin)
                                                  obj/main/CC3D/main.o (symbol from plugin)
mixerVtail4.lto_priv.522                          /tmp/ccZkfwo0.ltrans10.ltrans.o
mixerY4.lto_priv.517                              /tmp/ccZkfwo0.ltrans10.ltrans.o
mixerY6.lto_priv.514                              /tmp/ccZkfwo0.ltrans10.ltrans.o
mixers                                            /tmp/ccZkfwo0.ltrans10.ltrans.o
                                                  obj/main/CC3D/flight/mixer.o (symbol from plugin)
                                                  /tmp/ccZkfwo0.ltrans0.ltrans.o
motor                                             /tmp/ccZkfwo0.ltrans19.ltrans.o
                                                  obj/main/CC3D/flight/mixer.o (symbol from plugin)
                                                  /tmp/ccZkfwo0.ltrans5.ltrans.o
                                                  /tmp/ccZkfwo0.ltrans2.ltrans.o
                                                  /tmp/ccZkfwo0.ltrans1.ltrans.o
                                                  obj/main/CC3D/io/serial_msp.o (symbol from plugin)
                                                  obj/main/CC3D/io/serial_4way.o (symbol from plugin)
                                                  obj/main/CC3D/blackbox/blackbox.o (symbol from plugin)
motorControlEnable                                /tmp/ccZkfwo0.ltrans21.ltrans.o
                                                  obj/main/CC3D/mw.o (symbol from plugin)
                                                  /tmp/ccZkfwo0.ltrans0.ltrans.o
                                                  obj/main/CC3D/main.o (symbol from plugin)
motorCount                                        /tmp/ccZkfwo0.ltrans19.ltrans.o
                                                  obj/main/CC3D/flight/mixer.o (symbol from plugin)
                                                  /tmp/ccZkfwo0.ltrans27.ltrans.o
                                                  /tmp/ccZkfwo0.ltrans21.ltrans.o
                                                  /tmp/ccZkfwo0.ltrans18.ltrans.o
                                                  /tmp/ccZkfwo0.ltrans5.ltrans.o
                                                  /tmp/ccZkfwo0.ltrans2.ltrans.o
                                                  /tmp/ccZkfwo0.ltrans0.ltrans.o
                                                  obj/main/CC3D/flight/pid.o (symbol from plugin)
                                                  obj/main/CC3D/blackbox/blackbox.o (symbol from plugin)
motorLimitReached                                 /tmp/ccZkfwo0.ltrans19.ltrans.o
                                                  obj/main/CC3D/io/serial_msp.o (symbol from plugin)
                                                  obj/main/CC3D/io/serial_cli.o (symbol from plugin)
                                                  obj/main/CC3D/io/serial_4way.o (symbol from plugin)
                                                  obj/main/CC3D/flight/mixer.o (symbol from plugin)
                                                  obj/main/CC3D/flight/imu.o (symbol from plugin)
                                                  obj/main/CC3D/flight/altitudehold.o (symbol from plugin)
                                                  obj/main/CC3D/mw.o (symbol from plugin)
                                                  obj/main/CC3D/main.o (symbol from plugin)
                                                  obj/main/CC3D/config/config.o (symbol from plugin)
                                                  obj/main/CC3D/build_config.o (symbol from plugin)
                                                  obj/main/CC3D/blackbox/blackbox_io.o (symbol from plugin)
                                                  obj/main/CC3D/blackbox/blackbox.o (symbol from plugin)
                                                  obj/main/CC3D/telemetry/ltm.o (symbol from plugin)
                                                  obj/main/CC3D/telemetry/smartport.o (symbol from plugin)
                                                  obj/main/CC3D/telemetry/frsky.o (symbol from plugin)
                                                  /tmp/ccZkfwo0.ltrans27.ltrans.o
                                                  /tmp/ccZkfwo0.ltrans2.ltrans.o
                                                  obj/main/CC3D/flight/pid.o (symbol from plugin)
motor_disarmed                                    /tmp/ccZkfwo0.ltrans25.ltrans.o
                                                  obj/main/CC3D/flight/mixer.o (symbol from plugin)
                                                  /tmp/ccZkfwo0.ltrans19.ltrans.o
                                                  /tmp/ccZkfwo0.ltrans2.ltrans.o
                                                  /tmp/ccZkfwo0.ltrans1.ltrans.o
                                                  obj/main/CC3D/io/serial_msp.o (symbol from plugin)
                                                  obj/main/CC3D/io/serial_cli.o (symbol from plugin)
motors.lto_priv.495                               /tmp/ccZkfwo0.ltrans19.ltrans.o
                                                  /tmp/ccZkfwo0.ltrans18.ltrans.o
                                                  /tmp/ccZkfwo0.ltrans6.ltrans.o
                                                  /tmp/ccZkfwo0.ltrans0.ltrans.o
mpu6000ReadRegister                               /tmp/ccZkfwo0.ltrans20.ltrans.o
                                                  obj/main/CC3D/drivers/accgyro_spi_mpu6000.o (symbol from plugin)
                                                  /tmp/ccZkfwo0.ltrans0.ltrans.o
                                                  obj/main/CC3D/drivers/accgyro_mpu.o (symbol from plugin)
mpu6000SpiAccDetect                               obj/main/CC3D/drivers/accgyro_spi_mpu6000.o (symbol from plugin)
                                                  obj/main/CC3D/sensors/initialisation.o (symbol from plugin)
mpu6000SpiAccInit                                 /tmp/ccZkfwo0.ltrans20.ltrans.o
                                                  obj/main/CC3D/drivers/accgyro_spi_mpu6000.o (symbol from plugin)
                                                  /tmp/ccZkfwo0.ltrans0.ltrans.o
mpu6000SpiDetect                                  obj/main/CC3D/drivers/accgyro_spi_mpu6000.o (symbol from plugin)
                                                  obj/main/CC3D/drivers/accgyro_mpu.o (symbol from plugin)
mpu6000SpiGyroDetect                              obj/main/CC3D/drivers/accgyro_spi_mpu6000.o (symbol from plugin)
                                                  obj/main/CC3D/sensors/initialisation.o (symbol from plugin)
mpu6000SpiGyroInit                                /tmp/ccZkfwo0.ltrans20.ltrans.o
                                                  obj/main/CC3D/drivers/accgyro_spi_mpu6000.o (symbol from plugin)
                                                  /tmp/ccZkfwo0.ltrans0.ltrans.o
mpu6000WriteRegister                              /tmp/ccZkfwo0.ltrans20.ltrans.o
                                                  obj/main/CC3D/drivers/accgyro_spi_mpu6000.o (symbol from plugin)
                                                  /tmp/ccZkfwo0.ltrans0.ltrans.o
                                                  obj/main/CC3D/drivers/accgyro_mpu.o (symbol from plugin)
mpuAccRead                                        /tmp/ccZkfwo0.ltrans20.ltrans.o
                                                  obj/main/CC3D/drivers/accgyro_mpu.o (symbol from plugin)
                                                  /tmp/ccZkfwo0.ltrans0.ltrans.o
                                                  obj/main/CC3D/drivers/accgyro_spi_mpu6000.o (symbol from plugin)
mpuConfiguration                                  /tmp/ccZkfwo0.ltrans0.ltrans.o
                                                  obj/main/CC3D/drivers/accgyro_mpu.o (symbol from plugin)
                                                  /tmp/ccZkfwo0.ltrans20.ltrans.o
mpuDetectionResult                                obj/main/CC3D/drivers/accgyro_mpu.o (symbol from plugin)
                                                  obj/main/CC3D/drivers/accgyro_spi_mpu6000.o (symbol from plugin)
mpuDividerDrops.lto_priv.594                      /tmp/ccZkfwo0.ltrans0.ltrans.o
                                                  /tmp/ccZkfwo0.ltrans20.ltrans.o
mpuGyroRead                                       /tmp/ccZkfwo0.ltrans20.ltrans.o
                                                  obj/main/CC3D/drivers/accgyro_mpu.o (symbol from plugin)
                                                  /tmp/ccZkfwo0.ltrans0.ltrans.o
                                                  obj/main/CC3D/drivers/accgyro_spi_mpu6000.o (symbol from plugin)
mpuIntExtiConfig.lto_priv.595                     /tmp/ccZkfwo0.ltrans0.ltrans.o
                                                  /tmp/ccZkfwo0.ltrans20.ltrans.o
mpuIntExtiInit                                    obj/main/CC3D/drivers/accgyro_mpu.o (symbol from plugin)
                                                  obj/main/CC3D/drivers/accgyro_spi_mpu6000.o (symbol from plugin)
mpuReadRegisterI2C.lto_priv.486                   /tmp/ccZkfwo0.ltrans20.ltrans.o
                                                  /tmp/ccZkfwo0.ltrans0.ltrans.o
mpuWriteRegisterI2C.lto_priv.487                  /tmp/ccZkfwo0.ltrans20.ltrans.o
                                                  /tmp/ccZkfwo0.ltrans0.ltrans.o
ms5611Detect                                      obj/main/CC3D/drivers/barometer_ms5611.o (symbol from plugin)
mspAllocateSerialPorts                            obj/main/CC3D/io/serial_msp.o (symbol from plugin)
                                                  obj/main/CC3D/mw.o (symbol from plugin)
                                                  obj/main/CC3D/blackbox/blackbox_io.o (symbol from plugin)
mspAllocateSerialPorts.constprop.96               /tmp/ccZkfwo0.ltrans24.ltrans.o
                                                  /tmp/ccZkfwo0.ltrans3.ltrans.o
                                                  /tmp/ccZkfwo0.ltrans2.ltrans.o
                                                  /tmp/ccZkfwo0.ltrans0.ltrans.o
mspFrame.lto_priv.371                             /tmp/ccZkfwo0.ltrans16.ltrans.o
                                                  /tmp/ccZkfwo0.ltrans1.ltrans.o
mspInit                                           obj/main/CC3D/io/serial_msp.o (symbol from plugin)
                                                  obj/main/CC3D/main.o (symbol from plugin)
mspPorts.lto_priv.196                             /tmp/ccZkfwo0.ltrans24.ltrans.o
                                                  /tmp/ccZkfwo0.ltrans16.ltrans.o
                                                  /tmp/ccZkfwo0.ltrans1.ltrans.o
                                                  /tmp/ccZkfwo0.ltrans0.ltrans.o
mspProcess                                        obj/main/CC3D/io/serial_msp.o (symbol from plugin)
                                                  obj/main/CC3D/io/serial.o (symbol from plugin)
mspReleasePortIfAllocated                         /tmp/ccZkfwo0.ltrans16.ltrans.o
                                                  obj/main/CC3D/io/serial_msp.o (symbol from plugin)
                                                  /tmp/ccZkfwo0.ltrans21.ltrans.o
                                                  /tmp/ccZkfwo0.ltrans3.ltrans.o
                                                  obj/main/CC3D/mw.o (symbol from plugin)
mspSerialPort.lto_priv.359                        /tmp/ccZkfwo0.ltrans16.ltrans.o
                                                  /tmp/ccZkfwo0.ltrans1.ltrans.o
mwArm                                             /tmp/ccZkfwo0.ltrans21.ltrans.o
                                                  obj/main/CC3D/mw.o (symbol from plugin)
                                                  /tmp/ccZkfwo0.ltrans3.ltrans.o
                                                  obj/main/CC3D/io/rc_controls.o (symbol from plugin)
mwDisarm                                          /tmp/ccZkfwo0.ltrans21.ltrans.o
                                                  obj/main/CC3D/mw.o (symbol from plugin)
                                                  /tmp/ccZkfwo0.ltrans3.ltrans.o
                                                  obj/main/CC3D/io/rc_controls.o (symbol from plugin)
                                                  obj/main/CC3D/flight/failsafe.o (symbol from plugin)
nan                                               /usr/bin/../lib/gcc/arm-none-eabi/4.9.3/../../../../arm-none-eabi/lib/armv7-m/libm.a(lib_a-s_nan.o)
                                                  /usr/bin/../lib/gcc/arm-none-eabi/4.9.3/../../../../arm-none-eabi/lib/armv7-m/libm.a(lib_a-wf_acos.o)
nopConsumer.lto_priv.264                          /tmp/ccZkfwo0.ltrans8.ltrans.o
normalizeV                                        obj/main/CC3D/common/maths.o (symbol from plugin)
nullReadRawRC.lto_priv.180                        /tmp/ccZkfwo0.ltrans16.ltrans.o
                                                  /tmp/ccZkfwo0.ltrans24.ltrans.o
                                                  /tmp/ccZkfwo0.ltrans0.ltrans.o
onSerialRxPinChange                               /tmp/ccZkfwo0.ltrans13.ltrans.o
                                                  obj/main/CC3D/drivers/serial_softserial.o (symbol from plugin)
                                                  /tmp/ccZkfwo0.ltrans6.ltrans.o
onSerialTimer                                     obj/main/CC3D/drivers/serial_softserial.o (symbol from plugin)
openSerialPort                                    /tmp/ccZkfwo0.ltrans8.ltrans.o
                                                  obj/main/CC3D/io/serial.o (symbol from plugin)
                                                  /tmp/ccZkfwo0.ltrans24.ltrans.o
                                                  /tmp/ccZkfwo0.ltrans21.ltrans.o
                                                  /tmp/ccZkfwo0.ltrans12.ltrans.o
                                                  /tmp/ccZkfwo0.ltrans10.ltrans.o
                                                  /tmp/ccZkfwo0.ltrans0.ltrans.o
                                                  obj/main/CC3D/rx/jetiexbus.o (symbol from plugin)
                                                  obj/main/CC3D/rx/ibus.o (symbol from plugin)
                                                  obj/main/CC3D/rx/xbus.o (symbol from plugin)
                                                  obj/main/CC3D/rx/spektrum.o (symbol from plugin)
                                                  obj/main/CC3D/rx/sumh.o (symbol from plugin)
                                                  obj/main/CC3D/rx/sumd.o (symbol from plugin)
                                                  obj/main/CC3D/rx/sbus.o (symbol from plugin)
                                                  obj/main/CC3D/io/serial_msp.o (symbol from plugin)
                                                  obj/main/CC3D/io/serial_cli.o (symbol from plugin)
                                                  obj/main/CC3D/blackbox/blackbox_io.o (symbol from plugin)
                                                  obj/main/CC3D/telemetry/ltm.o (symbol from plugin)
                                                  obj/main/CC3D/telemetry/smartport.o (symbol from plugin)
                                                  obj/main/CC3D/telemetry/hott.o (symbol from plugin)
                                                  obj/main/CC3D/telemetry/frsky.o (symbol from plugin)
openSoftSerial                                    /tmp/ccZkfwo0.ltrans6.ltrans.o
                                                  obj/main/CC3D/drivers/serial_softserial.o (symbol from plugin)
                                                  /tmp/ccZkfwo0.ltrans13.ltrans.o
                                                  /tmp/ccZkfwo0.ltrans8.ltrans.o
                                                  obj/main/CC3D/io/serial.o (symbol from plugin)
pEpInt_IN                                         obj/main/CC3D/vcp/usb_istr.o (symbol from plugin)
                                                  obj/main/CC3D/usb_int.o (symbol from plugin)
pEpInt_OUT                                        obj/main/CC3D/vcp/usb_istr.o (symbol from plugin)
                                                  obj/main/CC3D/usb_int.o (symbol from plugin)
pInformation                                      /tmp/ccZkfwo0.ltrans24.ltrans.o
                                                  obj/main/CC3D/usb_init.o (symbol from plugin)
                                                  /tmp/ccZkfwo0.ltrans26.ltrans.o
                                                  /tmp/ccZkfwo0.ltrans17.ltrans.o
                                                  /tmp/ccZkfwo0.ltrans8.ltrans.o
                                                  /tmp/ccZkfwo0.ltrans7.ltrans.o
                                                  obj/main/CC3D/vcp/usb_prop.o (symbol from plugin)
                                                  obj/main/CC3D/usb_core.o (symbol from plugin)
pProperty                                         /tmp/ccZkfwo0.ltrans17.ltrans.o
                                                  obj/main/CC3D/usb_init.o (symbol from plugin)
                                                  /tmp/ccZkfwo0.ltrans8.ltrans.o
                                                  obj/main/CC3D/usb_core.o (symbol from plugin)
pUser_Standard_Requests                           /tmp/ccZkfwo0.ltrans17.ltrans.o
                                                  obj/main/CC3D/usb_init.o (symbol from plugin)
                                                  /tmp/ccZkfwo0.ltrans8.ltrans.o
                                                  /tmp/ccZkfwo0.ltrans7.ltrans.o
                                                  obj/main/CC3D/usb_core.o (symbol from plugin)
packFlightModeFlags.lto_priv.407                  /tmp/ccZkfwo0.ltrans16.ltrans.o
                                                  /tmp/ccZkfwo0.ltrans1.ltrans.o
packetSent                                        /tmp/ccZkfwo0.ltrans24.ltrans.o
                                                  obj/main/CC3D/vcp/hw_config.o (symbol from plugin)
                                                  /tmp/ccZkfwo0.ltrans26.ltrans.o
                                                  /tmp/ccZkfwo0.ltrans17.ltrans.o
                                                  obj/main/CC3D/vcp/usb_endp.o (symbol from plugin)
parseColor                                        obj/main/CC3D/io/ledstrip.o (symbol from plugin)
                                                  obj/main/CC3D/io/serial_cli.o (symbol from plugin)
parseLedStripConfig                               obj/main/CC3D/io/ledstrip.o (symbol from plugin)
                                                  obj/main/CC3D/io/serial_cli.o (symbol from plugin)
parseRcChannels                                   obj/main/CC3D/rx/rx.o (symbol from plugin)
                                                  obj/main/CC3D/io/serial_cli.o (symbol from plugin)
                                                  obj/main/CC3D/config/config.o (symbol from plugin)
parseRcChannels.constprop.81                      /tmp/ccZkfwo0.ltrans24.ltrans.o
                                                  /tmp/ccZkfwo0.ltrans25.ltrans.o
                                                  /tmp/ccZkfwo0.ltrans14.ltrans.o
performAcclerationCalibration                     obj/main/CC3D/sensors/acceleration.o (symbol from plugin)
performInflightAccelerationCalibration            obj/main/CC3D/sensors/acceleration.o (symbol from plugin)
pidLuxFloat.lto_priv.370                          /tmp/ccZkfwo0.ltrans27.ltrans.o
                                                  /tmp/ccZkfwo0.ltrans14.ltrans.o
                                                  /tmp/ccZkfwo0.ltrans1.ltrans.o
pidMultiWiiRewrite.lto_priv.369                   /tmp/ccZkfwo0.ltrans19.ltrans.o
                                                  /tmp/ccZkfwo0.ltrans14.ltrans.o
                                                  /tmp/ccZkfwo0.ltrans1.ltrans.o
pidProfile.lto_priv.367                           /tmp/ccZkfwo0.ltrans3.ltrans.o
                                                  /tmp/ccZkfwo0.ltrans14.ltrans.o
                                                  /tmp/ccZkfwo0.ltrans1.ltrans.o
pidResetErrorAngle                                obj/main/CC3D/flight/pid.o (symbol from plugin)
                                                  obj/main/CC3D/mw.o (symbol from plugin)
pidResetErrorGyroState                            obj/main/CC3D/flight/pid.o (symbol from plugin)
                                                  obj/main/CC3D/mw.o (symbol from plugin)
pidSetController                                  obj/main/CC3D/flight/pid.o (symbol from plugin)
                                                  obj/main/CC3D/io/serial_msp.o (symbol from plugin)
                                                  obj/main/CC3D/config/config.o (symbol from plugin)
pid_controller                                    /tmp/ccZkfwo0.ltrans1.ltrans.o
                                                  obj/main/CC3D/flight/pid.o (symbol from plugin)
                                                  /tmp/ccZkfwo0.ltrans14.ltrans.o
                                                  /tmp/ccZkfwo0.ltrans2.ltrans.o
                                                  obj/main/CC3D/mw.o (symbol from plugin)
portConfig.lto_priv.449                           /tmp/ccZkfwo0.ltrans0.ltrans.o
                                                  /tmp/ccZkfwo0.ltrans12.ltrans.o
portConfig.lto_priv.450                           /tmp/ccZkfwo0.ltrans4.ltrans.o
                                                  /tmp/ccZkfwo0.ltrans12.ltrans.o
                                                  /tmp/ccZkfwo0.ltrans0.ltrans.o
portConfig.lto_priv.451                           /tmp/ccZkfwo0.ltrans0.ltrans.o
                                                  /tmp/ccZkfwo0.ltrans12.ltrans.o
portConfig.lto_priv.452                           /tmp/ccZkfwo0.ltrans0.ltrans.o
                                                  /tmp/ccZkfwo0.ltrans12.ltrans.o
ppmAvoidPWMTimerClash                             obj/main/CC3D/drivers/pwm_rx.o (symbol from plugin)
ppmDev                                            /tmp/ccZkfwo0.ltrans0.ltrans.o
                                                  obj/main/CC3D/drivers/pwm_rx.o (symbol from plugin)
                                                  /tmp/ccZkfwo0.ltrans6.ltrans.o
ppmEdgeCallback.lto_priv.503                      /tmp/ccZkfwo0.ltrans6.ltrans.o
                                                  /tmp/ccZkfwo0.ltrans0.ltrans.o
ppmFrameCount.lto_priv.579                        /tmp/ccZkfwo0.ltrans22.ltrans.o
                                                  /tmp/ccZkfwo0.ltrans6.ltrans.o
ppmInConfig                                       obj/main/CC3D/drivers/pwm_rx.o (symbol from plugin)
                                                  obj/main/CC3D/drivers/pwm_mapping.o (symbol from plugin)
ppmOverflowCallback.lto_priv.504                  /tmp/ccZkfwo0.ltrans6.ltrans.o
                                                  /tmp/ccZkfwo0.ltrans0.ltrans.o
ppmRead                                           obj/main/CC3D/drivers/pwm_rx.o (symbol from plugin)
                                                  obj/main/CC3D/rx/pwm.o (symbol from plugin)
ppmReadRawRC.lto_priv.481                         /tmp/ccZkfwo0.ltrans16.ltrans.o
                                                  /tmp/ccZkfwo0.ltrans0.ltrans.o
prepareForNextRxByte                              obj/main/CC3D/drivers/serial_softserial.o (symbol from plugin)
printfSerialPort.lto_priv.538                     /tmp/ccZkfwo0.ltrans1.ltrans.o
                                                  /tmp/ccZkfwo0.ltrans18.ltrans.o
printfSupportInit                                 obj/main/CC3D/common/printf.o (symbol from plugin)
                                                  obj/main/CC3D/main.o (symbol from plugin)
processRcAdjustments                              obj/main/CC3D/io/rc_controls.o (symbol from plugin)
                                                  obj/main/CC3D/mw.o (symbol from plugin)
processRcStickPositions                           obj/main/CC3D/io/rc_controls.o (symbol from plugin)
                                                  obj/main/CC3D/mw.o (symbol from plugin)
processRx                                         obj/main/CC3D/mw.o (symbol from plugin)
processRxState                                    obj/main/CC3D/drivers/serial_softserial.o (symbol from plugin)
processTxState                                    obj/main/CC3D/drivers/serial_softserial.o (symbol from plugin)
putcp.lto_priv.177                                /tmp/ccZkfwo0.ltrans18.ltrans.o
                                                  /tmp/ccZkfwo0.ltrans24.ltrans.o
pwmBrushedMotorConfig                             obj/main/CC3D/drivers/pwm_output.o (symbol from plugin)
                                                  obj/main/CC3D/drivers/pwm_mapping.o (symbol from plugin)
pwmBrushlessMotorConfig                           obj/main/CC3D/drivers/pwm_output.o (symbol from plugin)
                                                  obj/main/CC3D/drivers/pwm_mapping.o (symbol from plugin)
pwmCompleteOneshotMotorUpdate                     obj/main/CC3D/drivers/pwm_output.o (symbol from plugin)
                                                  obj/main/CC3D/flight/mixer.o (symbol from plugin)
pwmDisableMotors                                  obj/main/CC3D/drivers/pwm_output.o (symbol from plugin)
                                                  obj/main/CC3D/io/serial_4way.o (symbol from plugin)
pwmEdgeCallback.lto_priv.501                      /tmp/ccZkfwo0.ltrans6.ltrans.o
                                                  /tmp/ccZkfwo0.ltrans0.ltrans.o
pwmEnableMotors                                   obj/main/CC3D/drivers/pwm_output.o (symbol from plugin)
                                                  obj/main/CC3D/io/serial_4way.o (symbol from plugin)
pwmGetOutputConfiguration                         obj/main/CC3D/drivers/pwm_mapping.o (symbol from plugin)
                                                  obj/main/CC3D/io/serial_4way.o (symbol from plugin)
pwmICConfig                                       /tmp/ccZkfwo0.ltrans6.ltrans.o
                                                  obj/main/CC3D/drivers/pwm_rx.o (symbol from plugin)
                                                  /tmp/ccZkfwo0.ltrans0.ltrans.o
pwmInConfig                                       obj/main/CC3D/drivers/pwm_rx.o (symbol from plugin)
                                                  obj/main/CC3D/drivers/pwm_mapping.o (symbol from plugin)
pwmInit                                           obj/main/CC3D/drivers/pwm_mapping.o (symbol from plugin)
                                                  obj/main/CC3D/main.o (symbol from plugin)
pwmMotorsEnabled.lto_priv.364                     /tmp/ccZkfwo0.ltrans19.ltrans.o
                                                  /tmp/ccZkfwo0.ltrans1.ltrans.o
pwmMultiShotMotorConfig                           obj/main/CC3D/drivers/pwm_output.o (symbol from plugin)
                                                  obj/main/CC3D/drivers/pwm_mapping.o (symbol from plugin)
pwmOneshotMotorConfig                             obj/main/CC3D/drivers/pwm_output.o (symbol from plugin)
                                                  obj/main/CC3D/drivers/pwm_mapping.o (symbol from plugin)
pwmOutConfig.lto_priv.534                         /tmp/ccZkfwo0.ltrans6.ltrans.o
                                                  /tmp/ccZkfwo0.ltrans0.ltrans.o
pwmOutputConfiguration.lto_priv.494               /tmp/ccZkfwo0.ltrans1.ltrans.o
                                                  /tmp/ccZkfwo0.ltrans0.ltrans.o
pwmOverflowCallback.lto_priv.502                  /tmp/ccZkfwo0.ltrans6.ltrans.o
                                                  /tmp/ccZkfwo0.ltrans0.ltrans.o
pwmRead                                           obj/main/CC3D/drivers/pwm_rx.o (symbol from plugin)
                                                  obj/main/CC3D/rx/pwm.o (symbol from plugin)
pwmReadRawRC.lto_priv.480                         /tmp/ccZkfwo0.ltrans16.ltrans.o
                                                  /tmp/ccZkfwo0.ltrans0.ltrans.o
pwmRxInit                                         obj/main/CC3D/drivers/pwm_rx.o (symbol from plugin)
                                                  obj/main/CC3D/main.o (symbol from plugin)
pwmServoConfig                                    obj/main/CC3D/drivers/pwm_output.o (symbol from plugin)
                                                  obj/main/CC3D/drivers/pwm_mapping.o (symbol from plugin)
pwmShutdownPulsesForAllMotors                     obj/main/CC3D/drivers/pwm_output.o (symbol from plugin)
                                                  obj/main/CC3D/flight/mixer.o (symbol from plugin)
pwmWriteBrushed.lto_priv.497                      /tmp/ccZkfwo0.ltrans6.ltrans.o
                                                  /tmp/ccZkfwo0.ltrans0.ltrans.o
pwmWriteMotor                                     obj/main/CC3D/drivers/pwm_output.o (symbol from plugin)
                                                  obj/main/CC3D/flight/mixer.o (symbol from plugin)
pwmWriteMultiShot.lto_priv.500                    /tmp/ccZkfwo0.ltrans6.ltrans.o
                                                  /tmp/ccZkfwo0.ltrans0.ltrans.o
pwmWriteOneshot125.lto_priv.499                   /tmp/ccZkfwo0.ltrans6.ltrans.o
                                                  /tmp/ccZkfwo0.ltrans0.ltrans.o
pwmWriteOneshot42.lto_priv.498                    /tmp/ccZkfwo0.ltrans6.ltrans.o
                                                  /tmp/ccZkfwo0.ltrans0.ltrans.o
pwmWriteServo                                     /tmp/ccZkfwo0.ltrans6.ltrans.o
                                                  obj/main/CC3D/drivers/pwm_output.o (symbol from plugin)
                                                  /tmp/ccZkfwo0.ltrans21.ltrans.o
                                                  obj/main/CC3D/flight/mixer.o (symbol from plugin)
pwmWriteStandard.lto_priv.496                     /tmp/ccZkfwo0.ltrans6.ltrans.o
                                                  /tmp/ccZkfwo0.ltrans0.ltrans.o
q0.lto_priv.410                                   /tmp/ccZkfwo0.ltrans19.ltrans.o
                                                  /tmp/ccZkfwo0.ltrans23.ltrans.o
q1.lto_priv.411                                   /tmp/ccZkfwo0.ltrans19.ltrans.o
                                                  /tmp/ccZkfwo0.ltrans23.ltrans.o
q2.lto_priv.412                                   /tmp/ccZkfwo0.ltrans19.ltrans.o
                                                  /tmp/ccZkfwo0.ltrans23.ltrans.o
q3.lto_priv.413                                   /tmp/ccZkfwo0.ltrans19.ltrans.o
                                                  /tmp/ccZkfwo0.ltrans23.ltrans.o
qConstruct                                        obj/main/CC3D/common/maths.o (symbol from plugin)
                                                  obj/main/CC3D/sensors/battery.o (symbol from plugin)
                                                  obj/main/CC3D/flight/mixer.o (symbol from plugin)
                                                  obj/main/CC3D/mw.o (symbol from plugin)
qMultiply                                         obj/main/CC3D/common/maths.o (symbol from plugin)
                                                  obj/main/CC3D/flight/mixer.o (symbol from plugin)
                                                  obj/main/CC3D/mw.o (symbol from plugin)
qPercent                                          obj/main/CC3D/common/maths.o (symbol from plugin)
queueAdd                                          /tmp/ccZkfwo0.ltrans18.ltrans.o
                                                  obj/main/CC3D/scheduler.o (symbol from plugin)
                                                  /tmp/ccZkfwo0.ltrans0.ltrans.o
queueClear                                        obj/main/CC3D/scheduler.o (symbol from plugin)
queueContains                                     obj/main/CC3D/scheduler.o (symbol from plugin)
queueFirst                                        obj/main/CC3D/scheduler.o (symbol from plugin)
queueNext                                         obj/main/CC3D/scheduler.o (symbol from plugin)
queueRemove                                       obj/main/CC3D/scheduler.o (symbol from plugin)
quickMedianFilter3                                obj/main/CC3D/common/maths.o (symbol from plugin)
quickMedianFilter3f                               obj/main/CC3D/common/maths.o (symbol from plugin)
quickMedianFilter5                                obj/main/CC3D/common/maths.o (symbol from plugin)
quickMedianFilter5f                               obj/main/CC3D/common/maths.o (symbol from plugin)
quickMedianFilter7                                obj/main/CC3D/common/maths.o (symbol from plugin)
quickMedianFilter7f                               obj/main/CC3D/common/maths.o (symbol from plugin)
quickMedianFilter9                                obj/main/CC3D/common/maths.o (symbol from plugin)
quickMedianFilter9f                               obj/main/CC3D/common/maths.o (symbol from plugin)
rMat.lto_priv.409                                 /tmp/ccZkfwo0.ltrans19.ltrans.o
                                                  /tmp/ccZkfwo0.ltrans23.ltrans.o
                                                  /tmp/ccZkfwo0.ltrans2.ltrans.o
rcAliasToAngleIndexMap                            obj/main/CC3D/flight/pid.o (symbol from plugin)
rcChannelLetters                                  /tmp/ccZkfwo0.ltrans24.ltrans.o
                                                  obj/main/CC3D/rx/rx.o (symbol from plugin)
                                                  /tmp/ccZkfwo0.ltrans25.ltrans.o
                                                  /tmp/ccZkfwo0.ltrans11.ltrans.o
                                                  obj/main/CC3D/io/serial_cli.o (symbol from plugin)
rcCommand                                         /tmp/ccZkfwo0.ltrans19.ltrans.o
                                                  obj/main/CC3D/io/rc_controls.o (symbol from plugin)
                                                  /tmp/ccZkfwo0.ltrans27.ltrans.o
                                                  /tmp/ccZkfwo0.ltrans22.ltrans.o
                                                  /tmp/ccZkfwo0.ltrans9.ltrans.o
                                                  /tmp/ccZkfwo0.ltrans5.ltrans.o
                                                  /tmp/ccZkfwo0.ltrans4.ltrans.o
                                                  /tmp/ccZkfwo0.ltrans3.ltrans.o
                                                  /tmp/ccZkfwo0.ltrans2.ltrans.o
                                                  obj/main/CC3D/sensors/battery.o (symbol from plugin)
                                                  obj/main/CC3D/flight/mixer.o (symbol from plugin)
                                                  obj/main/CC3D/flight/pid.o (symbol from plugin)
                                                  obj/main/CC3D/mw.o (symbol from plugin)
                                                  obj/main/CC3D/blackbox/blackbox.o (symbol from plugin)
                                                  obj/main/CC3D/telemetry/frsky.o (symbol from plugin)
                                                  obj/main/CC3D/io/ledstrip.o (symbol from plugin)
rcData                                            /tmp/ccZkfwo0.ltrans16.ltrans.o
                                                  obj/main/CC3D/rx/rx.o (symbol from plugin)
                                                  /tmp/ccZkfwo0.ltrans21.ltrans.o
                                                  /tmp/ccZkfwo0.ltrans19.ltrans.o
                                                  /tmp/ccZkfwo0.ltrans9.ltrans.o
                                                  /tmp/ccZkfwo0.ltrans8.ltrans.o
                                                  /tmp/ccZkfwo0.ltrans3.ltrans.o
                                                  /tmp/ccZkfwo0.ltrans2.ltrans.o
                                                  /tmp/ccZkfwo0.ltrans1.ltrans.o
                                                  /tmp/ccZkfwo0.ltrans0.ltrans.o
                                                  obj/main/CC3D/io/serial_msp.o (symbol from plugin)
                                                  obj/main/CC3D/io/rc_controls.o (symbol from plugin)
                                                  obj/main/CC3D/flight/mixer.o (symbol from plugin)
                                                  obj/main/CC3D/flight/failsafe.o (symbol from plugin)
                                                  obj/main/CC3D/mw.o (symbol from plugin)
                                                  obj/main/CC3D/io/ledstrip.o (symbol from plugin)
rcFrameComplete.lto_priv.349                      /tmp/ccZkfwo0.ltrans16.ltrans.o
                                                  /tmp/ccZkfwo0.ltrans22.ltrans.o
rcInvalidPulsPeriod                               /tmp/ccZkfwo0.ltrans3.ltrans.o
                                                  obj/main/CC3D/rx/rx.o (symbol from plugin)
                                                  /tmp/ccZkfwo0.ltrans0.ltrans.o
rcModeActivationMask                              /tmp/ccZkfwo0.ltrans16.ltrans.o
                                                  obj/main/CC3D/io/rc_controls.o (symbol from plugin)
                                                  /tmp/ccZkfwo0.ltrans27.ltrans.o
                                                  /tmp/ccZkfwo0.ltrans22.ltrans.o
                                                  /tmp/ccZkfwo0.ltrans21.ltrans.o
                                                  /tmp/ccZkfwo0.ltrans19.ltrans.o
                                                  /tmp/ccZkfwo0.ltrans12.ltrans.o
                                                  /tmp/ccZkfwo0.ltrans9.ltrans.o
                                                  /tmp/ccZkfwo0.ltrans8.ltrans.o
                                                  /tmp/ccZkfwo0.ltrans5.ltrans.o
                                                  /tmp/ccZkfwo0.ltrans3.ltrans.o
                                                  /tmp/ccZkfwo0.ltrans2.ltrans.o
                                                  obj/main/CC3D/rx/rx.o (symbol from plugin)
                                                  obj/main/CC3D/io/serial_msp.o (symbol from plugin)
                                                  obj/main/CC3D/io/rc_curves.o (symbol from plugin)
                                                  obj/main/CC3D/io/beeper.o (symbol from plugin)
                                                  obj/main/CC3D/flight/mixer.o (symbol from plugin)
                                                  obj/main/CC3D/flight/pid.o (symbol from plugin)
                                                  obj/main/CC3D/flight/failsafe.o (symbol from plugin)
                                                  obj/main/CC3D/mw.o (symbol from plugin)
                                                  obj/main/CC3D/blackbox/blackbox.o (symbol from plugin)
                                                  obj/main/CC3D/telemetry/telemetry.o (symbol from plugin)
                                                  obj/main/CC3D/io/ledstrip.o (symbol from plugin)
rcRaw                                             obj/main/CC3D/rx/rx.o (symbol from plugin)
rcReadRawFunc.lto_priv.321                        /tmp/ccZkfwo0.ltrans24.ltrans.o
                                                  /tmp/ccZkfwo0.ltrans3.ltrans.o
                                                  /tmp/ccZkfwo0.ltrans0.ltrans.o
rcSampleIndex.lto_priv.457                        /tmp/ccZkfwo0.ltrans3.ltrans.o
                                                  /tmp/ccZkfwo0.ltrans0.ltrans.o
read16.lto_priv.391                               /tmp/ccZkfwo0.ltrans16.ltrans.o
                                                  /tmp/ccZkfwo0.ltrans1.ltrans.o
read32.lto_priv.392                               /tmp/ccZkfwo0.ltrans16.ltrans.o
                                                  /tmp/ccZkfwo0.ltrans1.ltrans.o
read8.lto_priv.390                                /tmp/ccZkfwo0.ltrans16.ltrans.o
                                                  /tmp/ccZkfwo0.ltrans1.ltrans.o
readEEPROM                                        /tmp/ccZkfwo0.ltrans14.ltrans.o
                                                  obj/main/CC3D/config/config.o (symbol from plugin)
                                                  /tmp/ccZkfwo0.ltrans25.ltrans.o
                                                  /tmp/ccZkfwo0.ltrans18.ltrans.o
                                                  /tmp/ccZkfwo0.ltrans1.ltrans.o
                                                  /tmp/ccZkfwo0.ltrans0.ltrans.o
                                                  obj/main/CC3D/io/serial_msp.o (symbol from plugin)
                                                  obj/main/CC3D/io/serial_cli.o (symbol from plugin)
                                                  obj/main/CC3D/main.o (symbol from plugin)
readEEPROMAndNotify                               obj/main/CC3D/config/config.o (symbol from plugin)
read_p.lto_priv.588                               /tmp/ccZkfwo0.ltrans15.ltrans.o
                                                  /tmp/ccZkfwo0.ltrans20.ltrans.o
reading.lto_priv.586                              /tmp/ccZkfwo0.ltrans15.ltrans.o
                                                  /tmp/ccZkfwo0.ltrans20.ltrans.o
receiveBuffer                                     /tmp/ccZkfwo0.ltrans24.ltrans.o
                                                  obj/main/CC3D/vcp/hw_config.o (symbol from plugin)
                                                  /tmp/ccZkfwo0.ltrans26.ltrans.o
                                                  obj/main/CC3D/vcp/usb_endp.o (symbol from plugin)
receiveLength                                     /tmp/ccZkfwo0.ltrans24.ltrans.o
                                                  obj/main/CC3D/vcp/usb_endp.o (symbol from plugin)
                                                  /tmp/ccZkfwo0.ltrans26.ltrans.o
                                                  obj/main/CC3D/drivers/serial_usb_vcp.o (symbol from plugin)
                                                  obj/main/CC3D/vcp/hw_config.o (symbol from plugin)
reconfigureAlignment                              obj/main/CC3D/sensors/initialisation.o (symbol from plugin)
reevalulateLedConfig                              /tmp/ccZkfwo0.ltrans12.ltrans.o
                                                  obj/main/CC3D/io/ledstrip.o (symbol from plugin)
                                                  /tmp/ccZkfwo0.ltrans14.ltrans.o
                                                  /tmp/ccZkfwo0.ltrans11.ltrans.o
                                                  /tmp/ccZkfwo0.ltrans1.ltrans.o
                                                  /tmp/ccZkfwo0.ltrans0.ltrans.o
                                                  obj/main/CC3D/io/serial_msp.o (symbol from plugin)
reg.lto_priv.584                                  /tmp/ccZkfwo0.ltrans15.ltrans.o
                                                  /tmp/ccZkfwo0.ltrans20.ltrans.o
registerExtiCallbackHandler                       obj/main/CC3D/drivers/system.o (symbol from plugin)
                                                  obj/main/CC3D/drivers/accgyro_mpu.o (symbol from plugin)
releaseSharedTelemetryPorts                       obj/main/CC3D/mw.o (symbol from plugin)
remotewakeupon                                    obj/main/CC3D/vcp/usb_pwr.o (symbol from plugin)
rescheduleTask                                    obj/main/CC3D/scheduler.o (symbol from plugin)
                                                  obj/main/CC3D/main.o (symbol from plugin)
resetAdjustmentStates                             obj/main/CC3D/io/rc_controls.o (symbol from plugin)
                                                  obj/main/CC3D/config/config.o (symbol from plugin)
resetAllRxChannelRangeConfigurations              obj/main/CC3D/rx/rx.o (symbol from plugin)
                                                  obj/main/CC3D/io/serial_cli.o (symbol from plugin)
                                                  obj/main/CC3D/config/config.o (symbol from plugin)
resetBarometerConfig                              obj/main/CC3D/config/config.o (symbol from plugin)
resetBatteryConfig                                obj/main/CC3D/config/config.o (symbol from plugin)
resetConf.lto_priv.238                            /tmp/ccZkfwo0.ltrans14.ltrans.o
                                                  /tmp/ccZkfwo0.ltrans25.ltrans.o
                                                  /tmp/ccZkfwo0.ltrans1.ltrans.o
                                                  /tmp/ccZkfwo0.ltrans0.ltrans.o
resetEEPROM                                       obj/main/CC3D/config/config.o (symbol from plugin)
                                                  obj/main/CC3D/io/serial_msp.o (symbol from plugin)
                                                  obj/main/CC3D/io/serial_cli.o (symbol from plugin)
resetEscAndServoConfig                            obj/main/CC3D/config/config.o (symbol from plugin)
resetFlight3DConfig                               obj/main/CC3D/config/config.o (symbol from plugin)
resetMixerConfig                                  obj/main/CC3D/config/config.o (symbol from plugin)
resetPPMDataReceivedState                         obj/main/CC3D/drivers/pwm_rx.o (symbol from plugin)
                                                  obj/main/CC3D/rx/rx.o (symbol from plugin)
resetRcControlsConfig                             obj/main/CC3D/config/config.o (symbol from plugin)
resetRollAndPitchTrims                            obj/main/CC3D/sensors/acceleration.o (symbol from plugin)
                                                  obj/main/CC3D/config/config.o (symbol from plugin)
resetSensorAlignment                              obj/main/CC3D/config/config.o (symbol from plugin)
resetSerialConfig                                 obj/main/CC3D/config/config.o (symbol from plugin)
resetSerialConfig.constprop.92                    /tmp/ccZkfwo0.ltrans24.ltrans.o
                                                  /tmp/ccZkfwo0.ltrans14.ltrans.o
resetTelemetryConfig                              obj/main/CC3D/config/config.o (symbol from plugin)
resumeRxSignal                                    /tmp/ccZkfwo0.ltrans16.ltrans.o
                                                  obj/main/CC3D/rx/rx.o (symbol from plugin)
                                                  /tmp/ccZkfwo0.ltrans18.ltrans.o
                                                  /tmp/ccZkfwo0.ltrans14.ltrans.o
                                                  obj/main/CC3D/config/config.o (symbol from plugin)
rotateV                                           obj/main/CC3D/common/maths.o (symbol from plugin)
rssi                                              /tmp/ccZkfwo0.ltrans4.ltrans.o
                                                  obj/main/CC3D/rx/rx.o (symbol from plugin)
                                                  /tmp/ccZkfwo0.ltrans5.ltrans.o
                                                  /tmp/ccZkfwo0.ltrans3.ltrans.o
                                                  /tmp/ccZkfwo0.ltrans1.ltrans.o
                                                  obj/main/CC3D/io/serial_msp.o (symbol from plugin)
                                                  obj/main/CC3D/blackbox/blackbox.o (symbol from plugin)
                                                  obj/main/CC3D/telemetry/ltm.o (symbol from plugin)
rxAreFlightChannelsValid                          obj/main/CC3D/rx/rx.o (symbol from plugin)
                                                  obj/main/CC3D/blackbox/blackbox.o (symbol from plugin)
rxConfig.lto_priv.316                             /tmp/ccZkfwo0.ltrans3.ltrans.o
                                                  /tmp/ccZkfwo0.ltrans0.ltrans.o
rxConfig.lto_priv.317                             /tmp/ccZkfwo0.ltrans16.ltrans.o
                                                  /tmp/ccZkfwo0.ltrans22.ltrans.o
                                                  /tmp/ccZkfwo0.ltrans14.ltrans.o
                                                  /tmp/ccZkfwo0.ltrans3.ltrans.o
                                                  /tmp/ccZkfwo0.ltrans0.ltrans.o
rxConfig.lto_priv.545                             /tmp/ccZkfwo0.ltrans2.ltrans.o
                                                  /tmp/ccZkfwo0.ltrans14.ltrans.o
rxFlightChannelsValid.lto_priv.561                /tmp/ccZkfwo0.ltrans3.ltrans.o
                                                  /tmp/ccZkfwo0.ltrans5.ltrans.o
rxInit                                            obj/main/CC3D/rx/rx.o (symbol from plugin)
                                                  obj/main/CC3D/main.o (symbol from plugin)
rxIsInFailsafeMode.lto_priv.327                   /tmp/ccZkfwo0.ltrans3.ltrans.o
                                                  /tmp/ccZkfwo0.ltrans22.ltrans.o
rxIsInFailsafeModeNotDataDriven.lto_priv.329      /tmp/ccZkfwo0.ltrans3.ltrans.o
                                                  /tmp/ccZkfwo0.ltrans22.ltrans.o
rxIsReceivingSignal                               obj/main/CC3D/rx/rx.o (symbol from plugin)
                                                  obj/main/CC3D/io/rc_controls.o (symbol from plugin)
                                                  obj/main/CC3D/blackbox/blackbox.o (symbol from plugin)
                                                  obj/main/CC3D/io/ledstrip.o (symbol from plugin)
rxMspFrameComplete                                obj/main/CC3D/rx/msp.o (symbol from plugin)
                                                  obj/main/CC3D/rx/rx.o (symbol from plugin)
rxMspFrameDone.lto_priv.372                       /tmp/ccZkfwo0.ltrans22.ltrans.o
                                                  /tmp/ccZkfwo0.ltrans1.ltrans.o
rxMspFrameReceive                                 obj/main/CC3D/rx/msp.o (symbol from plugin)
                                                  obj/main/CC3D/io/serial_msp.o (symbol from plugin)
rxMspInit                                         obj/main/CC3D/rx/msp.o (symbol from plugin)
                                                  obj/main/CC3D/rx/rx.o (symbol from plugin)
rxMspReadRawRC.lto_priv.479                       /tmp/ccZkfwo0.ltrans16.ltrans.o
                                                  /tmp/ccZkfwo0.ltrans0.ltrans.o
rxPwmInit                                         obj/main/CC3D/rx/pwm.o (symbol from plugin)
                                                  obj/main/CC3D/rx/rx.o (symbol from plugin)
rxRefreshRate.lto_priv.458                        /tmp/ccZkfwo0.ltrans2.ltrans.o
                                                  /tmp/ccZkfwo0.ltrans0.ltrans.o
rxRuntimeConfig                                   /tmp/ccZkfwo0.ltrans24.ltrans.o
                                                  obj/main/CC3D/rx/rx.o (symbol from plugin)
                                                  /tmp/ccZkfwo0.ltrans19.ltrans.o
                                                  /tmp/ccZkfwo0.ltrans16.ltrans.o
                                                  /tmp/ccZkfwo0.ltrans3.ltrans.o
                                                  /tmp/ccZkfwo0.ltrans1.ltrans.o
                                                  /tmp/ccZkfwo0.ltrans0.ltrans.o
                                                  obj/main/CC3D/io/serial_msp.o (symbol from plugin)
                                                  obj/main/CC3D/flight/mixer.o (symbol from plugin)
rxRuntimeConfigPtr.lto_priv.352                   /tmp/ccZkfwo0.ltrans24.ltrans.o
                                                  /tmp/ccZkfwo0.ltrans22.ltrans.o
rxSignalReceived.lto_priv.313                     /tmp/ccZkfwo0.ltrans9.ltrans.o
                                                  /tmp/ccZkfwo0.ltrans22.ltrans.o
                                                  /tmp/ccZkfwo0.ltrans5.ltrans.o
                                                  /tmp/ccZkfwo0.ltrans3.ltrans.o
rxSignalReceivedNotDataDriven.lto_priv.328        /tmp/ccZkfwo0.ltrans3.ltrans.o
                                                  /tmp/ccZkfwo0.ltrans22.ltrans.o
rxUpdateAt.lto_priv.326                           /tmp/ccZkfwo0.ltrans3.ltrans.o
                                                  /tmp/ccZkfwo0.ltrans22.ltrans.o
saveConfigAndNotify                               /tmp/ccZkfwo0.ltrans18.ltrans.o
                                                  obj/main/CC3D/config/config.o (symbol from plugin)
                                                  /tmp/ccZkfwo0.ltrans28.ltrans.o
                                                  /tmp/ccZkfwo0.ltrans23.ltrans.o
                                                  /tmp/ccZkfwo0.ltrans3.ltrans.o
                                                  /tmp/ccZkfwo0.ltrans0.ltrans.o
                                                  obj/main/CC3D/sensors/compass.o (symbol from plugin)
                                                  obj/main/CC3D/sensors/acceleration.o (symbol from plugin)
                                                  obj/main/CC3D/rx/spektrum.o (symbol from plugin)
                                                  obj/main/CC3D/io/rc_controls.o (symbol from plugin)
                                                  obj/main/CC3D/mw.o (symbol from plugin)
sbusChannelData.lto_priv.348                      /tmp/ccZkfwo0.ltrans16.ltrans.o
                                                  /tmp/ccZkfwo0.ltrans22.ltrans.o
                                                  /tmp/ccZkfwo0.ltrans0.ltrans.o
sbusDataReceive.lto_priv.460                      /tmp/ccZkfwo0.ltrans16.ltrans.o
                                                  /tmp/ccZkfwo0.ltrans0.ltrans.o
sbusFrame.lto_priv.347                            /tmp/ccZkfwo0.ltrans16.ltrans.o
                                                  /tmp/ccZkfwo0.ltrans22.ltrans.o
sbusFrameDone.lto_priv.346                        /tmp/ccZkfwo0.ltrans16.ltrans.o
                                                  /tmp/ccZkfwo0.ltrans22.ltrans.o
sbusFrameStatus                                   obj/main/CC3D/rx/sbus.o (symbol from plugin)
                                                  obj/main/CC3D/rx/rx.o (symbol from plugin)
sbusInit                                          obj/main/CC3D/rx/sbus.o (symbol from plugin)
                                                  obj/main/CC3D/rx/rx.o (symbol from plugin)
sbusReadRawRC.lto_priv.459                        /tmp/ccZkfwo0.ltrans16.ltrans.o
                                                  /tmp/ccZkfwo0.ltrans0.ltrans.o
scalbnf                                           /usr/bin/../lib/gcc/arm-none-eabi/4.9.3/../../../../arm-none-eabi/lib/armv7-m/libm.a(lib_a-sf_scalbn.o)
                                                  /usr/bin/../lib/gcc/arm-none-eabi/4.9.3/../../../../arm-none-eabi/lib/armv7-m/libm.a(lib_a-kf_rem_pio2.o)
scaleLedValue                                     obj/main/CC3D/drivers/light_ws2811strip.o (symbol from plugin)
scaleRange                                        obj/main/CC3D/common/maths.o (symbol from plugin)
                                                  obj/main/CC3D/rx/rx.o (symbol from plugin)
                                                  obj/main/CC3D/flight/mixer.o (symbol from plugin)
                                                  obj/main/CC3D/io/ledstrip.o (symbol from plugin)
scaleRcCommandToFpvCamAngle                       obj/main/CC3D/mw.o (symbol from plugin)
scheduler                                         obj/main/CC3D/scheduler.o (symbol from plugin)
                                                  obj/main/CC3D/main.o (symbol from plugin)
schedulerInit                                     obj/main/CC3D/scheduler.o (symbol from plugin)
                                                  obj/main/CC3D/main.o (symbol from plugin)
sectionTimes                                      obj/main/CC3D/debug.o (symbol from plugin)
selectMPUIntExtiConfig                            obj/main/CC3D/sensors/initialisation.o (symbol from plugin)
selected_esc                                      /tmp/ccZkfwo0.ltrans8.ltrans.o
                                                  obj/main/CC3D/io/serial_4way.o (symbol from plugin)
                                                  /tmp/ccZkfwo0.ltrans1.ltrans.o
                                                  obj/main/CC3D/io/serial_4way_stk500v2.o (symbol from plugin)
                                                  obj/main/CC3D/io/serial_4way_avrootloader.o (symbol from plugin)
sendDataHead.lto_priv.303                         /tmp/ccZkfwo0.ltrans12.ltrans.o
                                                  /tmp/ccZkfwo0.ltrans4.ltrans.o
sendFieldDefinition.lto_priv.422                  /tmp/ccZkfwo0.ltrans5.ltrans.o
                                                  /tmp/ccZkfwo0.ltrans2.ltrans.o
sendLength                                        obj/main/CC3D/vcp/hw_config.o (symbol from plugin)
sendTelemetryTail.lto_priv.301                    /tmp/ccZkfwo0.ltrans12.ltrans.o
                                                  /tmp/ccZkfwo0.ltrans4.ltrans.o
sensors                                           obj/main/CC3D/config/runtime_config.o (symbol from plugin)
                                                  obj/main/CC3D/sensors/initialisation.o (symbol from plugin)
                                                  obj/main/CC3D/io/serial_msp.o (symbol from plugin)
                                                  obj/main/CC3D/flight/imu.o (symbol from plugin)
                                                  obj/main/CC3D/mw.o (symbol from plugin)
                                                  obj/main/CC3D/main.o (symbol from plugin)
                                                  obj/main/CC3D/blackbox/blackbox.o (symbol from plugin)
                                                  obj/main/CC3D/telemetry/smartport.o (symbol from plugin)
sensorsAutodetect                                 obj/main/CC3D/sensors/initialisation.o (symbol from plugin)
                                                  obj/main/CC3D/main.o (symbol from plugin)
sensorsClear                                      obj/main/CC3D/config/runtime_config.o (symbol from plugin)
sensorsMask                                       obj/main/CC3D/config/runtime_config.o (symbol from plugin)
                                                  obj/main/CC3D/io/serial_cli.o (symbol from plugin)
sensorsSet                                        obj/main/CC3D/config/runtime_config.o (symbol from plugin)
                                                  obj/main/CC3D/sensors/initialisation.o (symbol from plugin)
serialBeginWrite                                  /tmp/ccZkfwo0.ltrans19.ltrans.o
                                                  obj/main/CC3D/drivers/serial.o (symbol from plugin)
                                                  /tmp/ccZkfwo0.ltrans16.ltrans.o
                                                  /tmp/ccZkfwo0.ltrans1.ltrans.o
                                                  obj/main/CC3D/io/serial_msp.o (symbol from plugin)
                                                  obj/main/CC3D/io/serial_4way.o (symbol from plugin)
serialConfig.lto_priv.271                         /tmp/ccZkfwo0.ltrans24.ltrans.o
                                                  /tmp/ccZkfwo0.ltrans8.ltrans.o
                                                  /tmp/ccZkfwo0.ltrans1.ltrans.o
                                                  /tmp/ccZkfwo0.ltrans0.ltrans.o
serialEndWrite                                    /tmp/ccZkfwo0.ltrans19.ltrans.o
                                                  obj/main/CC3D/drivers/serial.o (symbol from plugin)
                                                  /tmp/ccZkfwo0.ltrans16.ltrans.o
                                                  /tmp/ccZkfwo0.ltrans1.ltrans.o
                                                  obj/main/CC3D/io/serial_msp.o (symbol from plugin)
                                                  obj/main/CC3D/io/serial_4way.o (symbol from plugin)
serialFindPortConfiguration                       /tmp/ccZkfwo0.ltrans8.ltrans.o
                                                  obj/main/CC3D/io/serial.o (symbol from plugin)
                                                  /tmp/ccZkfwo0.ltrans10.ltrans.o
                                                  /tmp/ccZkfwo0.ltrans1.ltrans.o
                                                  /tmp/ccZkfwo0.ltrans0.ltrans.o
                                                  obj/main/CC3D/io/serial_msp.o (symbol from plugin)
                                                  obj/main/CC3D/io/serial_cli.o (symbol from plugin)
serialGetAvailablePortCount                       obj/main/CC3D/io/serial.o (symbol from plugin)
                                                  obj/main/CC3D/io/serial_msp.o (symbol from plugin)
serialGetBaudRate                                 obj/main/CC3D/drivers/serial.o (symbol from plugin)
serialICConfig.lto_priv.577                       /tmp/ccZkfwo0.ltrans6.ltrans.o
                                                  /tmp/ccZkfwo0.ltrans13.ltrans.o
serialInit                                        obj/main/CC3D/io/serial.o (symbol from plugin)
                                                  obj/main/CC3D/main.o (symbol from plugin)
serialInputPortConfig                             obj/main/CC3D/drivers/serial_softserial.o (symbol from plugin)
serialIsPortAvailable                             obj/main/CC3D/io/serial.o (symbol from plugin)
                                                  obj/main/CC3D/io/serial_msp.o (symbol from plugin)
                                                  obj/main/CC3D/io/serial_cli.o (symbol from plugin)
serialPassthrough                                 obj/main/CC3D/io/serial.o (symbol from plugin)
                                                  obj/main/CC3D/io/serial_cli.o (symbol from plugin)
serialPortCount.lto_priv.506                      /tmp/ccZkfwo0.ltrans1.ltrans.o
                                                  /tmp/ccZkfwo0.ltrans0.ltrans.o
serialPortIdentifiers                             /tmp/ccZkfwo0.ltrans24.ltrans.o
                                                  obj/main/CC3D/io/serial.o (symbol from plugin)
                                                  /tmp/ccZkfwo0.ltrans0.ltrans.o
                                                  obj/main/CC3D/config/config.o (symbol from plugin)
serialPortUsageList.lto_priv.263                  /tmp/ccZkfwo0.ltrans24.ltrans.o
                                                  /tmp/ccZkfwo0.ltrans10.ltrans.o
                                                  /tmp/ccZkfwo0.ltrans8.ltrans.o
                                                  /tmp/ccZkfwo0.ltrans1.ltrans.o
                                                  /tmp/ccZkfwo0.ltrans0.ltrans.o
serialPrint                                       obj/main/CC3D/drivers/serial.o (symbol from plugin)
serialRead                                        /tmp/ccZkfwo0.ltrans19.ltrans.o
                                                  obj/main/CC3D/drivers/serial.o (symbol from plugin)
                                                  /tmp/ccZkfwo0.ltrans12.ltrans.o
                                                  /tmp/ccZkfwo0.ltrans10.ltrans.o
                                                  /tmp/ccZkfwo0.ltrans8.ltrans.o
                                                  /tmp/ccZkfwo0.ltrans4.ltrans.o
                                                  /tmp/ccZkfwo0.ltrans1.ltrans.o
                                                  obj/main/CC3D/io/serial_msp.o (symbol from plugin)
                                                  obj/main/CC3D/io/serial_cli.o (symbol from plugin)
                                                  obj/main/CC3D/io/serial_4way.o (symbol from plugin)
                                                  obj/main/CC3D/io/serial.o (symbol from plugin)
                                                  obj/main/CC3D/telemetry/smartport.o (symbol from plugin)
                                                  obj/main/CC3D/telemetry/hott.o (symbol from plugin)
serialRemovePort                                  obj/main/CC3D/io/serial.o (symbol from plugin)
serialRxBytesWaiting                              /tmp/ccZkfwo0.ltrans19.ltrans.o
                                                  obj/main/CC3D/drivers/serial.o (symbol from plugin)
                                                  /tmp/ccZkfwo0.ltrans12.ltrans.o
                                                  /tmp/ccZkfwo0.ltrans10.ltrans.o
                                                  /tmp/ccZkfwo0.ltrans8.ltrans.o
                                                  /tmp/ccZkfwo0.ltrans4.ltrans.o
                                                  /tmp/ccZkfwo0.ltrans1.ltrans.o
                                                  obj/main/CC3D/io/serial_msp.o (symbol from plugin)
                                                  obj/main/CC3D/io/serial_cli.o (symbol from plugin)
                                                  obj/main/CC3D/io/serial_4way.o (symbol from plugin)
                                                  obj/main/CC3D/io/serial.o (symbol from plugin)
                                                  obj/main/CC3D/telemetry/smartport.o (symbol from plugin)
                                                  obj/main/CC3D/telemetry/hott.o (symbol from plugin)
serialRxFrameStatus                               obj/main/CC3D/rx/rx.o (symbol from plugin)
serialRxInit                                      obj/main/CC3D/rx/rx.o (symbol from plugin)
serialSetBaudRate                                 obj/main/CC3D/drivers/serial.o (symbol from plugin)
serialSetMode                                     /tmp/ccZkfwo0.ltrans19.ltrans.o
                                                  obj/main/CC3D/drivers/serial.o (symbol from plugin)
                                                  /tmp/ccZkfwo0.ltrans10.ltrans.o
                                                  /tmp/ccZkfwo0.ltrans8.ltrans.o
                                                  /tmp/ccZkfwo0.ltrans4.ltrans.o
                                                  /tmp/ccZkfwo0.ltrans0.ltrans.o
                                                  obj/main/CC3D/rx/jetiexbus.o (symbol from plugin)
                                                  obj/main/CC3D/io/serial_cli.o (symbol from plugin)
                                                  obj/main/CC3D/io/serial.o (symbol from plugin)
                                                  obj/main/CC3D/telemetry/hott.o (symbol from plugin)
serialTxBytesFree                                 obj/main/CC3D/drivers/serial.o (symbol from plugin)
                                                  obj/main/CC3D/blackbox/blackbox_io.o (symbol from plugin)
serialUSART1                                      obj/main/CC3D/drivers/serial_uart_stm32f10x.o (symbol from plugin)
                                                  obj/main/CC3D/drivers/serial_uart.o (symbol from plugin)
serialUSART3                                      obj/main/CC3D/drivers/serial_uart_stm32f10x.o (symbol from plugin)
                                                  obj/main/CC3D/drivers/serial_uart.o (symbol from plugin)
serialWrite                                       /tmp/ccZkfwo0.ltrans19.ltrans.o
                                                  obj/main/CC3D/drivers/serial.o (symbol from plugin)
                                                  /tmp/ccZkfwo0.ltrans18.ltrans.o
                                                  /tmp/ccZkfwo0.ltrans14.ltrans.o
                                                  /tmp/ccZkfwo0.ltrans12.ltrans.o
                                                  /tmp/ccZkfwo0.ltrans10.ltrans.o
                                                  /tmp/ccZkfwo0.ltrans5.ltrans.o
                                                  /tmp/ccZkfwo0.ltrans4.ltrans.o
                                                  obj/main/CC3D/rx/jetiexbus.o (symbol from plugin)
                                                  obj/main/CC3D/io/serial.o (symbol from plugin)
                                                  obj/main/CC3D/common/printf.o (symbol from plugin)
                                                  obj/main/CC3D/blackbox/blackbox_io.o (symbol from plugin)
                                                  obj/main/CC3D/telemetry/ltm.o (symbol from plugin)
                                                  obj/main/CC3D/telemetry/smartport.o (symbol from plugin)
                                                  obj/main/CC3D/telemetry/hott.o (symbol from plugin)
                                                  obj/main/CC3D/telemetry/frsky.o (symbol from plugin)
serialWriteBuf                                    obj/main/CC3D/drivers/serial.o (symbol from plugin)
serialWriteBufShim                                /tmp/ccZkfwo0.ltrans19.ltrans.o
                                                  obj/main/CC3D/drivers/serial.o (symbol from plugin)
                                                  /tmp/ccZkfwo0.ltrans1.ltrans.o
                                                  obj/main/CC3D/io/serial_msp.o (symbol from plugin)
                                                  obj/main/CC3D/io/serial_cli.o (symbol from plugin)
serialize16.lto_priv.302                          /tmp/ccZkfwo0.ltrans12.ltrans.o
                                                  /tmp/ccZkfwo0.ltrans4.ltrans.o
serialize16.lto_priv.405                          /tmp/ccZkfwo0.ltrans16.ltrans.o
                                                  /tmp/ccZkfwo0.ltrans1.ltrans.o
serialize32.lto_priv.406                          /tmp/ccZkfwo0.ltrans16.ltrans.o
                                                  /tmp/ccZkfwo0.ltrans1.ltrans.o
serialize8.lto_priv.389                           /tmp/ccZkfwo0.ltrans16.ltrans.o
                                                  /tmp/ccZkfwo0.ltrans1.ltrans.o
servo                                             /tmp/ccZkfwo0.ltrans1.ltrans.o
                                                  obj/main/CC3D/flight/mixer.o (symbol from plugin)
                                                  /tmp/ccZkfwo0.ltrans21.ltrans.o
                                                  /tmp/ccZkfwo0.ltrans5.ltrans.o
                                                  /tmp/ccZkfwo0.ltrans2.ltrans.o
                                                  /tmp/ccZkfwo0.ltrans0.ltrans.o
                                                  obj/main/CC3D/io/serial_msp.o (symbol from plugin)
                                                  obj/main/CC3D/blackbox/blackbox.o (symbol from plugin)
servoConf.lto_priv.286                            /tmp/ccZkfwo0.ltrans11.ltrans.o
                                                  /tmp/ccZkfwo0.ltrans21.ltrans.o
                                                  /tmp/ccZkfwo0.ltrans19.ltrans.o
                                                  /tmp/ccZkfwo0.ltrans14.ltrans.o
                                                  /tmp/ccZkfwo0.ltrans2.ltrans.o
servoDirection                                    obj/main/CC3D/flight/mixer.o (symbol from plugin)
                                                  obj/main/CC3D/io/serial_cli.o (symbol from plugin)
servoMixerAirplane.lto_priv.531                   /tmp/ccZkfwo0.ltrans11.ltrans.o
servoMixerBI.lto_priv.528                         /tmp/ccZkfwo0.ltrans11.ltrans.o
servoMixerDual.lto_priv.532                       /tmp/ccZkfwo0.ltrans11.ltrans.o
servoMixerFlyingWing.lto_priv.530                 /tmp/ccZkfwo0.ltrans11.ltrans.o
servoMixerGimbal.lto_priv.529                     /tmp/ccZkfwo0.ltrans11.ltrans.o
servoMixerLoadMix                                 obj/main/CC3D/flight/mixer.o (symbol from plugin)
                                                  obj/main/CC3D/io/serial_cli.o (symbol from plugin)
servoMixerSingle.lto_priv.533                     /tmp/ccZkfwo0.ltrans11.ltrans.o
servoMixerTri.lto_priv.527                        /tmp/ccZkfwo0.ltrans11.ltrans.o
servoMixers                                       /tmp/ccZkfwo0.ltrans11.ltrans.o
                                                  obj/main/CC3D/flight/mixer.o (symbol from plugin)
                                                  /tmp/ccZkfwo0.ltrans0.ltrans.o
servoRuleCount.lto_priv.418                       /tmp/ccZkfwo0.ltrans19.ltrans.o
                                                  /tmp/ccZkfwo0.ltrans2.ltrans.o
                                                  /tmp/ccZkfwo0.ltrans0.ltrans.o
servos.lto_priv.580                               /tmp/ccZkfwo0.ltrans0.ltrans.o
                                                  /tmp/ccZkfwo0.ltrans6.ltrans.o
setAccelerationFilter                             obj/main/CC3D/sensors/acceleration.o (symbol from plugin)
                                                  obj/main/CC3D/config/config.o (symbol from plugin)
setAccelerationTrims                              obj/main/CC3D/sensors/acceleration.o (symbol from plugin)
                                                  obj/main/CC3D/config/config.o (symbol from plugin)
setBeeperOffMask                                  obj/main/CC3D/config/config.o (symbol from plugin)
                                                  obj/main/CC3D/io/serial_cli.o (symbol from plugin)
setEscHi                                          obj/main/CC3D/io/serial_4way.o (symbol from plugin)
                                                  obj/main/CC3D/io/serial_4way_stk500v2.o (symbol from plugin)
                                                  obj/main/CC3D/io/serial_4way_avrootloader.o (symbol from plugin)
setEscInput                                       obj/main/CC3D/io/serial_4way.o (symbol from plugin)
                                                  obj/main/CC3D/io/serial_4way_stk500v2.o (symbol from plugin)
                                                  obj/main/CC3D/io/serial_4way_avrootloader.o (symbol from plugin)
setEscLo                                          obj/main/CC3D/io/serial_4way.o (symbol from plugin)
                                                  obj/main/CC3D/io/serial_4way_stk500v2.o (symbol from plugin)
                                                  obj/main/CC3D/io/serial_4way_avrootloader.o (symbol from plugin)
setEscOutput                                      obj/main/CC3D/io/serial_4way.o (symbol from plugin)
                                                  obj/main/CC3D/io/serial_4way_stk500v2.o (symbol from plugin)
                                                  obj/main/CC3D/io/serial_4way_avrootloader.o (symbol from plugin)
setGyroSamplingSpeed                              /tmp/ccZkfwo0.ltrans16.ltrans.o
                                                  obj/main/CC3D/io/serial_msp.o (symbol from plugin)
                                                  /tmp/ccZkfwo0.ltrans1.ltrans.o
setLedHsv                                         obj/main/CC3D/drivers/light_ws2811strip.o (symbol from plugin)
                                                  obj/main/CC3D/io/ledstrip.o (symbol from plugin)
setLedValue                                       obj/main/CC3D/drivers/light_ws2811strip.o (symbol from plugin)
setPidUpdateCountDown                             obj/main/CC3D/mw.o (symbol from plugin)
setPreferedBeeperOffMask                          obj/main/CC3D/config/config.o (symbol from plugin)
                                                  obj/main/CC3D/io/serial_cli.o (symbol from plugin)
setPrintfSerialPort                               obj/main/CC3D/common/printf.o (symbol from plugin)
                                                  obj/main/CC3D/io/serial_cli.o (symbol from plugin)
setStripColor                                     obj/main/CC3D/drivers/light_ws2811strip.o (symbol from plugin)
                                                  obj/main/CC3D/io/ledstrip.o (symbol from plugin)
                                                  obj/main/CC3D/drivers/light_ws2811strip_stm32f10x.o (symbol from plugin)
setStripColors                                    obj/main/CC3D/drivers/light_ws2811strip.o (symbol from plugin)
setTargetPidLooptime                              obj/main/CC3D/flight/pid.o (symbol from plugin)
                                                  obj/main/CC3D/main.o (symbol from plugin)
setTaskEnabled                                    /tmp/ccZkfwo0.ltrans18.ltrans.o
                                                  obj/main/CC3D/scheduler.o (symbol from plugin)
                                                  /tmp/ccZkfwo0.ltrans0.ltrans.o
                                                  obj/main/CC3D/main.o (symbol from plugin)
setTxSignal                                       obj/main/CC3D/drivers/serial_softserial.o (symbol from plugin)
setVelocity                                       obj/main/CC3D/flight/altitudehold.o (symbol from plugin)
shortGitRevision                                  /tmp/ccZkfwo0.ltrans16.ltrans.o
                                                  obj/main/CC3D/version.o (symbol from plugin)
                                                  obj/main/CC3D/io/serial_msp.o (symbol from plugin)
                                                  obj/main/CC3D/io/serial_cli.o (symbol from plugin)
                                                  obj/main/CC3D/blackbox/blackbox.o (symbol from plugin)
shouldProcessRx                                   obj/main/CC3D/rx/rx.o (symbol from plugin)
                                                  obj/main/CC3D/mw.o (symbol from plugin)
shouldUpdateMotorsAfterPIDLoop                    /tmp/ccZkfwo0.ltrans21.ltrans.o
                                                  obj/main/CC3D/mw.o (symbol from plugin)
                                                  /tmp/ccZkfwo0.ltrans2.ltrans.o
sin_approx                                        /tmp/ccZkfwo0.ltrans18.ltrans.o
                                                  obj/main/CC3D/common/maths.o (symbol from plugin)
                                                  /tmp/ccZkfwo0.ltrans3.ltrans.o
                                                  /tmp/ccZkfwo0.ltrans2.ltrans.o
                                                  /tmp/ccZkfwo0.ltrans0.ltrans.o
                                                  obj/main/CC3D/flight/imu.o (symbol from plugin)
                                                  obj/main/CC3D/mw.o (symbol from plugin)
sinf                                              /usr/bin/../lib/gcc/arm-none-eabi/4.9.3/../../../../arm-none-eabi/lib/armv7-m/libm.a(lib_a-sf_sin.o)
                                                  /tmp/ccZkfwo0.ltrans18.ltrans.o
skipRxSamples.lto_priv.319                        /tmp/ccZkfwo0.ltrans16.ltrans.o
                                                  /tmp/ccZkfwo0.ltrans3.ltrans.o
smallAngleCosZ                                    /tmp/ccZkfwo0.ltrans23.ltrans.o
                                                  obj/main/CC3D/flight/imu.o (symbol from plugin)
                                                  /tmp/ccZkfwo0.ltrans0.ltrans.o
smartPortLastRequestTime.lto_priv.570             /tmp/ccZkfwo0.ltrans4.ltrans.o
                                                  /tmp/ccZkfwo0.ltrans12.ltrans.o
smartPortPortSharing.lto_priv.568                 /tmp/ccZkfwo0.ltrans0.ltrans.o
                                                  /tmp/ccZkfwo0.ltrans12.ltrans.o
smartPortSendByte.lto_priv.563                    /tmp/ccZkfwo0.ltrans12.ltrans.o
                                                  /tmp/ccZkfwo0.ltrans5.ltrans.o
smartPortSendPackage.lto_priv.307                 /tmp/ccZkfwo0.ltrans5.ltrans.o
                                                  /tmp/ccZkfwo0.ltrans4.ltrans.o
smartPortSerialPort.lto_priv.564                  /tmp/ccZkfwo0.ltrans4.ltrans.o
                                                  /tmp/ccZkfwo0.ltrans12.ltrans.o
smartPortState                                    /tmp/ccZkfwo0.ltrans4.ltrans.o
                                                  obj/main/CC3D/telemetry/smartport.o (symbol from plugin)
                                                  /tmp/ccZkfwo0.ltrans12.ltrans.o
smartPortTelemetryEnabled.lto_priv.569            /tmp/ccZkfwo0.ltrans4.ltrans.o
                                                  /tmp/ccZkfwo0.ltrans12.ltrans.o
softSerialPorts                                   obj/main/CC3D/drivers/serial_softserial.o (symbol from plugin)
softSerialReadByte                                /tmp/ccZkfwo0.ltrans13.ltrans.o
                                                  obj/main/CC3D/drivers/serial_softserial.o (symbol from plugin)
                                                  /tmp/ccZkfwo0.ltrans6.ltrans.o
softSerialRxBytesWaiting                          /tmp/ccZkfwo0.ltrans13.ltrans.o
                                                  obj/main/CC3D/drivers/serial_softserial.o (symbol from plugin)
                                                  /tmp/ccZkfwo0.ltrans6.ltrans.o
softSerialSetBaudRate                             /tmp/ccZkfwo0.ltrans13.ltrans.o
                                                  obj/main/CC3D/drivers/serial_softserial.o (symbol from plugin)
                                                  /tmp/ccZkfwo0.ltrans6.ltrans.o
softSerialSetMode                                 /tmp/ccZkfwo0.ltrans13.ltrans.o
                                                  obj/main/CC3D/drivers/serial_softserial.o (symbol from plugin)
                                                  /tmp/ccZkfwo0.ltrans6.ltrans.o
softSerialTxBytesFree                             /tmp/ccZkfwo0.ltrans13.ltrans.o
                                                  obj/main/CC3D/drivers/serial_softserial.o (symbol from plugin)
                                                  /tmp/ccZkfwo0.ltrans6.ltrans.o
softSerialVTable                                  obj/main/CC3D/drivers/serial_softserial.o (symbol from plugin)
softSerialWriteByte                               /tmp/ccZkfwo0.ltrans13.ltrans.o
                                                  obj/main/CC3D/drivers/serial_softserial.o (symbol from plugin)
                                                  /tmp/ccZkfwo0.ltrans6.ltrans.o
spekChannelData.lto_priv.354                      /tmp/ccZkfwo0.ltrans16.ltrans.o
                                                  /tmp/ccZkfwo0.ltrans22.ltrans.o
spekFrame.lto_priv.350                            /tmp/ccZkfwo0.ltrans16.ltrans.o
                                                  /tmp/ccZkfwo0.ltrans22.ltrans.o
spekHiRes.lto_priv.194                            /tmp/ccZkfwo0.ltrans24.ltrans.o
                                                  /tmp/ccZkfwo0.ltrans16.ltrans.o
spekShouldBind                                    obj/main/CC3D/rx/spektrum.o (symbol from plugin)
spek_chan_mask.lto_priv.353                       /tmp/ccZkfwo0.ltrans24.ltrans.o
                                                  /tmp/ccZkfwo0.ltrans22.ltrans.o
spek_chan_shift.lto_priv.351                      /tmp/ccZkfwo0.ltrans24.ltrans.o
                                                  /tmp/ccZkfwo0.ltrans22.ltrans.o
spektrumBind                                      obj/main/CC3D/rx/spektrum.o (symbol from plugin)
                                                  obj/main/CC3D/main.o (symbol from plugin)
spektrumDataReceive.lto_priv.179                  /tmp/ccZkfwo0.ltrans16.ltrans.o
                                                  /tmp/ccZkfwo0.ltrans24.ltrans.o
spektrumFrameStatus                               obj/main/CC3D/rx/spektrum.o (symbol from plugin)
                                                  obj/main/CC3D/rx/rx.o (symbol from plugin)
spektrumInit                                      obj/main/CC3D/rx/spektrum.o (symbol from plugin)
                                                  obj/main/CC3D/rx/rx.o (symbol from plugin)
spektrumInit.constprop.63                         /tmp/ccZkfwo0.ltrans24.ltrans.o
                                                  /tmp/ccZkfwo0.ltrans0.ltrans.o
spektrumReadRawRC.lto_priv.178                    /tmp/ccZkfwo0.ltrans16.ltrans.o
                                                  /tmp/ccZkfwo0.ltrans24.ltrans.o
spiInit                                           obj/main/CC3D/drivers/bus_spi.o (symbol from plugin)
                                                  obj/main/CC3D/main.o (symbol from plugin)
spiIsBusBusy                                      obj/main/CC3D/drivers/bus_spi.o (symbol from plugin)
spiSetDivisor                                     obj/main/CC3D/drivers/bus_spi.o (symbol from plugin)
                                                  obj/main/CC3D/drivers/flash_m25p16.o (symbol from plugin)
                                                  obj/main/CC3D/drivers/accgyro_spi_mpu6000.o (symbol from plugin)
spiTransfer                                       /tmp/ccZkfwo0.ltrans20.ltrans.o
                                                  obj/main/CC3D/drivers/bus_spi.o (symbol from plugin)
                                                  /tmp/ccZkfwo0.ltrans12.ltrans.o
                                                  /tmp/ccZkfwo0.ltrans6.ltrans.o
                                                  /tmp/ccZkfwo0.ltrans0.ltrans.o
                                                  obj/main/CC3D/drivers/flash_m25p16.o (symbol from plugin)
                                                  obj/main/CC3D/drivers/accgyro_spi_mpu6000.o (symbol from plugin)
spiTransferByte                                   /tmp/ccZkfwo0.ltrans20.ltrans.o
                                                  obj/main/CC3D/drivers/bus_spi.o (symbol from plugin)
                                                  /tmp/ccZkfwo0.ltrans12.ltrans.o
                                                  obj/main/CC3D/drivers/flash_m25p16.o (symbol from plugin)
                                                  obj/main/CC3D/drivers/accgyro_spi_mpu6000.o (symbol from plugin)
sqrtf                                             /usr/bin/../lib/gcc/arm-none-eabi/4.9.3/../../../../arm-none-eabi/lib/armv7-m/libm.a(lib_a-wf_sqrt.o)
                                                  /tmp/ccZkfwo0.ltrans23.ltrans.o
                                                  /tmp/ccZkfwo0.ltrans2.ltrans.o
standardBoardAlignment.lto_priv.488               /tmp/ccZkfwo0.ltrans7.ltrans.o
                                                  /tmp/ccZkfwo0.ltrans0.ltrans.o
startBlackbox                                     obj/main/CC3D/blackbox/blackbox.o (symbol from plugin)
                                                  obj/main/CC3D/mw.o (symbol from plugin)
stateFlags                                        /tmp/ccZkfwo0.ltrans4.ltrans.o
                                                  obj/main/CC3D/config/runtime_config.o (symbol from plugin)
                                                  /tmp/ccZkfwo0.ltrans28.ltrans.o
                                                  /tmp/ccZkfwo0.ltrans23.ltrans.o
                                                  /tmp/ccZkfwo0.ltrans5.ltrans.o
                                                  /tmp/ccZkfwo0.ltrans3.ltrans.o
                                                  /tmp/ccZkfwo0.ltrans2.ltrans.o
                                                  /tmp/ccZkfwo0.ltrans1.ltrans.o
                                                  /tmp/ccZkfwo0.ltrans0.ltrans.o
                                                  obj/main/CC3D/sensors/compass.o (symbol from plugin)
                                                  obj/main/CC3D/io/serial_msp.o (symbol from plugin)
                                                  obj/main/CC3D/io/rc_controls.o (symbol from plugin)
                                                  obj/main/CC3D/flight/mixer.o (symbol from plugin)
                                                  obj/main/CC3D/flight/imu.o (symbol from plugin)
                                                  obj/main/CC3D/mw.o (symbol from plugin)
                                                  obj/main/CC3D/main.o (symbol from plugin)
                                                  obj/main/CC3D/blackbox/blackbox.o (symbol from plugin)
                                                  obj/main/CC3D/telemetry/ltm.o (symbol from plugin)
stdout_putf.lto_priv.540                          /tmp/ccZkfwo0.ltrans0.ltrans.o
                                                  /tmp/ccZkfwo0.ltrans18.ltrans.o
stdout_putp.lto_priv.539                          /tmp/ccZkfwo0.ltrans0.ltrans.o
                                                  /tmp/ccZkfwo0.ltrans18.ltrans.o
stopMotors                                        /tmp/ccZkfwo0.ltrans19.ltrans.o
                                                  obj/main/CC3D/flight/mixer.o (symbol from plugin)
                                                  /tmp/ccZkfwo0.ltrans25.ltrans.o
                                                  /tmp/ccZkfwo0.ltrans21.ltrans.o
                                                  /tmp/ccZkfwo0.ltrans1.ltrans.o
                                                  obj/main/CC3D/io/serial_msp.o (symbol from plugin)
                                                  obj/main/CC3D/io/serial_cli.o (symbol from plugin)
                                                  obj/main/CC3D/main.o (symbol from plugin)
strcasecmp                                        /usr/bin/../lib/gcc/arm-none-eabi/4.9.3/../../../../arm-none-eabi/lib/armv7-m/libg_nano.a(lib_a-strcasecmp.o)
                                                  /tmp/ccZkfwo0.ltrans16.ltrans.o
                                                  /tmp/ccZkfwo0.ltrans11.ltrans.o
                                                  /tmp/ccZkfwo0.ltrans10.ltrans.o
strcat                                            /usr/bin/../lib/gcc/arm-none-eabi/4.9.3/../../../../arm-none-eabi/lib/armv7-m/libg_nano.a(lib_a-strcat.o)
                                                  /tmp/ccZkfwo0.ltrans18.ltrans.o
strchr                                            /usr/bin/../lib/gcc/arm-none-eabi/4.9.3/../../../../arm-none-eabi/lib/armv7-m/libg_nano.a(lib_a-strchr.o)
                                                  /tmp/ccZkfwo0.ltrans25.ltrans.o
                                                  /tmp/ccZkfwo0.ltrans24.ltrans.o
                                                  /tmp/ccZkfwo0.ltrans16.ltrans.o
                                                  /tmp/ccZkfwo0.ltrans11.ltrans.o
                                                  /tmp/ccZkfwo0.ltrans10.ltrans.o
                                                  /tmp/ccZkfwo0.ltrans1.ltrans.o
strlen                                            /usr/bin/../lib/gcc/arm-none-eabi/4.9.3/../../../../arm-none-eabi/lib/armv7-m/libg_nano.a(lib_a-strlen.o)
                                                  /tmp/ccZkfwo0.ltrans25.ltrans.o
                                                  /tmp/ccZkfwo0.ltrans18.ltrans.o
                                                  /tmp/ccZkfwo0.ltrans16.ltrans.o
                                                  /tmp/ccZkfwo0.ltrans14.ltrans.o
                                                  /tmp/ccZkfwo0.ltrans11.ltrans.o
                                                  /tmp/ccZkfwo0.ltrans10.ltrans.o
                                                  /tmp/ccZkfwo0.ltrans5.ltrans.o
                                                  /tmp/ccZkfwo0.ltrans4.ltrans.o
                                                  /tmp/ccZkfwo0.ltrans1.ltrans.o
strncasecmp                                       /usr/bin/../lib/gcc/arm-none-eabi/4.9.3/../../../../arm-none-eabi/lib/armv7-m/libg_nano.a(lib_a-strncasecmp.o)
                                                  /tmp/ccZkfwo0.ltrans25.ltrans.o
                                                  /tmp/ccZkfwo0.ltrans16.ltrans.o
                                                  /tmp/ccZkfwo0.ltrans11.ltrans.o
                                                  /tmp/ccZkfwo0.ltrans10.ltrans.o
                                                  /tmp/ccZkfwo0.ltrans1.ltrans.o
strncpy                                           /usr/bin/../lib/gcc/arm-none-eabi/4.9.3/../../../../arm-none-eabi/lib/armv7-m/libg_nano.a(lib_a-strncpy.o)
                                                  /tmp/ccZkfwo0.ltrans18.ltrans.o
strstr                                            /usr/bin/../lib/gcc/arm-none-eabi/4.9.3/../../../../arm-none-eabi/lib/armv7-m/libg_nano.a(lib_a-strstr.o)
                                                  /tmp/ccZkfwo0.ltrans16.ltrans.o
                                                  /tmp/ccZkfwo0.ltrans10.ltrans.o
strtok                                            /usr/bin/../lib/gcc/arm-none-eabi/4.9.3/../../../../arm-none-eabi/lib/armv7-m/libc_nano.a(lib_a-strtok.o)
                                                  /tmp/ccZkfwo0.ltrans11.ltrans.o
                                                  /tmp/ccZkfwo0.ltrans10.ltrans.o
                                                  obj/main/CC3D/io/serial_cli.o (symbol from plugin)
strtok_r                                          /usr/bin/../lib/gcc/arm-none-eabi/4.9.3/../../../../arm-none-eabi/lib/armv7-m/libc_nano.a(lib_a-strtok_r.o)
                                                  /tmp/ccZkfwo0.ltrans25.ltrans.o
                                                  obj/main/CC3D/io/serial_cli.o (symbol from plugin)
strtol                                            /usr/bin/../lib/gcc/arm-none-eabi/4.9.3/../../../../arm-none-eabi/lib/armv7-m/libc_nano.a(lib_a-strtol.o)
                                                  /usr/bin/../lib/gcc/arm-none-eabi/4.9.3/../../../../arm-none-eabi/lib/armv7-m/libc_nano.a(lib_a-atoi.o)
subTasksMainPidLoop                               obj/main/CC3D/mw.o (symbol from plugin)
sumd.lto_priv.344                                 /tmp/ccZkfwo0.ltrans16.ltrans.o
                                                  /tmp/ccZkfwo0.ltrans22.ltrans.o
sumdChannelCount.lto_priv.343                     /tmp/ccZkfwo0.ltrans16.ltrans.o
                                                  /tmp/ccZkfwo0.ltrans22.ltrans.o
sumdChannels.lto_priv.345                         /tmp/ccZkfwo0.ltrans16.ltrans.o
                                                  /tmp/ccZkfwo0.ltrans22.ltrans.o
sumdDataReceive.lto_priv.462                      /tmp/ccZkfwo0.ltrans16.ltrans.o
                                                  /tmp/ccZkfwo0.ltrans0.ltrans.o
sumdFrameDone.lto_priv.341                        /tmp/ccZkfwo0.ltrans16.ltrans.o
                                                  /tmp/ccZkfwo0.ltrans22.ltrans.o
sumdFrameStatus                                   obj/main/CC3D/rx/sumd.o (symbol from plugin)
                                                  obj/main/CC3D/rx/rx.o (symbol from plugin)
sumdInit                                          obj/main/CC3D/rx/sumd.o (symbol from plugin)
                                                  obj/main/CC3D/rx/rx.o (symbol from plugin)
sumdReadRawRC.lto_priv.461                        /tmp/ccZkfwo0.ltrans16.ltrans.o
                                                  /tmp/ccZkfwo0.ltrans0.ltrans.o
sumhChannels.lto_priv.340                         /tmp/ccZkfwo0.ltrans16.ltrans.o
                                                  /tmp/ccZkfwo0.ltrans22.ltrans.o
sumhDataReceive.lto_priv.464                      /tmp/ccZkfwo0.ltrans16.ltrans.o
                                                  /tmp/ccZkfwo0.ltrans0.ltrans.o
sumhFrame.lto_priv.339                            /tmp/ccZkfwo0.ltrans16.ltrans.o
                                                  /tmp/ccZkfwo0.ltrans22.ltrans.o
sumhFrameDone.lto_priv.338                        /tmp/ccZkfwo0.ltrans16.ltrans.o
                                                  /tmp/ccZkfwo0.ltrans22.ltrans.o
sumhFrameStatus                                   obj/main/CC3D/rx/sumh.o (symbol from plugin)
                                                  obj/main/CC3D/rx/rx.o (symbol from plugin)
sumhInit                                          obj/main/CC3D/rx/sumh.o (symbol from plugin)
                                                  obj/main/CC3D/rx/rx.o (symbol from plugin)
sumhReadRawRC.lto_priv.463                        /tmp/ccZkfwo0.ltrans16.ltrans.o
                                                  /tmp/ccZkfwo0.ltrans0.ltrans.o
suspendRxSignal                                   /tmp/ccZkfwo0.ltrans16.ltrans.o
                                                  obj/main/CC3D/rx/rx.o (symbol from plugin)
                                                  /tmp/ccZkfwo0.ltrans18.ltrans.o
                                                  /tmp/ccZkfwo0.ltrans14.ltrans.o
                                                  obj/main/CC3D/config/config.o (symbol from plugin)
suspendRxSignalUntil.lto_priv.320                 /tmp/ccZkfwo0.ltrans16.ltrans.o
                                                  /tmp/ccZkfwo0.ltrans3.ltrans.o
sysTickUptime.lto_priv.195                        /tmp/ccZkfwo0.ltrans24.ltrans.o
                                                  /tmp/ccZkfwo0.ltrans27.ltrans.o
                                                  /tmp/ccZkfwo0.ltrans23.ltrans.o
                                                  /tmp/ccZkfwo0.ltrans22.ltrans.o
                                                  /tmp/ccZkfwo0.ltrans21.ltrans.o
                                                  /tmp/ccZkfwo0.ltrans19.ltrans.o
                                                  /tmp/ccZkfwo0.ltrans16.ltrans.o
                                                  /tmp/ccZkfwo0.ltrans12.ltrans.o
                                                  /tmp/ccZkfwo0.ltrans8.ltrans.o
                                                  /tmp/ccZkfwo0.ltrans6.ltrans.o
                                                  /tmp/ccZkfwo0.ltrans4.ltrans.o
                                                  /tmp/ccZkfwo0.ltrans3.ltrans.o
                                                  /tmp/ccZkfwo0.ltrans2.ltrans.o
                                                  /tmp/ccZkfwo0.ltrans0.ltrans.o
systemBeep                                        /tmp/ccZkfwo0.ltrans19.ltrans.o
                                                  obj/main/CC3D/drivers/sound_beeper.o (symbol from plugin)
                                                  /tmp/ccZkfwo0.ltrans22.ltrans.o
                                                  /tmp/ccZkfwo0.ltrans8.ltrans.o
                                                  /tmp/ccZkfwo0.ltrans0.ltrans.o
                                                  obj/main/CC3D/io/beeper.o (symbol from plugin)
                                                  obj/main/CC3D/drivers/system.o (symbol from plugin)
                                                  obj/main/CC3D/main.o (symbol from plugin)
systemBeepPtr                                     /tmp/ccZkfwo0.ltrans19.ltrans.o
                                                  obj/main/CC3D/drivers/sound_beeper.o (symbol from plugin)
                                                  /tmp/ccZkfwo0.ltrans0.ltrans.o
systemInit                                        obj/main/CC3D/drivers/system.o (symbol from plugin)
                                                  obj/main/CC3D/main.o (symbol from plugin)
systemReset                                       obj/main/CC3D/drivers/system_stm32f10x.o (symbol from plugin)
                                                  obj/main/CC3D/io/serial_msp.o (symbol from plugin)
                                                  obj/main/CC3D/io/serial_cli.o (symbol from plugin)
                                                  obj/main/CC3D/drivers/system.o (symbol from plugin)
systemResetToBootloader                           obj/main/CC3D/drivers/system_stm32f10x.o (symbol from plugin)
                                                  obj/main/CC3D/io/serial.o (symbol from plugin)
systemState.lto_priv.443                          /tmp/ccZkfwo0.ltrans21.ltrans.o
                                                  /tmp/ccZkfwo0.ltrans0.ltrans.o
tailAddress.lto_priv.550                          /tmp/ccZkfwo0.ltrans0.ltrans.o
                                                  /tmp/ccZkfwo0.ltrans14.ltrans.o
                                                  /tmp/ccZkfwo0.ltrans12.ltrans.o
tailSerialReply.lto_priv.387                      /tmp/ccZkfwo0.ltrans16.ltrans.o
                                                  /tmp/ccZkfwo0.ltrans1.ltrans.o
targetLooptime                                    /tmp/ccZkfwo0.ltrans16.ltrans.o
                                                  obj/main/CC3D/drivers/gyro_sync.o (symbol from plugin)
                                                  /tmp/ccZkfwo0.ltrans21.ltrans.o
                                                  /tmp/ccZkfwo0.ltrans3.ltrans.o
                                                  /tmp/ccZkfwo0.ltrans2.ltrans.o
                                                  /tmp/ccZkfwo0.ltrans1.ltrans.o
                                                  /tmp/ccZkfwo0.ltrans0.ltrans.o
                                                  obj/main/CC3D/sensors/gyro.o (symbol from plugin)
                                                  obj/main/CC3D/io/serial_msp.o (symbol from plugin)
                                                  obj/main/CC3D/flight/pid.o (symbol from plugin)
                                                  obj/main/CC3D/mw.o (symbol from plugin)
                                                  obj/main/CC3D/main.o (symbol from plugin)
                                                  obj/main/CC3D/blackbox/blackbox.o (symbol from plugin)
targetName                                        obj/main/CC3D/version.o (symbol from plugin)
                                                  obj/main/CC3D/io/serial_cli.o (symbol from plugin)
targetPidLooptime                                 /tmp/ccZkfwo0.ltrans19.ltrans.o
                                                  obj/main/CC3D/flight/pid.o (symbol from plugin)
                                                  /tmp/ccZkfwo0.ltrans27.ltrans.o
                                                  /tmp/ccZkfwo0.ltrans21.ltrans.o
                                                  /tmp/ccZkfwo0.ltrans2.ltrans.o
                                                  /tmp/ccZkfwo0.ltrans0.ltrans.o
                                                  obj/main/CC3D/flight/mixer.o (symbol from plugin)
                                                  obj/main/CC3D/mw.o (symbol from plugin)
                                                  obj/main/CC3D/blackbox/blackbox_io.o (symbol from plugin)
taskHandleSerial                                  /tmp/ccZkfwo0.ltrans1.ltrans.o
                                                  obj/main/CC3D/mw.o (symbol from plugin)
                                                  /tmp/ccZkfwo0.ltrans16.ltrans.o
                                                  obj/main/CC3D/scheduler_tasks.o (symbol from plugin)
taskLedStrip                                      /tmp/ccZkfwo0.ltrans9.ltrans.o
                                                  obj/main/CC3D/mw.o (symbol from plugin)
                                                  /tmp/ccZkfwo0.ltrans16.ltrans.o
                                                  obj/main/CC3D/scheduler_tasks.o (symbol from plugin)
taskMainPidLoop                                   obj/main/CC3D/mw.o (symbol from plugin)
taskMainPidLoopCheck                              /tmp/ccZkfwo0.ltrans2.ltrans.o
                                                  obj/main/CC3D/mw.o (symbol from plugin)
                                                  /tmp/ccZkfwo0.ltrans16.ltrans.o
                                                  obj/main/CC3D/scheduler_tasks.o (symbol from plugin)
taskMotorUpdate                                   /tmp/ccZkfwo0.ltrans21.ltrans.o
                                                  obj/main/CC3D/mw.o (symbol from plugin)
                                                  /tmp/ccZkfwo0.ltrans2.ltrans.o
taskQueueArray.lto_priv.440                       /tmp/ccZkfwo0.ltrans16.ltrans.o
                                                  /tmp/ccZkfwo0.ltrans18.ltrans.o
                                                  /tmp/ccZkfwo0.ltrans0.ltrans.o
taskQueueSize.lto_priv.442                        /tmp/ccZkfwo0.ltrans16.ltrans.o
                                                  /tmp/ccZkfwo0.ltrans18.ltrans.o
                                                  /tmp/ccZkfwo0.ltrans0.ltrans.o
taskSystem                                        /tmp/ccZkfwo0.ltrans18.ltrans.o
                                                  obj/main/CC3D/scheduler.o (symbol from plugin)
                                                  /tmp/ccZkfwo0.ltrans16.ltrans.o
                                                  obj/main/CC3D/scheduler_tasks.o (symbol from plugin)
taskTelemetry                                     /tmp/ccZkfwo0.ltrans4.ltrans.o
                                                  obj/main/CC3D/mw.o (symbol from plugin)
                                                  /tmp/ccZkfwo0.ltrans16.ltrans.o
                                                  obj/main/CC3D/scheduler_tasks.o (symbol from plugin)
taskUpdateAccelerometer                           /tmp/ccZkfwo0.ltrans23.ltrans.o
                                                  obj/main/CC3D/mw.o (symbol from plugin)
                                                  /tmp/ccZkfwo0.ltrans16.ltrans.o
                                                  obj/main/CC3D/scheduler_tasks.o (symbol from plugin)
taskUpdateAttitude                                /tmp/ccZkfwo0.ltrans23.ltrans.o
                                                  obj/main/CC3D/mw.o (symbol from plugin)
                                                  /tmp/ccZkfwo0.ltrans16.ltrans.o
                                                  obj/main/CC3D/scheduler_tasks.o (symbol from plugin)
taskUpdateBattery                                 /tmp/ccZkfwo0.ltrans22.ltrans.o
                                                  obj/main/CC3D/mw.o (symbol from plugin)
                                                  /tmp/ccZkfwo0.ltrans16.ltrans.o
                                                  obj/main/CC3D/scheduler_tasks.o (symbol from plugin)
taskUpdateBeeper                                  /tmp/ccZkfwo0.ltrans22.ltrans.o
                                                  obj/main/CC3D/mw.o (symbol from plugin)
                                                  /tmp/ccZkfwo0.ltrans16.ltrans.o
                                                  obj/main/CC3D/scheduler_tasks.o (symbol from plugin)
taskUpdateCompass                                 /tmp/ccZkfwo0.ltrans28.ltrans.o
                                                  obj/main/CC3D/mw.o (symbol from plugin)
                                                  /tmp/ccZkfwo0.ltrans16.ltrans.o
                                                  obj/main/CC3D/scheduler_tasks.o (symbol from plugin)
taskUpdateRxCheck                                 /tmp/ccZkfwo0.ltrans22.ltrans.o
                                                  obj/main/CC3D/mw.o (symbol from plugin)
                                                  /tmp/ccZkfwo0.ltrans16.ltrans.o
                                                  obj/main/CC3D/scheduler_tasks.o (symbol from plugin)
taskUpdateRxMain                                  /tmp/ccZkfwo0.ltrans3.ltrans.o
                                                  obj/main/CC3D/mw.o (symbol from plugin)
                                                  /tmp/ccZkfwo0.ltrans16.ltrans.o
                                                  obj/main/CC3D/scheduler_tasks.o (symbol from plugin)
telemTemperature1                                 /tmp/ccZkfwo0.ltrans4.ltrans.o
                                                  obj/main/CC3D/mw.o (symbol from plugin)
                                                  /tmp/ccZkfwo0.ltrans3.ltrans.o
                                                  obj/main/CC3D/telemetry/frsky.o (symbol from plugin)
telemetryCheckState                               /tmp/ccZkfwo0.ltrans12.ltrans.o
                                                  obj/main/CC3D/telemetry/telemetry.o (symbol from plugin)
                                                  /tmp/ccZkfwo0.ltrans4.ltrans.o
                                                  /tmp/ccZkfwo0.ltrans3.ltrans.o
                                                  /tmp/ccZkfwo0.ltrans0.ltrans.o
                                                  obj/main/CC3D/mw.o (symbol from plugin)
telemetryConfig.lto_priv.293                      /tmp/ccZkfwo0.ltrans4.ltrans.o
                                                  /tmp/ccZkfwo0.ltrans12.ltrans.o
                                                  /tmp/ccZkfwo0.ltrans0.ltrans.o
telemetryConfig.lto_priv.294                      /tmp/ccZkfwo0.ltrans4.ltrans.o
                                                  /tmp/ccZkfwo0.ltrans0.ltrans.o
telemetryConfig.lto_priv.295                      /tmp/ccZkfwo0.ltrans4.ltrans.o
                                                  /tmp/ccZkfwo0.ltrans12.ltrans.o
                                                  /tmp/ccZkfwo0.ltrans0.ltrans.o
telemetryConfig.lto_priv.447                      /tmp/ccZkfwo0.ltrans0.ltrans.o
                                                  /tmp/ccZkfwo0.ltrans14.ltrans.o
                                                  /tmp/ccZkfwo0.ltrans12.ltrans.o
telemetryDetermineEnabledState                    obj/main/CC3D/telemetry/telemetry.o (symbol from plugin)
                                                  obj/main/CC3D/telemetry/ltm.o (symbol from plugin)
                                                  obj/main/CC3D/telemetry/smartport.o (symbol from plugin)
                                                  obj/main/CC3D/telemetry/hott.o (symbol from plugin)
                                                  obj/main/CC3D/telemetry/frsky.o (symbol from plugin)
telemetryInit                                     obj/main/CC3D/telemetry/telemetry.o (symbol from plugin)
                                                  obj/main/CC3D/main.o (symbol from plugin)
telemetryProcess                                  obj/main/CC3D/telemetry/telemetry.o (symbol from plugin)
                                                  obj/main/CC3D/mw.o (symbol from plugin)
telemetryUseConfig                                obj/main/CC3D/telemetry/telemetry.o (symbol from plugin)
                                                  obj/main/CC3D/config/config.o (symbol from plugin)
tfp_format                                        /tmp/ccZkfwo0.ltrans18.ltrans.o
                                                  obj/main/CC3D/common/printf.o (symbol from plugin)
                                                  /tmp/ccZkfwo0.ltrans25.ltrans.o
                                                  /tmp/ccZkfwo0.ltrans24.ltrans.o
                                                  /tmp/ccZkfwo0.ltrans14.ltrans.o
                                                  obj/main/CC3D/io/serial_cli.o (symbol from plugin)
                                                  obj/main/CC3D/blackbox/blackbox_io.o (symbol from plugin)
tfp_printf                                        /tmp/ccZkfwo0.ltrans18.ltrans.o
                                                  obj/main/CC3D/common/printf.o (symbol from plugin)
                                                  /tmp/ccZkfwo0.ltrans10.ltrans.o
                                                  obj/main/CC3D/io/serial_cli.o (symbol from plugin)
tfp_sprintf                                       obj/main/CC3D/common/printf.o (symbol from plugin)
                                                  obj/main/CC3D/io/ledstrip.o (symbol from plugin)
tfp_sprintf.constprop.123                         /tmp/ccZkfwo0.ltrans24.ltrans.o
                                                  /tmp/ccZkfwo0.ltrans11.ltrans.o
throttleAngleScale                                /tmp/ccZkfwo0.ltrans2.ltrans.o
                                                  obj/main/CC3D/flight/imu.o (symbol from plugin)
                                                  /tmp/ccZkfwo0.ltrans14.ltrans.o
timerChCCHandlerInit                              obj/main/CC3D/drivers/timer.o (symbol from plugin)
                                                  obj/main/CC3D/drivers/serial_softserial.o (symbol from plugin)
                                                  obj/main/CC3D/drivers/pwm_rx.o (symbol from plugin)
timerChCCR                                        obj/main/CC3D/drivers/timer.o (symbol from plugin)
timerChCCRHi                                      obj/main/CC3D/drivers/timer.o (symbol from plugin)
timerChCCRLo                                      obj/main/CC3D/drivers/timer.o (symbol from plugin)
timerChClearCCFlag                                obj/main/CC3D/drivers/timer.o (symbol from plugin)
timerChConfigCallbacks                            /tmp/ccZkfwo0.ltrans12.ltrans.o
                                                  obj/main/CC3D/drivers/timer.o (symbol from plugin)
                                                  /tmp/ccZkfwo0.ltrans6.ltrans.o
                                                  /tmp/ccZkfwo0.ltrans0.ltrans.o
                                                  obj/main/CC3D/drivers/serial_softserial.o (symbol from plugin)
                                                  obj/main/CC3D/drivers/pwm_rx.o (symbol from plugin)
timerChConfigCallbacksDual                        obj/main/CC3D/drivers/timer.o (symbol from plugin)
timerChConfigGPIO                                 obj/main/CC3D/drivers/timer.o (symbol from plugin)
timerChConfigIC                                   obj/main/CC3D/drivers/timer.o (symbol from plugin)
timerChConfigICDual                               obj/main/CC3D/drivers/timer.o (symbol from plugin)
timerChConfigOC                                   obj/main/CC3D/drivers/timer.o (symbol from plugin)
timerChICPolarity                                 obj/main/CC3D/drivers/timer.o (symbol from plugin)
timerChITConfig                                   obj/main/CC3D/drivers/timer.o (symbol from plugin)
timerChITConfigDualLo                             obj/main/CC3D/drivers/timer.o (symbol from plugin)
timerChInit                                       obj/main/CC3D/drivers/timer.o (symbol from plugin)
timerChOvrHandlerInit                             obj/main/CC3D/drivers/timer.o (symbol from plugin)
                                                  obj/main/CC3D/drivers/pwm_rx.o (symbol from plugin)
timerChannelInfo                                  obj/main/CC3D/drivers/timer.o (symbol from plugin)
timerConfig                                       /tmp/ccZkfwo0.ltrans19.ltrans.o
                                                  obj/main/CC3D/drivers/timer.o (symbol from plugin)
                                                  /tmp/ccZkfwo0.ltrans12.ltrans.o
                                                  /tmp/ccZkfwo0.ltrans0.ltrans.o
timerConfigure                                    /tmp/ccZkfwo0.ltrans12.ltrans.o
                                                  obj/main/CC3D/drivers/timer.o (symbol from plugin)
                                                  /tmp/ccZkfwo0.ltrans6.ltrans.o
                                                  /tmp/ccZkfwo0.ltrans0.ltrans.o
                                                  obj/main/CC3D/drivers/serial_softserial.o (symbol from plugin)
                                                  obj/main/CC3D/drivers/pwm_rx.o (symbol from plugin)
timerForceOverflow                                obj/main/CC3D/drivers/timer.o (symbol from plugin)
                                                  obj/main/CC3D/drivers/pwm_output.o (symbol from plugin)
timerHardware                                     /tmp/ccZkfwo0.ltrans0.ltrans.o
                                                  obj/main/CC3D/drivers/timer.o (symbol from plugin)
                                                  /tmp/ccZkfwo0.ltrans6.ltrans.o
                                                  obj/main/CC3D/drivers/serial_softserial.o (symbol from plugin)
                                                  obj/main/CC3D/drivers/pwm_mapping.o (symbol from plugin)
timerInfo                                         obj/main/CC3D/drivers/timer.o (symbol from plugin)
timerInit                                         obj/main/CC3D/drivers/timer.o (symbol from plugin)
                                                  obj/main/CC3D/main.o (symbol from plugin)
timerNVICConfigure                                obj/main/CC3D/drivers/timer.o (symbol from plugin)
timerStart                                        obj/main/CC3D/drivers/timer.o (symbol from plugin)
                                                  obj/main/CC3D/main.o (symbol from plugin)
totalWaitingTasks.lto_priv.537                    /tmp/ccZkfwo0.ltrans0.ltrans.o
                                                  /tmp/ccZkfwo0.ltrans18.ltrans.o
totalWaitingTasksSamples.lto_priv.536             /tmp/ccZkfwo0.ltrans0.ltrans.o
                                                  /tmp/ccZkfwo0.ltrans18.ltrans.o
uartOpen                                          /tmp/ccZkfwo0.ltrans13.ltrans.o
                                                  obj/main/CC3D/drivers/serial_uart.o (symbol from plugin)
                                                  /tmp/ccZkfwo0.ltrans8.ltrans.o
                                                  obj/main/CC3D/io/serial.o (symbol from plugin)
uartRead                                          obj/main/CC3D/drivers/serial_uart.o (symbol from plugin)
uartSetBaudRate                                   obj/main/CC3D/drivers/serial_uart.o (symbol from plugin)
uartSetMode                                       obj/main/CC3D/drivers/serial_uart.o (symbol from plugin)
uartStartTxDMA                                    obj/main/CC3D/drivers/serial_uart.o (symbol from plugin)
                                                  obj/main/CC3D/drivers/serial_uart_stm32f10x.o (symbol from plugin)
uartTotalRxBytesWaiting                           /tmp/ccZkfwo0.ltrans13.ltrans.o
                                                  obj/main/CC3D/drivers/serial_uart.o (symbol from plugin)
                                                  /tmp/ccZkfwo0.ltrans4.ltrans.o
                                                  obj/main/CC3D/rx/jetiexbus.o (symbol from plugin)
uartTotalTxBytesFree                              obj/main/CC3D/drivers/serial_uart.o (symbol from plugin)
uartVTable                                        obj/main/CC3D/drivers/serial_uart.o (symbol from plugin)
                                                  obj/main/CC3D/drivers/serial_uart_stm32f10x.o (symbol from plugin)
uartWrite                                         obj/main/CC3D/drivers/serial_uart.o (symbol from plugin)
ug2864hsweg01InitI2C                              obj/main/CC3D/drivers/display_ug2864hsweg01.o (symbol from plugin)
ui2a                                              obj/main/CC3D/common/typeconversion.o (symbol from plugin)
                                                  obj/main/CC3D/common/printf.o (symbol from plugin)
uli2a                                             obj/main/CC3D/common/typeconversion.o (symbol from plugin)
                                                  obj/main/CC3D/common/printf.o (symbol from plugin)
unregisterExtiCallbackHandler                     obj/main/CC3D/drivers/system.o (symbol from plugin)
updateAccelerationReadings                        obj/main/CC3D/sensors/acceleration.o (symbol from plugin)
                                                  obj/main/CC3D/flight/imu.o (symbol from plugin)
updateActivatedModes                              obj/main/CC3D/io/rc_controls.o (symbol from plugin)
                                                  obj/main/CC3D/mw.o (symbol from plugin)
updateAdjustmentStates                            obj/main/CC3D/io/rc_controls.o (symbol from plugin)
                                                  obj/main/CC3D/mw.o (symbol from plugin)
updateBattery                                     obj/main/CC3D/sensors/battery.o (symbol from plugin)
                                                  obj/main/CC3D/mw.o (symbol from plugin)
updateBatteryVoltage.lto_priv.356                 /tmp/ccZkfwo0.ltrans7.ltrans.o
                                                  /tmp/ccZkfwo0.ltrans22.ltrans.o
updateCompass                                     obj/main/CC3D/sensors/compass.o (symbol from plugin)
                                                  obj/main/CC3D/mw.o (symbol from plugin)
updateCurrentMeter                                obj/main/CC3D/sensors/battery.o (symbol from plugin)
                                                  obj/main/CC3D/mw.o (symbol from plugin)
updateInflightCalibrationState                    obj/main/CC3D/mw.o (symbol from plugin)
updateLedCount                                    obj/main/CC3D/io/ledstrip.o (symbol from plugin)
updateLedStrip                                    obj/main/CC3D/io/ledstrip.o (symbol from plugin)
                                                  obj/main/CC3D/mw.o (symbol from plugin)
updateMagHold                                     obj/main/CC3D/mw.o (symbol from plugin)
updateRSSI                                        obj/main/CC3D/rx/rx.o (symbol from plugin)
                                                  obj/main/CC3D/mw.o (symbol from plugin)
updateRSSIADC                                     obj/main/CC3D/rx/rx.o (symbol from plugin)
updateRSSIPWM                                     obj/main/CC3D/rx/rx.o (symbol from plugin)
updateRx                                          obj/main/CC3D/rx/rx.o (symbol from plugin)
                                                  obj/main/CC3D/mw.o (symbol from plugin)
usTicks.lto_priv.508                              /tmp/ccZkfwo0.ltrans19.ltrans.o
                                                  /tmp/ccZkfwo0.ltrans0.ltrans.o
usartIrqCallback                                  obj/main/CC3D/drivers/serial_uart_stm32f10x.o (symbol from plugin)
usbIsConfigured                                   obj/main/CC3D/vcp/hw_config.o (symbol from plugin)
                                                  obj/main/CC3D/drivers/serial_usb_vcp.o (symbol from plugin)
usbIsConnected                                    obj/main/CC3D/vcp/hw_config.o (symbol from plugin)
                                                  obj/main/CC3D/drivers/serial_usb_vcp.o (symbol from plugin)
usbTxBytesFree                                    /tmp/ccZkfwo0.ltrans24.ltrans.o
                                                  obj/main/CC3D/drivers/serial_usb_vcp.o (symbol from plugin)
                                                  /tmp/ccZkfwo0.ltrans8.ltrans.o
usbVcpAvailable.lto_priv.275                      /tmp/ccZkfwo0.ltrans24.ltrans.o
                                                  /tmp/ccZkfwo0.ltrans8.ltrans.o
usbVcpBeginWrite.lto_priv.281                     /tmp/ccZkfwo0.ltrans24.ltrans.o
                                                  /tmp/ccZkfwo0.ltrans8.ltrans.o
usbVcpEndWrite.lto_priv.282                       /tmp/ccZkfwo0.ltrans24.ltrans.o
                                                  /tmp/ccZkfwo0.ltrans8.ltrans.o
usbVcpGetBaudRate                                 obj/main/CC3D/drivers/serial_usb_vcp.o (symbol from plugin)
usbVcpOpen                                        obj/main/CC3D/drivers/serial_usb_vcp.o (symbol from plugin)
                                                  obj/main/CC3D/io/serial.o (symbol from plugin)
usbVcpRead.lto_priv.276                           /tmp/ccZkfwo0.ltrans24.ltrans.o
                                                  /tmp/ccZkfwo0.ltrans8.ltrans.o
usbVcpSetBaudRate.lto_priv.277                    /tmp/ccZkfwo0.ltrans24.ltrans.o
                                                  /tmp/ccZkfwo0.ltrans8.ltrans.o
usbVcpSetMode.lto_priv.279                        /tmp/ccZkfwo0.ltrans24.ltrans.o
                                                  /tmp/ccZkfwo0.ltrans8.ltrans.o
usbVcpWrite.lto_priv.274                          /tmp/ccZkfwo0.ltrans24.ltrans.o
                                                  /tmp/ccZkfwo0.ltrans8.ltrans.o
usbVcpWriteBuf.lto_priv.280                       /tmp/ccZkfwo0.ltrans24.ltrans.o
                                                  /tmp/ccZkfwo0.ltrans8.ltrans.o
useFailsafeConfig                                 obj/main/CC3D/flight/failsafe.o (symbol from plugin)
                                                  obj/main/CC3D/config/config.o (symbol from plugin)
useGyroConfig                                     obj/main/CC3D/sensors/gyro.o (symbol from plugin)
                                                  obj/main/CC3D/config/config.o (symbol from plugin)
useRcControlsConfig                               obj/main/CC3D/io/rc_controls.o (symbol from plugin)
                                                  obj/main/CC3D/io/serial_msp.o (symbol from plugin)
                                                  obj/main/CC3D/config/config.o (symbol from plugin)
useRxConfig                                       obj/main/CC3D/rx/rx.o (symbol from plugin)
                                                  obj/main/CC3D/config/config.o (symbol from plugin)
usedTimers                                        obj/main/CC3D/drivers/timer.o (symbol from plugin)
validateAndFixConfig                              obj/main/CC3D/config/config.o (symbol from plugin)
valueTable                                        /tmp/ccZkfwo0.ltrans16.ltrans.o
                                                  obj/main/CC3D/io/serial_cli.o (symbol from plugin)
                                                  /tmp/ccZkfwo0.ltrans11.ltrans.o
vario                                             /tmp/ccZkfwo0.ltrans4.ltrans.o
                                                  obj/main/CC3D/flight/altitudehold.o (symbol from plugin)
                                                  obj/main/CC3D/io/serial_msp.o (symbol from plugin)
                                                  obj/main/CC3D/telemetry/smartport.o (symbol from plugin)
                                                  obj/main/CC3D/telemetry/frsky.o (symbol from plugin)
vbat                                              /tmp/ccZkfwo0.ltrans7.ltrans.o
                                                  obj/main/CC3D/sensors/battery.o (symbol from plugin)
                                                  /tmp/ccZkfwo0.ltrans22.ltrans.o
                                                  /tmp/ccZkfwo0.ltrans16.ltrans.o
                                                  /tmp/ccZkfwo0.ltrans4.ltrans.o
                                                  /tmp/ccZkfwo0.ltrans2.ltrans.o
                                                  /tmp/ccZkfwo0.ltrans1.ltrans.o
                                                  obj/main/CC3D/rx/jetiexbus.o (symbol from plugin)
                                                  obj/main/CC3D/io/serial_msp.o (symbol from plugin)
                                                  obj/main/CC3D/io/serial_cli.o (symbol from plugin)
                                                  obj/main/CC3D/telemetry/ltm.o (symbol from plugin)
                                                  obj/main/CC3D/telemetry/smartport.o (symbol from plugin)
                                                  obj/main/CC3D/telemetry/hott.o (symbol from plugin)
                                                  obj/main/CC3D/telemetry/frsky.o (symbol from plugin)
vbatLatestADC                                     /tmp/ccZkfwo0.ltrans7.ltrans.o
                                                  obj/main/CC3D/sensors/battery.o (symbol from plugin)
                                                  /tmp/ccZkfwo0.ltrans22.ltrans.o
                                                  /tmp/ccZkfwo0.ltrans21.ltrans.o
                                                  /tmp/ccZkfwo0.ltrans5.ltrans.o
                                                  obj/main/CC3D/blackbox/blackbox.o (symbol from plugin)
vbatReference.lto_priv.428                        /tmp/ccZkfwo0.ltrans2.ltrans.o
                                                  /tmp/ccZkfwo0.ltrans21.ltrans.o
                                                  /tmp/ccZkfwo0.ltrans5.ltrans.o
velocityControl                                   obj/main/CC3D/flight/altitudehold.o (symbol from plugin)
wCNTR                                             obj/main/CC3D/vcp/usb_istr.o (symbol from plugin)
wInterrupt_Mask                                   /tmp/ccZkfwo0.ltrans26.ltrans.o
                                                  obj/main/CC3D/usb_init.o (symbol from plugin)
                                                  /tmp/ccZkfwo0.ltrans17.ltrans.o
                                                  obj/main/CC3D/vcp/usb_pwr.o (symbol from plugin)
                                                  obj/main/CC3D/vcp/usb_istr.o (symbol from plugin)
                                                  obj/main/CC3D/usb_sil.o (symbol from plugin)
wIstr                                             obj/main/CC3D/vcp/usb_istr.o (symbol from plugin)
                                                  obj/main/CC3D/usb_int.o (symbol from plugin)
waitForSerialPortToFinishTransmitting             /tmp/ccZkfwo0.ltrans8.ltrans.o
                                                  obj/main/CC3D/io/serial.o (symbol from plugin)
                                                  /tmp/ccZkfwo0.ltrans25.ltrans.o
                                                  /tmp/ccZkfwo0.ltrans10.ltrans.o
                                                  /tmp/ccZkfwo0.ltrans1.ltrans.o
                                                  obj/main/CC3D/io/serial_msp.o (symbol from plugin)
                                                  obj/main/CC3D/io/serial_cli.o (symbol from plugin)
warningLedDisable                                 obj/main/CC3D/io/statusindicator.o (symbol from plugin)
                                                  obj/main/CC3D/io/beeper.o (symbol from plugin)
                                                  obj/main/CC3D/mw.o (symbol from plugin)
warningLedEnable                                  obj/main/CC3D/io/statusindicator.o (symbol from plugin)
                                                  obj/main/CC3D/io/beeper.o (symbol from plugin)
warningLedFlash                                   obj/main/CC3D/io/statusindicator.o (symbol from plugin)
                                                  obj/main/CC3D/mw.o (symbol from plugin)
warningLedRefresh                                 /tmp/ccZkfwo0.ltrans16.ltrans.o
                                                  obj/main/CC3D/io/statusindicator.o (symbol from plugin)
                                                  /tmp/ccZkfwo0.ltrans22.ltrans.o
                                                  /tmp/ccZkfwo0.ltrans8.ltrans.o
                                                  /tmp/ccZkfwo0.ltrans3.ltrans.o
                                                  obj/main/CC3D/io/beeper.o (symbol from plugin)
warningLedResetTimer                              obj/main/CC3D/io/statusindicator.o (symbol from plugin)
warningLedState.lto_priv.273                      /tmp/ccZkfwo0.ltrans16.ltrans.o
                                                  /tmp/ccZkfwo0.ltrans22.ltrans.o
                                                  /tmp/ccZkfwo0.ltrans8.ltrans.o
                                                  /tmp/ccZkfwo0.ltrans3.ltrans.o
warningLedTimer.lto_priv.311                      /tmp/ccZkfwo0.ltrans16.ltrans.o
                                                  /tmp/ccZkfwo0.ltrans3.ltrans.o
warningLedUpdate                                  obj/main/CC3D/io/statusindicator.o (symbol from plugin)
                                                  obj/main/CC3D/mw.o (symbol from plugin)
workAroundForHottTelemetryOnUsart.isra.0.lto_priv.306 /tmp/ccZkfwo0.ltrans12.ltrans.o
                                                  /tmp/ccZkfwo0.ltrans4.ltrans.o
writeAllMotors                                    obj/main/CC3D/flight/mixer.o (symbol from plugin)
writeEEPROM                                       /tmp/ccZkfwo0.ltrans18.ltrans.o
                                                  obj/main/CC3D/config/config.o (symbol from plugin)
                                                  /tmp/ccZkfwo0.ltrans25.ltrans.o
                                                  /tmp/ccZkfwo0.ltrans1.ltrans.o
                                                  /tmp/ccZkfwo0.ltrans0.ltrans.o
                                                  obj/main/CC3D/io/serial_msp.o (symbol from plugin)
                                                  obj/main/CC3D/io/serial_cli.o (symbol from plugin)
writeMotors                                       /tmp/ccZkfwo0.ltrans19.ltrans.o
                                                  obj/main/CC3D/flight/mixer.o (symbol from plugin)
                                                  /tmp/ccZkfwo0.ltrans21.ltrans.o
                                                  obj/main/CC3D/mw.o (symbol from plugin)
writeServos                                       obj/main/CC3D/flight/mixer.o (symbol from plugin)
                                                  obj/main/CC3D/mw.o (symbol from plugin)
write_p.lto_priv.587                              /tmp/ccZkfwo0.ltrans15.ltrans.o
                                                  /tmp/ccZkfwo0.ltrans20.ltrans.o
writer.lto_priv.358                               /tmp/ccZkfwo0.ltrans16.ltrans.o
                                                  /tmp/ccZkfwo0.ltrans1.ltrans.o
writing.lto_priv.585                              /tmp/ccZkfwo0.ltrans15.ltrans.o
                                                  /tmp/ccZkfwo0.ltrans20.ltrans.o
ws2811DMAHandler                                  /tmp/ccZkfwo0.ltrans6.ltrans.o
                                                  obj/main/CC3D/drivers/light_ws2811strip.o (symbol from plugin)
                                                  /tmp/ccZkfwo0.ltrans0.ltrans.o
ws2811LedDataTransferInProgress                   /tmp/ccZkfwo0.ltrans9.ltrans.o
                                                  obj/main/CC3D/drivers/light_ws2811strip.o (symbol from plugin)
                                                  /tmp/ccZkfwo0.ltrans6.ltrans.o
ws2811LedStripDMAEnable                           obj/main/CC3D/drivers/light_ws2811strip_stm32f10x.o (symbol from plugin)
                                                  obj/main/CC3D/drivers/light_ws2811strip.o (symbol from plugin)
ws2811LedStripHardwareInit                        obj/main/CC3D/drivers/light_ws2811strip_stm32f10x.o (symbol from plugin)
                                                  obj/main/CC3D/drivers/light_ws2811strip.o (symbol from plugin)
ws2811LedStripInit                                obj/main/CC3D/drivers/light_ws2811strip.o (symbol from plugin)
                                                  obj/main/CC3D/io/ledstrip.o (symbol from plugin)
ws2811UpdateStrip                                 /tmp/ccZkfwo0.ltrans6.ltrans.o
                                                  obj/main/CC3D/drivers/light_ws2811strip.o (symbol from plugin)
                                                  /tmp/ccZkfwo0.ltrans9.ltrans.o
                                                  /tmp/ccZkfwo0.ltrans0.ltrans.o
                                                  obj/main/CC3D/io/ledstrip.o (symbol from plugin)
                                                  obj/main/CC3D/drivers/light_ws2811strip_stm32f10x.o (symbol from plugin)
xBusChannelCount.lto_priv.468                     /tmp/ccZkfwo0.ltrans16.ltrans.o
                                                  /tmp/ccZkfwo0.ltrans0.ltrans.o
xBusChannelData.lto_priv.193                      /tmp/ccZkfwo0.ltrans7.ltrans.o
                                                  /tmp/ccZkfwo0.ltrans16.ltrans.o
xBusDataIncoming.lto_priv.465                     /tmp/ccZkfwo0.ltrans7.ltrans.o
                                                  /tmp/ccZkfwo0.ltrans0.ltrans.o
xBusDataReceive.lto_priv.471                      /tmp/ccZkfwo0.ltrans7.ltrans.o
                                                  /tmp/ccZkfwo0.ltrans0.ltrans.o
xBusFrame.lto_priv.192                            /tmp/ccZkfwo0.ltrans7.ltrans.o
                                                  /tmp/ccZkfwo0.ltrans16.ltrans.o
xBusFrameLength.lto_priv.467                      /tmp/ccZkfwo0.ltrans7.ltrans.o
                                                  /tmp/ccZkfwo0.ltrans0.ltrans.o
xBusFramePosition.lto_priv.466                    /tmp/ccZkfwo0.ltrans7.ltrans.o
                                                  /tmp/ccZkfwo0.ltrans0.ltrans.o
xBusFrameReceived.lto_priv.337                    /tmp/ccZkfwo0.ltrans16.ltrans.o
                                                  /tmp/ccZkfwo0.ltrans22.ltrans.o
                                                  /tmp/ccZkfwo0.ltrans0.ltrans.o
xBusFrameStatus                                   obj/main/CC3D/rx/xbus.o (symbol from plugin)
                                                  obj/main/CC3D/rx/rx.o (symbol from plugin)
xBusInit                                          obj/main/CC3D/rx/xbus.o (symbol from plugin)
                                                  obj/main/CC3D/rx/rx.o (symbol from plugin)
xBusProvider.lto_priv.469                         /tmp/ccZkfwo0.ltrans7.ltrans.o
                                                  /tmp/ccZkfwo0.ltrans0.ltrans.o
xBusReadRawRC.lto_priv.470                        /tmp/ccZkfwo0.ltrans7.ltrans.o
                                                  /tmp/ccZkfwo0.ltrans0.ltrans.o
xBusRj01CRC8                                      obj/main/CC3D/rx/xbus.o (symbol from plugin)
xBusUnpackModeBFrame.lto_priv.191                 /tmp/ccZkfwo0.ltrans16.ltrans.o
                                                  /tmp/ccZkfwo0.ltrans7.ltrans.o
xmitState.lto_priv.435                            /tmp/ccZkfwo0.ltrans2.ltrans.o
                                                  /tmp/ccZkfwo0.ltrans21.ltrans.o
                                                  /tmp/ccZkfwo0.ltrans5.ltrans.o
yawFilterState.lto_priv.288                       /tmp/ccZkfwo0.ltrans19.ltrans.o
                                                  /tmp/ccZkfwo0.ltrans27.ltrans.o
zigzagEncode                                      obj/main/CC3D/common/encoding.o (symbol from plugin)
                                                  obj/main/CC3D/blackbox/blackbox_io.o (symbol from plugin)
